target/debug/uwuwind:	file format elf64-x86-64

.debug_frame contents:


.eh_frame contents:

00000000 00000014 00000000 CIE
  Format:                DWARF32
  Version:               1
  Augmentation:          "zR"
  Code alignment factor: 1
  Data alignment factor: -8
  Return address column: 16
  Augmentation data:     1B

  DW_CFA_def_cfa: RSP +8
  DW_CFA_offset: RIP -8
  DW_CFA_nop:
  DW_CFA_nop:

  CFA=RSP+8: RIP=[CFA-8]

00000018 0000001c 00000000 CIE
  Format:                DWARF32
  Version:               1
  Augmentation:          "zPLR"
  Code alignment factor: 1
  Data alignment factor: -8
  Return address column: 16
  Personality Address: 00000000001d1368
  Augmentation data:     9B 25 72 14 00 1B 1B

  DW_CFA_def_cfa: RSP +8
  DW_CFA_offset: RIP -8
  DW_CFA_nop:
  DW_CFA_nop:

  CFA=RSP+8: RIP=[CFA-8]

00000038 00000010 0000003c FDE cie=00000000 pc=000e6020...000e6046
  Format:       DWARF32
  DW_CFA_advance_loc: 4
  DW_CFA_undefined: RIP

  0xe6020: CFA=RSP+8: RIP=[CFA-8]
  0xe6024: CFA=RSP+8: RIP=undefined

0000004c 00000020 00000050 FDE cie=00000000 pc=000e6110...000e61a3
  Format:       DWARF32
  DW_CFA_advance_loc: 1
  DW_CFA_def_cfa_offset: +16
  DW_CFA_offset: RBP -16
  DW_CFA_advance_loc: 3
  DW_CFA_def_cfa_register: RBP
  DW_CFA_advance_loc1: 123
  DW_CFA_def_cfa: RSP +8
  DW_CFA_advance_loc: 1
  DW_CFA_def_cfa: RBP +16
  DW_CFA_nop:
  DW_CFA_nop:

  0xe6110: CFA=RSP+8: RIP=[CFA-8]
  0xe6111: CFA=RSP+16: RBP=[CFA-16], RIP=[CFA-8]
  0xe6114: CFA=RBP+16: RBP=[CFA-16], RIP=[CFA-8]
  0xe618f: CFA=RSP+8: RBP=[CFA-16], RIP=[CFA-8]
  0xe6190: CFA=RBP+16: RBP=[CFA-16], RIP=[CFA-8]

00000070 00000020 00000074 FDE cie=00000000 pc=000e61b0...000e656d
  Format:       DWARF32
  DW_CFA_advance_loc: 1
  DW_CFA_def_cfa_offset: +16
  DW_CFA_offset: RBP -16
  DW_CFA_advance_loc: 3
  DW_CFA_def_cfa_register: RBP
  DW_CFA_advance_loc2: 362
  DW_CFA_def_cfa: RSP +8
  DW_CFA_advance_loc: 1
  DW_CFA_def_cfa: RBP +16
  DW_CFA_nop:

  0xe61b0: CFA=RSP+8: RIP=[CFA-8]
  0xe61b1: CFA=RSP+16: RBP=[CFA-16], RIP=[CFA-8]
  0xe61b4: CFA=RBP+16: RBP=[CFA-16], RIP=[CFA-8]
  0xe631e: CFA=RSP+8: RBP=[CFA-16], RIP=[CFA-8]
  0xe631f: CFA=RBP+16: RBP=[CFA-16], RIP=[CFA-8]

00000094 00000024 00000080 FDE cie=00000018 pc=000e6570...000e662f
  Format:       DWARF32
  LSDA Address: 00000000000bc2e8
  DW_CFA_advance_loc: 1
  DW_CFA_def_cfa_offset: +16
  DW_CFA_offset: RBP -16
  DW_CFA_advance_loc: 3
  DW_CFA_def_cfa_register: RBP
  DW_CFA_advance_loc1: 186
  DW_CFA_def_cfa: RSP +8
  DW_CFA_nop:
  DW_CFA_nop:
  DW_CFA_nop:
  DW_CFA_nop:
  DW_CFA_nop:
  DW_CFA_nop:

  0xe6570: CFA=RSP+8: RIP=[CFA-8]
  0xe6571: CFA=RSP+16: RBP=[CFA-16], RIP=[CFA-8]
  0xe6574: CFA=RBP+16: RBP=[CFA-16], RIP=[CFA-8]
  0xe662e: CFA=RSP+8: RBP=[CFA-16], RIP=[CFA-8]

000000bc 0000001c 000000c0 FDE cie=00000000 pc=000e6630...000e6652
  Format:       DWARF32
  DW_CFA_advance_loc: 1
  DW_CFA_def_cfa_offset: +16
  DW_CFA_offset: RBP -16
  DW_CFA_advance_loc: 3
  DW_CFA_def_cfa_register: RBP
  DW_CFA_advance_loc: 29
  DW_CFA_def_cfa: RSP +8
  DW_CFA_nop:
  DW_CFA_nop:
  DW_CFA_nop:

  0xe6630: CFA=RSP+8: RIP=[CFA-8]
  0xe6631: CFA=RSP+16: RBP=[CFA-16], RIP=[CFA-8]
  0xe6634: CFA=RBP+16: RBP=[CFA-16], RIP=[CFA-8]
  0xe6651: CFA=RSP+8: RBP=[CFA-16], RIP=[CFA-8]

000000dc 0000001c 000000e0 FDE cie=00000000 pc=000e6660...000e6683
  Format:       DWARF32
  DW_CFA_advance_loc: 1
  DW_CFA_def_cfa_offset: +16
  DW_CFA_offset: RBP -16
  DW_CFA_advance_loc: 3
  DW_CFA_def_cfa_register: RBP
  DW_CFA_advance_loc: 30
  DW_CFA_def_cfa: RSP +8
  DW_CFA_nop:
  DW_CFA_nop:
  DW_CFA_nop:

  0xe6660: CFA=RSP+8: RIP=[CFA-8]
  0xe6661: CFA=RSP+16: RBP=[CFA-16], RIP=[CFA-8]
  0xe6664: CFA=RBP+16: RBP=[CFA-16], RIP=[CFA-8]
  0xe6682: CFA=RSP+8: RBP=[CFA-16], RIP=[CFA-8]

000000fc 0000001c 00000100 FDE cie=00000000 pc=000e6690...000e66a7
  Format:       DWARF32
  DW_CFA_advance_loc: 1
  DW_CFA_def_cfa_offset: +16
  DW_CFA_offset: RBP -16
  DW_CFA_advance_loc: 3
  DW_CFA_def_cfa_register: RBP
  DW_CFA_advance_loc: 18
  DW_CFA_def_cfa: RSP +8
  DW_CFA_nop:
  DW_CFA_nop:
  DW_CFA_nop:

  0xe6690: CFA=RSP+8: RIP=[CFA-8]
  0xe6691: CFA=RSP+16: RBP=[CFA-16], RIP=[CFA-8]
  0xe6694: CFA=RBP+16: RBP=[CFA-16], RIP=[CFA-8]
  0xe66a6: CFA=RSP+8: RBP=[CFA-16], RIP=[CFA-8]

0000011c 0000001c 00000120 FDE cie=00000000 pc=000e66b0...000e66ca
  Format:       DWARF32
  DW_CFA_advance_loc: 1
  DW_CFA_def_cfa_offset: +16
  DW_CFA_offset: RBP -16
  DW_CFA_advance_loc: 3
  DW_CFA_def_cfa_register: RBP
  DW_CFA_advance_loc: 21
  DW_CFA_def_cfa: RSP +8
  DW_CFA_nop:
  DW_CFA_nop:
  DW_CFA_nop:

  0xe66b0: CFA=RSP+8: RIP=[CFA-8]
  0xe66b1: CFA=RSP+16: RBP=[CFA-16], RIP=[CFA-8]
  0xe66b4: CFA=RBP+16: RBP=[CFA-16], RIP=[CFA-8]
  0xe66c9: CFA=RSP+8: RBP=[CFA-16], RIP=[CFA-8]

0000013c 00000020 00000128 FDE cie=00000018 pc=000e66d0...000e670c
  Format:       DWARF32
  LSDA Address: 00000000000bc2f8
  DW_CFA_advance_loc: 1
  DW_CFA_def_cfa_offset: +16
  DW_CFA_offset: RBP -16
  DW_CFA_advance_loc: 3
  DW_CFA_def_cfa_register: RBP
  DW_CFA_advance_loc: 55
  DW_CFA_def_cfa: RSP +8
  DW_CFA_nop:
  DW_CFA_nop:
  DW_CFA_nop:

  0xe66d0: CFA=RSP+8: RIP=[CFA-8]
  0xe66d1: CFA=RSP+16: RBP=[CFA-16], RIP=[CFA-8]
  0xe66d4: CFA=RBP+16: RBP=[CFA-16], RIP=[CFA-8]
  0xe670b: CFA=RSP+8: RBP=[CFA-16], RIP=[CFA-8]

00000160 0000001c 00000164 FDE cie=00000000 pc=000e6710...000e6724
  Format:       DWARF32
  DW_CFA_advance_loc: 1
  DW_CFA_def_cfa_offset: +16
  DW_CFA_offset: RBP -16
  DW_CFA_advance_loc: 3
  DW_CFA_def_cfa_register: RBP
  DW_CFA_advance_loc: 15
  DW_CFA_def_cfa: RSP +8
  DW_CFA_nop:
  DW_CFA_nop:
  DW_CFA_nop:

  0xe6710: CFA=RSP+8: RIP=[CFA-8]
  0xe6711: CFA=RSP+16: RBP=[CFA-16], RIP=[CFA-8]
  0xe6714: CFA=RBP+16: RBP=[CFA-16], RIP=[CFA-8]
  0xe6723: CFA=RSP+8: RBP=[CFA-16], RIP=[CFA-8]

00000180 00000020 0000016c FDE cie=00000018 pc=000e6730...000e6770
  Format:       DWARF32
  LSDA Address: 00000000000bc304
  DW_CFA_advance_loc: 1
  DW_CFA_def_cfa_offset: +16
  DW_CFA_offset: RBP -16
  DW_CFA_advance_loc: 3
  DW_CFA_def_cfa_register: RBP
  DW_CFA_advance_loc: 59
  DW_CFA_def_cfa: RSP +8
  DW_CFA_nop:
  DW_CFA_nop:
  DW_CFA_nop:

  0xe6730: CFA=RSP+8: RIP=[CFA-8]
  0xe6731: CFA=RSP+16: RBP=[CFA-16], RIP=[CFA-8]
  0xe6734: CFA=RBP+16: RBP=[CFA-16], RIP=[CFA-8]
  0xe676f: CFA=RSP+8: RBP=[CFA-16], RIP=[CFA-8]

000001a4 0000001c 000001a8 FDE cie=00000000 pc=000e6770...000e677a
  Format:       DWARF32
  DW_CFA_advance_loc: 1
  DW_CFA_def_cfa_offset: +16
  DW_CFA_offset: RBP -16
  DW_CFA_advance_loc: 3
  DW_CFA_def_cfa_register: RBP
  DW_CFA_advance_loc: 5
  DW_CFA_def_cfa: RSP +8
  DW_CFA_nop:
  DW_CFA_nop:
  DW_CFA_nop:

  0xe6770: CFA=RSP+8: RIP=[CFA-8]
  0xe6771: CFA=RSP+16: RBP=[CFA-16], RIP=[CFA-8]
  0xe6774: CFA=RBP+16: RBP=[CFA-16], RIP=[CFA-8]
  0xe6779: CFA=RSP+8: RBP=[CFA-16], RIP=[CFA-8]

000001c4 0000001c 000001c8 FDE cie=00000000 pc=000e6780...000e67ca
  Format:       DWARF32
  DW_CFA_advance_loc: 1
  DW_CFA_def_cfa_offset: +16
  DW_CFA_offset: RBP -16
  DW_CFA_advance_loc: 3
  DW_CFA_def_cfa_register: RBP
  DW_CFA_advance_loc1: 69
  DW_CFA_def_cfa: RSP +8
  DW_CFA_nop:
  DW_CFA_nop:

  0xe6780: CFA=RSP+8: RIP=[CFA-8]
  0xe6781: CFA=RSP+16: RBP=[CFA-16], RIP=[CFA-8]
  0xe6784: CFA=RBP+16: RBP=[CFA-16], RIP=[CFA-8]
  0xe67c9: CFA=RSP+8: RBP=[CFA-16], RIP=[CFA-8]

000001e4 0000001c 000001e8 FDE cie=00000000 pc=000e67d0...000e67fe
  Format:       DWARF32
  DW_CFA_advance_loc: 1
  DW_CFA_def_cfa_offset: +16
  DW_CFA_offset: RBP -16
  DW_CFA_advance_loc: 3
  DW_CFA_def_cfa_register: RBP
  DW_CFA_advance_loc: 41
  DW_CFA_def_cfa: RSP +8
  DW_CFA_nop:
  DW_CFA_nop:
  DW_CFA_nop:

  0xe67d0: CFA=RSP+8: RIP=[CFA-8]
  0xe67d1: CFA=RSP+16: RBP=[CFA-16], RIP=[CFA-8]
  0xe67d4: CFA=RBP+16: RBP=[CFA-16], RIP=[CFA-8]
  0xe67fd: CFA=RSP+8: RBP=[CFA-16], RIP=[CFA-8]

00000204 0000001c 00000208 FDE cie=00000000 pc=000e6800...000e6846
  Format:       DWARF32
  DW_CFA_advance_loc: 1
  DW_CFA_def_cfa_offset: +16
  DW_CFA_offset: RBP -16
  DW_CFA_advance_loc: 3
  DW_CFA_def_cfa_register: RBP
  DW_CFA_advance_loc1: 65
  DW_CFA_def_cfa: RSP +8
  DW_CFA_nop:
  DW_CFA_nop:

  0xe6800: CFA=RSP+8: RIP=[CFA-8]
  0xe6801: CFA=RSP+16: RBP=[CFA-16], RIP=[CFA-8]
  0xe6804: CFA=RBP+16: RBP=[CFA-16], RIP=[CFA-8]
  0xe6845: CFA=RSP+8: RBP=[CFA-16], RIP=[CFA-8]

00000224 0000001c 00000228 FDE cie=00000000 pc=000e6850...000e6861
  Format:       DWARF32
  DW_CFA_advance_loc: 1
  DW_CFA_def_cfa_offset: +16
  DW_CFA_offset: RBP -16
  DW_CFA_advance_loc: 3
  DW_CFA_def_cfa_register: RBP
  DW_CFA_advance_loc: 12
  DW_CFA_def_cfa: RSP +8
  DW_CFA_nop:
  DW_CFA_nop:
  DW_CFA_nop:

  0xe6850: CFA=RSP+8: RIP=[CFA-8]
  0xe6851: CFA=RSP+16: RBP=[CFA-16], RIP=[CFA-8]
  0xe6854: CFA=RBP+16: RBP=[CFA-16], RIP=[CFA-8]
  0xe6860: CFA=RSP+8: RBP=[CFA-16], RIP=[CFA-8]

00000244 0000001c 00000248 FDE cie=00000000 pc=000e6870...000e6878
  Format:       DWARF32
  DW_CFA_advance_loc: 1
  DW_CFA_def_cfa_offset: +16
  DW_CFA_offset: RBP -16
  DW_CFA_advance_loc: 3
  DW_CFA_def_cfa_register: RBP
  DW_CFA_advance_loc: 3
  DW_CFA_def_cfa: RSP +8
  DW_CFA_nop:
  DW_CFA_nop:
  DW_CFA_nop:

  0xe6870: CFA=RSP+8: RIP=[CFA-8]
  0xe6871: CFA=RSP+16: RBP=[CFA-16], RIP=[CFA-8]
  0xe6874: CFA=RBP+16: RBP=[CFA-16], RIP=[CFA-8]
  0xe6877: CFA=RSP+8: RBP=[CFA-16], RIP=[CFA-8]

00000264 00000010 00000268 FDE cie=00000000 pc=000e6880...000e6885
  Format:       DWARF32
  DW_CFA_nop:
  DW_CFA_nop:
  DW_CFA_nop:

  0xe6880: CFA=RSP+8: RIP=[CFA-8]

00000278 00000010 0000027c FDE cie=00000000 pc=000e6890...000e6895
  Format:       DWARF32
  DW_CFA_nop:
  DW_CFA_nop:
  DW_CFA_nop:

  0xe6890: CFA=RSP+8: RIP=[CFA-8]

0000028c 00000010 00000290 FDE cie=00000000 pc=000e68a0...000e68a5
  Format:       DWARF32
  DW_CFA_nop:
  DW_CFA_nop:
  DW_CFA_nop:

  0xe68a0: CFA=RSP+8: RIP=[CFA-8]

000002a0 00000010 000002a4 FDE cie=00000000 pc=000e68b0...000e68b5
  Format:       DWARF32
  DW_CFA_nop:
  DW_CFA_nop:
  DW_CFA_nop:

  0xe68b0: CFA=RSP+8: RIP=[CFA-8]

000002b4 00000014 000002b8 FDE cie=00000000 pc=000e68c0...000e68c5
  Format:       DWARF32
  DW_CFA_nop:
  DW_CFA_nop:
  DW_CFA_nop:
  DW_CFA_nop:
  DW_CFA_nop:
  DW_CFA_nop:
  DW_CFA_nop:

  0xe68c0: CFA=RSP+8: RIP=[CFA-8]

000002cc 0000001c 000002d0 FDE cie=00000000 pc=000e68d0...000e6902
  Format:       DWARF32
  DW_CFA_advance_loc: 1
  DW_CFA_def_cfa_offset: +16
  DW_CFA_offset: RBP -16
  DW_CFA_advance_loc: 3
  DW_CFA_def_cfa_register: RBP
  DW_CFA_advance_loc: 45
  DW_CFA_def_cfa: RSP +8
  DW_CFA_nop:
  DW_CFA_nop:
  DW_CFA_nop:

  0xe68d0: CFA=RSP+8: RIP=[CFA-8]
  0xe68d1: CFA=RSP+16: RBP=[CFA-16], RIP=[CFA-8]
  0xe68d4: CFA=RBP+16: RBP=[CFA-16], RIP=[CFA-8]
  0xe6901: CFA=RSP+8: RBP=[CFA-16], RIP=[CFA-8]

000002ec 0000001c 000002f0 FDE cie=00000000 pc=000e6910...000e6934
  Format:       DWARF32
  DW_CFA_advance_loc: 1
  DW_CFA_def_cfa_offset: +16
  DW_CFA_offset: RBP -16
  DW_CFA_advance_loc: 3
  DW_CFA_def_cfa_register: RBP
  DW_CFA_advance_loc: 31
  DW_CFA_def_cfa: RSP +8
  DW_CFA_nop:
  DW_CFA_nop:
  DW_CFA_nop:

  0xe6910: CFA=RSP+8: RIP=[CFA-8]
  0xe6911: CFA=RSP+16: RBP=[CFA-16], RIP=[CFA-8]
  0xe6914: CFA=RBP+16: RBP=[CFA-16], RIP=[CFA-8]
  0xe6933: CFA=RSP+8: RBP=[CFA-16], RIP=[CFA-8]

0000030c 0000001c 00000310 FDE cie=00000000 pc=000e6940...000e6964
  Format:       DWARF32
  DW_CFA_advance_loc: 1
  DW_CFA_def_cfa_offset: +16
  DW_CFA_offset: RBP -16
  DW_CFA_advance_loc: 3
  DW_CFA_def_cfa_register: RBP
  DW_CFA_advance_loc: 31
  DW_CFA_def_cfa: RSP +8
  DW_CFA_nop:
  DW_CFA_nop:
  DW_CFA_nop:

  0xe6940: CFA=RSP+8: RIP=[CFA-8]
  0xe6941: CFA=RSP+16: RBP=[CFA-16], RIP=[CFA-8]
  0xe6944: CFA=RBP+16: RBP=[CFA-16], RIP=[CFA-8]
  0xe6963: CFA=RSP+8: RBP=[CFA-16], RIP=[CFA-8]

0000032c 0000001c 00000330 FDE cie=00000000 pc=000e6970...000e697a
  Format:       DWARF32
  DW_CFA_advance_loc: 1
  DW_CFA_def_cfa_offset: +16
  DW_CFA_offset: RBP -16
  DW_CFA_advance_loc: 3
  DW_CFA_def_cfa_register: RBP
  DW_CFA_advance_loc: 5
  DW_CFA_def_cfa: RSP +8
  DW_CFA_nop:
  DW_CFA_nop:
  DW_CFA_nop:

  0xe6970: CFA=RSP+8: RIP=[CFA-8]
  0xe6971: CFA=RSP+16: RBP=[CFA-16], RIP=[CFA-8]
  0xe6974: CFA=RBP+16: RBP=[CFA-16], RIP=[CFA-8]
  0xe6979: CFA=RSP+8: RBP=[CFA-16], RIP=[CFA-8]

0000034c 0000001c 00000350 FDE cie=00000000 pc=000e6980...000e698a
  Format:       DWARF32
  DW_CFA_advance_loc: 1
  DW_CFA_def_cfa_offset: +16
  DW_CFA_offset: RBP -16
  DW_CFA_advance_loc: 3
  DW_CFA_def_cfa_register: RBP
  DW_CFA_advance_loc: 5
  DW_CFA_def_cfa: RSP +8
  DW_CFA_nop:
  DW_CFA_nop:
  DW_CFA_nop:

  0xe6980: CFA=RSP+8: RIP=[CFA-8]
  0xe6981: CFA=RSP+16: RBP=[CFA-16], RIP=[CFA-8]
  0xe6984: CFA=RBP+16: RBP=[CFA-16], RIP=[CFA-8]
  0xe6989: CFA=RSP+8: RBP=[CFA-16], RIP=[CFA-8]

0000036c 0000001c 00000370 FDE cie=00000000 pc=000e6990...000e699a
  Format:       DWARF32
  DW_CFA_advance_loc: 1
  DW_CFA_def_cfa_offset: +16
  DW_CFA_offset: RBP -16
  DW_CFA_advance_loc: 3
  DW_CFA_def_cfa_register: RBP
  DW_CFA_advance_loc: 5
  DW_CFA_def_cfa: RSP +8
  DW_CFA_nop:
  DW_CFA_nop:
  DW_CFA_nop:

  0xe6990: CFA=RSP+8: RIP=[CFA-8]
  0xe6991: CFA=RSP+16: RBP=[CFA-16], RIP=[CFA-8]
  0xe6994: CFA=RBP+16: RBP=[CFA-16], RIP=[CFA-8]
  0xe6999: CFA=RSP+8: RBP=[CFA-16], RIP=[CFA-8]

0000038c 0000001c 00000390 FDE cie=00000000 pc=000e69a0...000e69aa
  Format:       DWARF32
  DW_CFA_advance_loc: 1
  DW_CFA_def_cfa_offset: +16
  DW_CFA_offset: RBP -16
  DW_CFA_advance_loc: 3
  DW_CFA_def_cfa_register: RBP
  DW_CFA_advance_loc: 5
  DW_CFA_def_cfa: RSP +8
  DW_CFA_nop:
  DW_CFA_nop:
  DW_CFA_nop:

  0xe69a0: CFA=RSP+8: RIP=[CFA-8]
  0xe69a1: CFA=RSP+16: RBP=[CFA-16], RIP=[CFA-8]
  0xe69a4: CFA=RBP+16: RBP=[CFA-16], RIP=[CFA-8]
  0xe69a9: CFA=RSP+8: RBP=[CFA-16], RIP=[CFA-8]

000003ac 0000001c 000003b0 FDE cie=00000000 pc=000e69b0...000e69ba
  Format:       DWARF32
  DW_CFA_advance_loc: 1
  DW_CFA_def_cfa_offset: +16
  DW_CFA_offset: RBP -16
  DW_CFA_advance_loc: 3
  DW_CFA_def_cfa_register: RBP
  DW_CFA_advance_loc: 5
  DW_CFA_def_cfa: RSP +8
  DW_CFA_nop:
  DW_CFA_nop:
  DW_CFA_nop:

  0xe69b0: CFA=RSP+8: RIP=[CFA-8]
  0xe69b1: CFA=RSP+16: RBP=[CFA-16], RIP=[CFA-8]
  0xe69b4: CFA=RBP+16: RBP=[CFA-16], RIP=[CFA-8]
  0xe69b9: CFA=RSP+8: RBP=[CFA-16], RIP=[CFA-8]

000003cc 0000001c 000003d0 FDE cie=00000000 pc=000e69c0...000e69ca
  Format:       DWARF32
  DW_CFA_advance_loc: 1
  DW_CFA_def_cfa_offset: +16
  DW_CFA_offset: RBP -16
  DW_CFA_advance_loc: 3
  DW_CFA_def_cfa_register: RBP
  DW_CFA_advance_loc: 5
  DW_CFA_def_cfa: RSP +8
  DW_CFA_nop:
  DW_CFA_nop:
  DW_CFA_nop:

  0xe69c0: CFA=RSP+8: RIP=[CFA-8]
  0xe69c1: CFA=RSP+16: RBP=[CFA-16], RIP=[CFA-8]
  0xe69c4: CFA=RBP+16: RBP=[CFA-16], RIP=[CFA-8]
  0xe69c9: CFA=RSP+8: RBP=[CFA-16], RIP=[CFA-8]

000003ec 0000001c 000003f0 FDE cie=00000000 pc=000e69d0...000e69da
  Format:       DWARF32
  DW_CFA_advance_loc: 1
  DW_CFA_def_cfa_offset: +16
  DW_CFA_offset: RBP -16
  DW_CFA_advance_loc: 3
  DW_CFA_def_cfa_register: RBP
  DW_CFA_advance_loc: 5
  DW_CFA_def_cfa: RSP +8
  DW_CFA_nop:
  DW_CFA_nop:
  DW_CFA_nop:

  0xe69d0: CFA=RSP+8: RIP=[CFA-8]
  0xe69d1: CFA=RSP+16: RBP=[CFA-16], RIP=[CFA-8]
  0xe69d4: CFA=RBP+16: RBP=[CFA-16], RIP=[CFA-8]
  0xe69d9: CFA=RSP+8: RBP=[CFA-16], RIP=[CFA-8]

0000040c 0000001c 00000410 FDE cie=00000000 pc=000e69e0...000e69ea
  Format:       DWARF32
  DW_CFA_advance_loc: 1
  DW_CFA_def_cfa_offset: +16
  DW_CFA_offset: RBP -16
  DW_CFA_advance_loc: 3
  DW_CFA_def_cfa_register: RBP
  DW_CFA_advance_loc: 5
  DW_CFA_def_cfa: RSP +8
  DW_CFA_nop:
  DW_CFA_nop:
  DW_CFA_nop:

  0xe69e0: CFA=RSP+8: RIP=[CFA-8]
  0xe69e1: CFA=RSP+16: RBP=[CFA-16], RIP=[CFA-8]
  0xe69e4: CFA=RBP+16: RBP=[CFA-16], RIP=[CFA-8]
  0xe69e9: CFA=RSP+8: RBP=[CFA-16], RIP=[CFA-8]

0000042c 0000001c 00000430 FDE cie=00000000 pc=000e69f0...000e69fa
  Format:       DWARF32
  DW_CFA_advance_loc: 1
  DW_CFA_def_cfa_offset: +16
  DW_CFA_offset: RBP -16
  DW_CFA_advance_loc: 3
  DW_CFA_def_cfa_register: RBP
  DW_CFA_advance_loc: 5
  DW_CFA_def_cfa: RSP +8
  DW_CFA_nop:
  DW_CFA_nop:
  DW_CFA_nop:

  0xe69f0: CFA=RSP+8: RIP=[CFA-8]
  0xe69f1: CFA=RSP+16: RBP=[CFA-16], RIP=[CFA-8]
  0xe69f4: CFA=RBP+16: RBP=[CFA-16], RIP=[CFA-8]
  0xe69f9: CFA=RSP+8: RBP=[CFA-16], RIP=[CFA-8]

0000044c 0000001c 00000450 FDE cie=00000000 pc=000e6a00...000e6a0a
  Format:       DWARF32
  DW_CFA_advance_loc: 1
  DW_CFA_def_cfa_offset: +16
  DW_CFA_offset: RBP -16
  DW_CFA_advance_loc: 3
  DW_CFA_def_cfa_register: RBP
  DW_CFA_advance_loc: 5
  DW_CFA_def_cfa: RSP +8
  DW_CFA_nop:
  DW_CFA_nop:
  DW_CFA_nop:

  0xe6a00: CFA=RSP+8: RIP=[CFA-8]
  0xe6a01: CFA=RSP+16: RBP=[CFA-16], RIP=[CFA-8]
  0xe6a04: CFA=RBP+16: RBP=[CFA-16], RIP=[CFA-8]
  0xe6a09: CFA=RSP+8: RBP=[CFA-16], RIP=[CFA-8]

0000046c 0000001c 00000470 FDE cie=00000000 pc=000e6a10...000e6a1a
  Format:       DWARF32
  DW_CFA_advance_loc: 1
  DW_CFA_def_cfa_offset: +16
  DW_CFA_offset: RBP -16
  DW_CFA_advance_loc: 3
  DW_CFA_def_cfa_register: RBP
  DW_CFA_advance_loc: 5
  DW_CFA_def_cfa: RSP +8
  DW_CFA_nop:
  DW_CFA_nop:
  DW_CFA_nop:

  0xe6a10: CFA=RSP+8: RIP=[CFA-8]
  0xe6a11: CFA=RSP+16: RBP=[CFA-16], RIP=[CFA-8]
  0xe6a14: CFA=RBP+16: RBP=[CFA-16], RIP=[CFA-8]
  0xe6a19: CFA=RSP+8: RBP=[CFA-16], RIP=[CFA-8]

0000048c 0000001c 00000490 FDE cie=00000000 pc=000e6a20...000e6a2a
  Format:       DWARF32
  DW_CFA_advance_loc: 1
  DW_CFA_def_cfa_offset: +16
  DW_CFA_offset: RBP -16
  DW_CFA_advance_loc: 3
  DW_CFA_def_cfa_register: RBP
  DW_CFA_advance_loc: 5
  DW_CFA_def_cfa: RSP +8
  DW_CFA_nop:
  DW_CFA_nop:
  DW_CFA_nop:

  0xe6a20: CFA=RSP+8: RIP=[CFA-8]
  0xe6a21: CFA=RSP+16: RBP=[CFA-16], RIP=[CFA-8]
  0xe6a24: CFA=RBP+16: RBP=[CFA-16], RIP=[CFA-8]
  0xe6a29: CFA=RSP+8: RBP=[CFA-16], RIP=[CFA-8]

000004ac 0000001c 000004b0 FDE cie=00000000 pc=000e6a30...000e6a3a
  Format:       DWARF32
  DW_CFA_advance_loc: 1
  DW_CFA_def_cfa_offset: +16
  DW_CFA_offset: RBP -16
  DW_CFA_advance_loc: 3
  DW_CFA_def_cfa_register: RBP
  DW_CFA_advance_loc: 5
  DW_CFA_def_cfa: RSP +8
  DW_CFA_nop:
  DW_CFA_nop:
  DW_CFA_nop:

  0xe6a30: CFA=RSP+8: RIP=[CFA-8]
  0xe6a31: CFA=RSP+16: RBP=[CFA-16], RIP=[CFA-8]
  0xe6a34: CFA=RBP+16: RBP=[CFA-16], RIP=[CFA-8]
  0xe6a39: CFA=RSP+8: RBP=[CFA-16], RIP=[CFA-8]

000004cc 0000001c 000004d0 FDE cie=00000000 pc=000e6a40...000e6a4a
  Format:       DWARF32
  DW_CFA_advance_loc: 1
  DW_CFA_def_cfa_offset: +16
  DW_CFA_offset: RBP -16
  DW_CFA_advance_loc: 3
  DW_CFA_def_cfa_register: RBP
  DW_CFA_advance_loc: 5
  DW_CFA_def_cfa: RSP +8
  DW_CFA_nop:
  DW_CFA_nop:
  DW_CFA_nop:

  0xe6a40: CFA=RSP+8: RIP=[CFA-8]
  0xe6a41: CFA=RSP+16: RBP=[CFA-16], RIP=[CFA-8]
  0xe6a44: CFA=RBP+16: RBP=[CFA-16], RIP=[CFA-8]
  0xe6a49: CFA=RSP+8: RBP=[CFA-16], RIP=[CFA-8]

000004ec 0000001c 000004f0 FDE cie=00000000 pc=000e6a50...000e6a5a
  Format:       DWARF32
  DW_CFA_advance_loc: 1
  DW_CFA_def_cfa_offset: +16
  DW_CFA_offset: RBP -16
  DW_CFA_advance_loc: 3
  DW_CFA_def_cfa_register: RBP
  DW_CFA_advance_loc: 5
  DW_CFA_def_cfa: RSP +8
  DW_CFA_nop:
  DW_CFA_nop:
  DW_CFA_nop:

  0xe6a50: CFA=RSP+8: RIP=[CFA-8]
  0xe6a51: CFA=RSP+16: RBP=[CFA-16], RIP=[CFA-8]
  0xe6a54: CFA=RBP+16: RBP=[CFA-16], RIP=[CFA-8]
  0xe6a59: CFA=RSP+8: RBP=[CFA-16], RIP=[CFA-8]

0000050c 0000001c 00000510 FDE cie=00000000 pc=000e6a60...000e6a6a
  Format:       DWARF32
  DW_CFA_advance_loc: 1
  DW_CFA_def_cfa_offset: +16
  DW_CFA_offset: RBP -16
  DW_CFA_advance_loc: 3
  DW_CFA_def_cfa_register: RBP
  DW_CFA_advance_loc: 5
  DW_CFA_def_cfa: RSP +8
  DW_CFA_nop:
  DW_CFA_nop:
  DW_CFA_nop:

  0xe6a60: CFA=RSP+8: RIP=[CFA-8]
  0xe6a61: CFA=RSP+16: RBP=[CFA-16], RIP=[CFA-8]
  0xe6a64: CFA=RBP+16: RBP=[CFA-16], RIP=[CFA-8]
  0xe6a69: CFA=RSP+8: RBP=[CFA-16], RIP=[CFA-8]

0000052c 00000024 00000518 FDE cie=00000018 pc=000e6a70...000e6af5
  Format:       DWARF32
  LSDA Address: 00000000000bc310
  DW_CFA_advance_loc: 1
  DW_CFA_def_cfa_offset: +16
  DW_CFA_offset: RBP -16
  DW_CFA_advance_loc: 3
  DW_CFA_def_cfa_register: RBP
  DW_CFA_advance_loc: 43
  DW_CFA_def_cfa: RSP +8
  DW_CFA_advance_loc: 1
  DW_CFA_def_cfa: RBP +16
  DW_CFA_nop:
  DW_CFA_nop:
  DW_CFA_nop:

  0xe6a70: CFA=RSP+8: RIP=[CFA-8]
  0xe6a71: CFA=RSP+16: RBP=[CFA-16], RIP=[CFA-8]
  0xe6a74: CFA=RBP+16: RBP=[CFA-16], RIP=[CFA-8]
  0xe6a9f: CFA=RSP+8: RBP=[CFA-16], RIP=[CFA-8]
  0xe6aa0: CFA=RBP+16: RBP=[CFA-16], RIP=[CFA-8]

00000554 00000028 00000540 FDE cie=00000018 pc=000e6b00...000e6b69
  Format:       DWARF32
  LSDA Address: 00000000000bc31c
  DW_CFA_advance_loc: 1
  DW_CFA_def_cfa_offset: +16
  DW_CFA_offset: RBP -16
  DW_CFA_advance_loc: 3
  DW_CFA_def_cfa_register: RBP
  DW_CFA_advance_loc: 35
  DW_CFA_def_cfa: RSP +8
  DW_CFA_advance_loc: 1
  DW_CFA_def_cfa: RBP +16
  DW_CFA_nop:
  DW_CFA_nop:
  DW_CFA_nop:
  DW_CFA_nop:
  DW_CFA_nop:
  DW_CFA_nop:
  DW_CFA_nop:

  0xe6b00: CFA=RSP+8: RIP=[CFA-8]
  0xe6b01: CFA=RSP+16: RBP=[CFA-16], RIP=[CFA-8]
  0xe6b04: CFA=RBP+16: RBP=[CFA-16], RIP=[CFA-8]
  0xe6b27: CFA=RSP+8: RBP=[CFA-16], RIP=[CFA-8]
  0xe6b28: CFA=RBP+16: RBP=[CFA-16], RIP=[CFA-8]

00000580 00000020 00000584 FDE cie=00000000 pc=000e6b70...000e6bdc
  Format:       DWARF32
  DW_CFA_advance_loc: 1
  DW_CFA_def_cfa_offset: +16
  DW_CFA_offset: RBP -16
  DW_CFA_advance_loc: 3
  DW_CFA_def_cfa_register: RBP
  DW_CFA_advance_loc1: 101
  DW_CFA_def_cfa: RSP +8
  DW_CFA_advance_loc: 1
  DW_CFA_def_cfa: RBP +16
  DW_CFA_nop:
  DW_CFA_nop:

  0xe6b70: CFA=RSP+8: RIP=[CFA-8]
  0xe6b71: CFA=RSP+16: RBP=[CFA-16], RIP=[CFA-8]
  0xe6b74: CFA=RBP+16: RBP=[CFA-16], RIP=[CFA-8]
  0xe6bd9: CFA=RSP+8: RBP=[CFA-16], RIP=[CFA-8]
  0xe6bda: CFA=RBP+16: RBP=[CFA-16], RIP=[CFA-8]

000005a4 0000001c 000005a8 FDE cie=00000000 pc=000e6be0...000e6c04
  Format:       DWARF32
  DW_CFA_advance_loc: 1
  DW_CFA_def_cfa_offset: +16
  DW_CFA_offset: RBP -16
  DW_CFA_advance_loc: 3
  DW_CFA_def_cfa_register: RBP
  DW_CFA_advance_loc: 31
  DW_CFA_def_cfa: RSP +8
  DW_CFA_nop:
  DW_CFA_nop:
  DW_CFA_nop:

  0xe6be0: CFA=RSP+8: RIP=[CFA-8]
  0xe6be1: CFA=RSP+16: RBP=[CFA-16], RIP=[CFA-8]
  0xe6be4: CFA=RBP+16: RBP=[CFA-16], RIP=[CFA-8]
  0xe6c03: CFA=RSP+8: RBP=[CFA-16], RIP=[CFA-8]

000005c4 0000001c 000005c8 FDE cie=00000000 pc=000e6c10...000e6c33
  Format:       DWARF32
  DW_CFA_advance_loc: 1
  DW_CFA_def_cfa_offset: +16
  DW_CFA_offset: RBP -16
  DW_CFA_advance_loc: 3
  DW_CFA_def_cfa_register: RBP
  DW_CFA_advance_loc: 30
  DW_CFA_def_cfa: RSP +8
  DW_CFA_nop:
  DW_CFA_nop:
  DW_CFA_nop:

  0xe6c10: CFA=RSP+8: RIP=[CFA-8]
  0xe6c11: CFA=RSP+16: RBP=[CFA-16], RIP=[CFA-8]
  0xe6c14: CFA=RBP+16: RBP=[CFA-16], RIP=[CFA-8]
  0xe6c32: CFA=RSP+8: RBP=[CFA-16], RIP=[CFA-8]

000005e4 0000001c 000005e8 FDE cie=00000000 pc=000e6c40...000e6c63
  Format:       DWARF32
  DW_CFA_advance_loc: 1
  DW_CFA_def_cfa_offset: +16
  DW_CFA_offset: RBP -16
  DW_CFA_advance_loc: 3
  DW_CFA_def_cfa_register: RBP
  DW_CFA_advance_loc: 30
  DW_CFA_def_cfa: RSP +8
  DW_CFA_nop:
  DW_CFA_nop:
  DW_CFA_nop:

  0xe6c40: CFA=RSP+8: RIP=[CFA-8]
  0xe6c41: CFA=RSP+16: RBP=[CFA-16], RIP=[CFA-8]
  0xe6c44: CFA=RBP+16: RBP=[CFA-16], RIP=[CFA-8]
  0xe6c62: CFA=RSP+8: RBP=[CFA-16], RIP=[CFA-8]

00000604 0000001c 00000608 FDE cie=00000000 pc=000e6c70...000e6c93
  Format:       DWARF32
  DW_CFA_advance_loc: 1
  DW_CFA_def_cfa_offset: +16
  DW_CFA_offset: RBP -16
  DW_CFA_advance_loc: 3
  DW_CFA_def_cfa_register: RBP
  DW_CFA_advance_loc: 30
  DW_CFA_def_cfa: RSP +8
  DW_CFA_nop:
  DW_CFA_nop:
  DW_CFA_nop:

  0xe6c70: CFA=RSP+8: RIP=[CFA-8]
  0xe6c71: CFA=RSP+16: RBP=[CFA-16], RIP=[CFA-8]
  0xe6c74: CFA=RBP+16: RBP=[CFA-16], RIP=[CFA-8]
  0xe6c92: CFA=RSP+8: RBP=[CFA-16], RIP=[CFA-8]

00000624 0000001c 00000628 FDE cie=00000000 pc=000e6ca0...000e6cce
  Format:       DWARF32
  DW_CFA_advance_loc: 1
  DW_CFA_def_cfa_offset: +16
  DW_CFA_offset: RBP -16
  DW_CFA_advance_loc: 3
  DW_CFA_def_cfa_register: RBP
  DW_CFA_advance_loc: 41
  DW_CFA_def_cfa: RSP +8
  DW_CFA_nop:
  DW_CFA_nop:
  DW_CFA_nop:

  0xe6ca0: CFA=RSP+8: RIP=[CFA-8]
  0xe6ca1: CFA=RSP+16: RBP=[CFA-16], RIP=[CFA-8]
  0xe6ca4: CFA=RBP+16: RBP=[CFA-16], RIP=[CFA-8]
  0xe6ccd: CFA=RSP+8: RBP=[CFA-16], RIP=[CFA-8]

00000644 0000001c 00000648 FDE cie=00000000 pc=000e6cd0...000e6cf8
  Format:       DWARF32
  DW_CFA_advance_loc: 1
  DW_CFA_def_cfa_offset: +16
  DW_CFA_offset: RBP -16
  DW_CFA_advance_loc: 3
  DW_CFA_def_cfa_register: RBP
  DW_CFA_advance_loc: 35
  DW_CFA_def_cfa: RSP +8
  DW_CFA_nop:
  DW_CFA_nop:
  DW_CFA_nop:

  0xe6cd0: CFA=RSP+8: RIP=[CFA-8]
  0xe6cd1: CFA=RSP+16: RBP=[CFA-16], RIP=[CFA-8]
  0xe6cd4: CFA=RBP+16: RBP=[CFA-16], RIP=[CFA-8]
  0xe6cf7: CFA=RSP+8: RBP=[CFA-16], RIP=[CFA-8]

00000664 0000001c 00000668 FDE cie=00000000 pc=000e6d00...000e6d28
  Format:       DWARF32
  DW_CFA_advance_loc: 1
  DW_CFA_def_cfa_offset: +16
  DW_CFA_offset: RBP -16
  DW_CFA_advance_loc: 3
  DW_CFA_def_cfa_register: RBP
  DW_CFA_advance_loc: 35
  DW_CFA_def_cfa: RSP +8
  DW_CFA_nop:
  DW_CFA_nop:
  DW_CFA_nop:

  0xe6d00: CFA=RSP+8: RIP=[CFA-8]
  0xe6d01: CFA=RSP+16: RBP=[CFA-16], RIP=[CFA-8]
  0xe6d04: CFA=RBP+16: RBP=[CFA-16], RIP=[CFA-8]
  0xe6d27: CFA=RSP+8: RBP=[CFA-16], RIP=[CFA-8]

00000684 0000001c 00000688 FDE cie=00000000 pc=000e6d30...000e6d58
  Format:       DWARF32
  DW_CFA_advance_loc: 1
  DW_CFA_def_cfa_offset: +16
  DW_CFA_offset: RBP -16
  DW_CFA_advance_loc: 3
  DW_CFA_def_cfa_register: RBP
  DW_CFA_advance_loc: 35
  DW_CFA_def_cfa: RSP +8
  DW_CFA_nop:
  DW_CFA_nop:
  DW_CFA_nop:

  0xe6d30: CFA=RSP+8: RIP=[CFA-8]
  0xe6d31: CFA=RSP+16: RBP=[CFA-16], RIP=[CFA-8]
  0xe6d34: CFA=RBP+16: RBP=[CFA-16], RIP=[CFA-8]
  0xe6d57: CFA=RSP+8: RBP=[CFA-16], RIP=[CFA-8]

000006a4 00000018 000006a8 FDE cie=00000000 pc=000e6d60...000e6e43
  Format:       DWARF32
  DW_CFA_advance_loc: 1
  DW_CFA_def_cfa_offset: +16
  DW_CFA_offset: RBP -16
  DW_CFA_advance_loc: 3
  DW_CFA_def_cfa_register: RBP
  DW_CFA_nop:
  DW_CFA_nop:
  DW_CFA_nop:

  0xe6d60: CFA=RSP+8: RIP=[CFA-8]
  0xe6d61: CFA=RSP+16: RBP=[CFA-16], RIP=[CFA-8]
  0xe6d64: CFA=RBP+16: RBP=[CFA-16], RIP=[CFA-8]

000006c0 00000020 000006c4 FDE cie=00000000 pc=000e6e50...000e6e7e
  Format:       DWARF32
  DW_CFA_advance_loc: 1
  DW_CFA_def_cfa_offset: +16
  DW_CFA_offset: RBP -16
  DW_CFA_advance_loc: 3
  DW_CFA_def_cfa_register: RBP
  DW_CFA_advance_loc: 41
  DW_CFA_def_cfa: RSP +8
  DW_CFA_nop:
  DW_CFA_nop:
  DW_CFA_nop:
  DW_CFA_nop:
  DW_CFA_nop:
  DW_CFA_nop:
  DW_CFA_nop:

  0xe6e50: CFA=RSP+8: RIP=[CFA-8]
  0xe6e51: CFA=RSP+16: RBP=[CFA-16], RIP=[CFA-8]
  0xe6e54: CFA=RBP+16: RBP=[CFA-16], RIP=[CFA-8]
  0xe6e7d: CFA=RSP+8: RBP=[CFA-16], RIP=[CFA-8]

000006e4 0000001c 000006e8 FDE cie=00000000 pc=000e6e80...000e6ee7
  Format:       DWARF32
  DW_CFA_advance_loc: 1
  DW_CFA_def_cfa_offset: +16
  DW_CFA_offset: RBP -16
  DW_CFA_advance_loc: 3
  DW_CFA_def_cfa_register: RBP
  DW_CFA_advance_loc1: 98
  DW_CFA_def_cfa: RSP +8
  DW_CFA_nop:
  DW_CFA_nop:

  0xe6e80: CFA=RSP+8: RIP=[CFA-8]
  0xe6e81: CFA=RSP+16: RBP=[CFA-16], RIP=[CFA-8]
  0xe6e84: CFA=RBP+16: RBP=[CFA-16], RIP=[CFA-8]
  0xe6ee6: CFA=RSP+8: RBP=[CFA-16], RIP=[CFA-8]

00000704 0000001c 00000708 FDE cie=00000000 pc=000e6ef0...000e6f2a
  Format:       DWARF32
  DW_CFA_advance_loc: 1
  DW_CFA_def_cfa_offset: +16
  DW_CFA_offset: RBP -16
  DW_CFA_advance_loc: 3
  DW_CFA_def_cfa_register: RBP
  DW_CFA_advance_loc: 53
  DW_CFA_def_cfa: RSP +8
  DW_CFA_nop:
  DW_CFA_nop:
  DW_CFA_nop:

  0xe6ef0: CFA=RSP+8: RIP=[CFA-8]
  0xe6ef1: CFA=RSP+16: RBP=[CFA-16], RIP=[CFA-8]
  0xe6ef4: CFA=RBP+16: RBP=[CFA-16], RIP=[CFA-8]
  0xe6f29: CFA=RSP+8: RBP=[CFA-16], RIP=[CFA-8]

00000724 0000001c 00000728 FDE cie=00000000 pc=000e6f30...000e6f53
  Format:       DWARF32
  DW_CFA_advance_loc: 1
  DW_CFA_def_cfa_offset: +16
  DW_CFA_offset: RBP -16
  DW_CFA_advance_loc: 3
  DW_CFA_def_cfa_register: RBP
  DW_CFA_advance_loc: 30
  DW_CFA_def_cfa: RSP +8
  DW_CFA_nop:
  DW_CFA_nop:
  DW_CFA_nop:

  0xe6f30: CFA=RSP+8: RIP=[CFA-8]
  0xe6f31: CFA=RSP+16: RBP=[CFA-16], RIP=[CFA-8]
  0xe6f34: CFA=RBP+16: RBP=[CFA-16], RIP=[CFA-8]
  0xe6f52: CFA=RSP+8: RBP=[CFA-16], RIP=[CFA-8]

00000744 0000001c 00000748 FDE cie=00000000 pc=000e6f60...000e6f9a
  Format:       DWARF32
  DW_CFA_advance_loc: 1
  DW_CFA_def_cfa_offset: +16
  DW_CFA_offset: RBP -16
  DW_CFA_advance_loc: 3
  DW_CFA_def_cfa_register: RBP
  DW_CFA_advance_loc: 53
  DW_CFA_def_cfa: RSP +8
  DW_CFA_nop:
  DW_CFA_nop:
  DW_CFA_nop:

  0xe6f60: CFA=RSP+8: RIP=[CFA-8]
  0xe6f61: CFA=RSP+16: RBP=[CFA-16], RIP=[CFA-8]
  0xe6f64: CFA=RBP+16: RBP=[CFA-16], RIP=[CFA-8]
  0xe6f99: CFA=RSP+8: RBP=[CFA-16], RIP=[CFA-8]

00000764 0000001c 00000768 FDE cie=00000000 pc=000e6fa0...000e6fc8
  Format:       DWARF32
  DW_CFA_advance_loc: 1
  DW_CFA_def_cfa_offset: +16
  DW_CFA_offset: RBP -16
  DW_CFA_advance_loc: 3
  DW_CFA_def_cfa_register: RBP
  DW_CFA_advance_loc: 35
  DW_CFA_def_cfa: RSP +8
  DW_CFA_nop:
  DW_CFA_nop:
  DW_CFA_nop:

  0xe6fa0: CFA=RSP+8: RIP=[CFA-8]
  0xe6fa1: CFA=RSP+16: RBP=[CFA-16], RIP=[CFA-8]
  0xe6fa4: CFA=RBP+16: RBP=[CFA-16], RIP=[CFA-8]
  0xe6fc7: CFA=RSP+8: RBP=[CFA-16], RIP=[CFA-8]

00000784 00000024 00000770 FDE cie=00000018 pc=000e6fd0...000e72c5
  Format:       DWARF32
  LSDA Address: 00000000000bc328
  DW_CFA_advance_loc: 1
  DW_CFA_def_cfa_offset: +16
  DW_CFA_offset: RBP -16
  DW_CFA_advance_loc: 3
  DW_CFA_def_cfa_register: RBP
  DW_CFA_advance_loc2: 730
  DW_CFA_def_cfa: RSP +8
  DW_CFA_advance_loc: 1
  DW_CFA_def_cfa: RBP +16
  DW_CFA_nop:

  0xe6fd0: CFA=RSP+8: RIP=[CFA-8]
  0xe6fd1: CFA=RSP+16: RBP=[CFA-16], RIP=[CFA-8]
  0xe6fd4: CFA=RBP+16: RBP=[CFA-16], RIP=[CFA-8]
  0xe72ae: CFA=RSP+8: RBP=[CFA-16], RIP=[CFA-8]
  0xe72af: CFA=RBP+16: RBP=[CFA-16], RIP=[CFA-8]

000007ac 0000001c 000007b0 FDE cie=00000000 pc=000e72d0...000e771e
  Format:       DWARF32
  DW_CFA_advance_loc: 1
  DW_CFA_def_cfa_offset: +16
  DW_CFA_offset: RBP -16
  DW_CFA_advance_loc: 3
  DW_CFA_def_cfa_register: RBP
  DW_CFA_advance_loc2: 1097
  DW_CFA_def_cfa: RSP +8
  DW_CFA_nop:

  0xe72d0: CFA=RSP+8: RIP=[CFA-8]
  0xe72d1: CFA=RSP+16: RBP=[CFA-16], RIP=[CFA-8]
  0xe72d4: CFA=RBP+16: RBP=[CFA-16], RIP=[CFA-8]
  0xe771d: CFA=RSP+8: RBP=[CFA-16], RIP=[CFA-8]

000007cc 00000024 000007d0 FDE cie=00000000 pc=000e7720...000e77a7
  Format:       DWARF32
  DW_CFA_advance_loc: 1
  DW_CFA_def_cfa_offset: +16
  DW_CFA_offset: RBP -16
  DW_CFA_advance_loc: 3
  DW_CFA_def_cfa_register: RBP
  DW_CFA_advance_loc: 5
  DW_CFA_offset: RBX -24
  DW_CFA_advance_loc1: 125
  DW_CFA_def_cfa: RSP +8
  DW_CFA_nop:
  DW_CFA_nop:
  DW_CFA_nop:
  DW_CFA_nop:
  DW_CFA_nop:
  DW_CFA_nop:
  DW_CFA_nop:

  0xe7720: CFA=RSP+8: RIP=[CFA-8]
  0xe7721: CFA=RSP+16: RBP=[CFA-16], RIP=[CFA-8]
  0xe7724: CFA=RBP+16: RBP=[CFA-16], RIP=[CFA-8]
  0xe7729: CFA=RBP+16: RBX=[CFA-24], RBP=[CFA-16], RIP=[CFA-8]
  0xe77a6: CFA=RSP+8: RBX=[CFA-24], RBP=[CFA-16], RIP=[CFA-8]

000007f4 0000001c 000007f8 FDE cie=00000000 pc=000e77b0...000e783a
  Format:       DWARF32
  DW_CFA_advance_loc: 1
  DW_CFA_def_cfa_offset: +16
  DW_CFA_offset: RBP -16
  DW_CFA_advance_loc: 3
  DW_CFA_def_cfa_register: RBP
  DW_CFA_advance_loc1: 133
  DW_CFA_def_cfa: RSP +8
  DW_CFA_nop:
  DW_CFA_nop:

  0xe77b0: CFA=RSP+8: RIP=[CFA-8]
  0xe77b1: CFA=RSP+16: RBP=[CFA-16], RIP=[CFA-8]
  0xe77b4: CFA=RBP+16: RBP=[CFA-16], RIP=[CFA-8]
  0xe7839: CFA=RSP+8: RBP=[CFA-16], RIP=[CFA-8]

00000814 0000001c 00000818 FDE cie=00000000 pc=000e7840...000e78ca
  Format:       DWARF32
  DW_CFA_advance_loc: 1
  DW_CFA_def_cfa_offset: +16
  DW_CFA_offset: RBP -16
  DW_CFA_advance_loc: 3
  DW_CFA_def_cfa_register: RBP
  DW_CFA_advance_loc1: 133
  DW_CFA_def_cfa: RSP +8
  DW_CFA_nop:
  DW_CFA_nop:

  0xe7840: CFA=RSP+8: RIP=[CFA-8]
  0xe7841: CFA=RSP+16: RBP=[CFA-16], RIP=[CFA-8]
  0xe7844: CFA=RBP+16: RBP=[CFA-16], RIP=[CFA-8]
  0xe78c9: CFA=RSP+8: RBP=[CFA-16], RIP=[CFA-8]

00000834 0000001c 00000838 FDE cie=00000000 pc=000e78d0...000e795a
  Format:       DWARF32
  DW_CFA_advance_loc: 1
  DW_CFA_def_cfa_offset: +16
  DW_CFA_offset: RBP -16
  DW_CFA_advance_loc: 3
  DW_CFA_def_cfa_register: RBP
  DW_CFA_advance_loc1: 133
  DW_CFA_def_cfa: RSP +8
  DW_CFA_nop:
  DW_CFA_nop:

  0xe78d0: CFA=RSP+8: RIP=[CFA-8]
  0xe78d1: CFA=RSP+16: RBP=[CFA-16], RIP=[CFA-8]
  0xe78d4: CFA=RBP+16: RBP=[CFA-16], RIP=[CFA-8]
  0xe7959: CFA=RSP+8: RBP=[CFA-16], RIP=[CFA-8]

00000854 0000001c 00000858 FDE cie=00000000 pc=000e7960...000e79ea
  Format:       DWARF32
  DW_CFA_advance_loc: 1
  DW_CFA_def_cfa_offset: +16
  DW_CFA_offset: RBP -16
  DW_CFA_advance_loc: 3
  DW_CFA_def_cfa_register: RBP
  DW_CFA_advance_loc1: 133
  DW_CFA_def_cfa: RSP +8
  DW_CFA_nop:
  DW_CFA_nop:

  0xe7960: CFA=RSP+8: RIP=[CFA-8]
  0xe7961: CFA=RSP+16: RBP=[CFA-16], RIP=[CFA-8]
  0xe7964: CFA=RBP+16: RBP=[CFA-16], RIP=[CFA-8]
  0xe79e9: CFA=RSP+8: RBP=[CFA-16], RIP=[CFA-8]

00000874 0000002c 00000878 FDE cie=00000000 pc=000e79f0...000e7c00
  Format:       DWARF32
  DW_CFA_advance_loc: 1
  DW_CFA_def_cfa_offset: +16
  DW_CFA_offset: RBP -16
  DW_CFA_advance_loc: 3
  DW_CFA_def_cfa_register: RBP
  DW_CFA_advance_loc1: 74
  DW_CFA_def_cfa: RSP +8
  DW_CFA_restore: RBP
  DW_CFA_advance_loc: 2
  DW_CFA_def_cfa: RBP +16
  DW_CFA_offset: RBP -16
  DW_CFA_advance_loc1: 128
  DW_CFA_def_cfa: RSP +8
  DW_CFA_advance_loc: 1
  DW_CFA_def_cfa: RBP +16
  DW_CFA_nop:
  DW_CFA_nop:

  0xe79f0: CFA=RSP+8: RIP=[CFA-8]
  0xe79f1: CFA=RSP+16: RBP=[CFA-16], RIP=[CFA-8]
  0xe79f4: CFA=RBP+16: RBP=[CFA-16], RIP=[CFA-8]
  0xe7a3e: CFA=RSP+8: RIP=[CFA-8]
  0xe7a40: CFA=RBP+16: RBP=[CFA-16], RIP=[CFA-8]
  0xe7ac0: CFA=RSP+8: RBP=[CFA-16], RIP=[CFA-8]
  0xe7ac1: CFA=RBP+16: RBP=[CFA-16], RIP=[CFA-8]

000008a4 0000001c 000008a8 FDE cie=00000000 pc=000e7c00...000e7c28
  Format:       DWARF32
  DW_CFA_advance_loc: 1
  DW_CFA_def_cfa_offset: +16
  DW_CFA_offset: RBP -16
  DW_CFA_advance_loc: 3
  DW_CFA_def_cfa_register: RBP
  DW_CFA_advance_loc: 35
  DW_CFA_def_cfa: RSP +8
  DW_CFA_nop:
  DW_CFA_nop:
  DW_CFA_nop:

  0xe7c00: CFA=RSP+8: RIP=[CFA-8]
  0xe7c01: CFA=RSP+16: RBP=[CFA-16], RIP=[CFA-8]
  0xe7c04: CFA=RBP+16: RBP=[CFA-16], RIP=[CFA-8]
  0xe7c27: CFA=RSP+8: RBP=[CFA-16], RIP=[CFA-8]

000008c4 0000001c 000008c8 FDE cie=00000000 pc=000e7c30...000e7c4a
  Format:       DWARF32
  DW_CFA_advance_loc: 1
  DW_CFA_def_cfa_offset: +16
  DW_CFA_offset: RBP -16
  DW_CFA_advance_loc: 3
  DW_CFA_def_cfa_register: RBP
  DW_CFA_advance_loc: 21
  DW_CFA_def_cfa: RSP +8
  DW_CFA_nop:
  DW_CFA_nop:
  DW_CFA_nop:

  0xe7c30: CFA=RSP+8: RIP=[CFA-8]
  0xe7c31: CFA=RSP+16: RBP=[CFA-16], RIP=[CFA-8]
  0xe7c34: CFA=RBP+16: RBP=[CFA-16], RIP=[CFA-8]
  0xe7c49: CFA=RSP+8: RBP=[CFA-16], RIP=[CFA-8]

000008e4 0000001c 000008e8 FDE cie=00000000 pc=000e7c50...000e7c6c
  Format:       DWARF32
  DW_CFA_advance_loc: 1
  DW_CFA_def_cfa_offset: +16
  DW_CFA_offset: RBP -16
  DW_CFA_advance_loc: 3
  DW_CFA_def_cfa_register: RBP
  DW_CFA_advance_loc: 23
  DW_CFA_def_cfa: RSP +8
  DW_CFA_nop:
  DW_CFA_nop:
  DW_CFA_nop:

  0xe7c50: CFA=RSP+8: RIP=[CFA-8]
  0xe7c51: CFA=RSP+16: RBP=[CFA-16], RIP=[CFA-8]
  0xe7c54: CFA=RBP+16: RBP=[CFA-16], RIP=[CFA-8]
  0xe7c6b: CFA=RSP+8: RBP=[CFA-16], RIP=[CFA-8]

00000904 0000001c 00000908 FDE cie=00000000 pc=000e7c70...000e7c8c
  Format:       DWARF32
  DW_CFA_advance_loc: 1
  DW_CFA_def_cfa_offset: +16
  DW_CFA_offset: RBP -16
  DW_CFA_advance_loc: 3
  DW_CFA_def_cfa_register: RBP
  DW_CFA_advance_loc: 23
  DW_CFA_def_cfa: RSP +8
  DW_CFA_nop:
  DW_CFA_nop:
  DW_CFA_nop:

  0xe7c70: CFA=RSP+8: RIP=[CFA-8]
  0xe7c71: CFA=RSP+16: RBP=[CFA-16], RIP=[CFA-8]
  0xe7c74: CFA=RBP+16: RBP=[CFA-16], RIP=[CFA-8]
  0xe7c8b: CFA=RSP+8: RBP=[CFA-16], RIP=[CFA-8]

00000924 0000001c 00000928 FDE cie=00000000 pc=000e7c90...000e7cb8
  Format:       DWARF32
  DW_CFA_advance_loc: 1
  DW_CFA_def_cfa_offset: +16
  DW_CFA_offset: RBP -16
  DW_CFA_advance_loc: 3
  DW_CFA_def_cfa_register: RBP
  DW_CFA_advance_loc: 35
  DW_CFA_def_cfa: RSP +8
  DW_CFA_nop:
  DW_CFA_nop:
  DW_CFA_nop:

  0xe7c90: CFA=RSP+8: RIP=[CFA-8]
  0xe7c91: CFA=RSP+16: RBP=[CFA-16], RIP=[CFA-8]
  0xe7c94: CFA=RBP+16: RBP=[CFA-16], RIP=[CFA-8]
  0xe7cb7: CFA=RSP+8: RBP=[CFA-16], RIP=[CFA-8]

00000944 0000001c 00000948 FDE cie=00000000 pc=000e7cc0...000e7cf8
  Format:       DWARF32
  DW_CFA_advance_loc: 1
  DW_CFA_def_cfa_offset: +16
  DW_CFA_offset: RBP -16
  DW_CFA_advance_loc: 3
  DW_CFA_def_cfa_register: RBP
  DW_CFA_advance_loc: 51
  DW_CFA_def_cfa: RSP +8
  DW_CFA_nop:
  DW_CFA_nop:
  DW_CFA_nop:

  0xe7cc0: CFA=RSP+8: RIP=[CFA-8]
  0xe7cc1: CFA=RSP+16: RBP=[CFA-16], RIP=[CFA-8]
  0xe7cc4: CFA=RBP+16: RBP=[CFA-16], RIP=[CFA-8]
  0xe7cf7: CFA=RSP+8: RBP=[CFA-16], RIP=[CFA-8]

00000964 0000001c 00000968 FDE cie=00000000 pc=000e7d00...000e7d88
  Format:       DWARF32
  DW_CFA_advance_loc: 1
  DW_CFA_def_cfa_offset: +16
  DW_CFA_offset: RBP -16
  DW_CFA_advance_loc: 3
  DW_CFA_def_cfa_register: RBP
  DW_CFA_advance_loc1: 131
  DW_CFA_def_cfa: RSP +8
  DW_CFA_nop:
  DW_CFA_nop:

  0xe7d00: CFA=RSP+8: RIP=[CFA-8]
  0xe7d01: CFA=RSP+16: RBP=[CFA-16], RIP=[CFA-8]
  0xe7d04: CFA=RBP+16: RBP=[CFA-16], RIP=[CFA-8]
  0xe7d87: CFA=RSP+8: RBP=[CFA-16], RIP=[CFA-8]

00000984 0000001c 00000988 FDE cie=00000000 pc=000e7d90...000e7e3d
  Format:       DWARF32
  DW_CFA_advance_loc: 1
  DW_CFA_def_cfa_offset: +16
  DW_CFA_offset: RBP -16
  DW_CFA_advance_loc: 3
  DW_CFA_def_cfa_register: RBP
  DW_CFA_advance_loc1: 168
  DW_CFA_def_cfa: RSP +8
  DW_CFA_nop:
  DW_CFA_nop:

  0xe7d90: CFA=RSP+8: RIP=[CFA-8]
  0xe7d91: CFA=RSP+16: RBP=[CFA-16], RIP=[CFA-8]
  0xe7d94: CFA=RBP+16: RBP=[CFA-16], RIP=[CFA-8]
  0xe7e3c: CFA=RSP+8: RBP=[CFA-16], RIP=[CFA-8]

000009a4 0000001c 000009a8 FDE cie=00000000 pc=000e7e40...000e7ea5
  Format:       DWARF32
  DW_CFA_advance_loc: 1
  DW_CFA_def_cfa_offset: +16
  DW_CFA_offset: RBP -16
  DW_CFA_advance_loc: 3
  DW_CFA_def_cfa_register: RBP
  DW_CFA_advance_loc1: 96
  DW_CFA_def_cfa: RSP +8
  DW_CFA_nop:
  DW_CFA_nop:

  0xe7e40: CFA=RSP+8: RIP=[CFA-8]
  0xe7e41: CFA=RSP+16: RBP=[CFA-16], RIP=[CFA-8]
  0xe7e44: CFA=RBP+16: RBP=[CFA-16], RIP=[CFA-8]
  0xe7ea4: CFA=RSP+8: RBP=[CFA-16], RIP=[CFA-8]

000009c4 00000018 000009c8 FDE cie=00000000 pc=000e7eb0...000e7ebf
  Format:       DWARF32
  DW_CFA_advance_loc: 1
  DW_CFA_def_cfa_offset: +16
  DW_CFA_offset: RBP -16
  DW_CFA_advance_loc: 3
  DW_CFA_def_cfa_register: RBP
  DW_CFA_nop:
  DW_CFA_nop:
  DW_CFA_nop:

  0xe7eb0: CFA=RSP+8: RIP=[CFA-8]
  0xe7eb1: CFA=RSP+16: RBP=[CFA-16], RIP=[CFA-8]
  0xe7eb4: CFA=RBP+16: RBP=[CFA-16], RIP=[CFA-8]

000009e0 00000020 000009e4 FDE cie=00000000 pc=000e7ec0...000e7ece
  Format:       DWARF32
  DW_CFA_advance_loc: 1
  DW_CFA_def_cfa_offset: +16
  DW_CFA_offset: RBP -16
  DW_CFA_advance_loc: 3
  DW_CFA_def_cfa_register: RBP
  DW_CFA_advance_loc: 9
  DW_CFA_def_cfa: RSP +8
  DW_CFA_nop:
  DW_CFA_nop:
  DW_CFA_nop:
  DW_CFA_nop:
  DW_CFA_nop:
  DW_CFA_nop:
  DW_CFA_nop:

  0xe7ec0: CFA=RSP+8: RIP=[CFA-8]
  0xe7ec1: CFA=RSP+16: RBP=[CFA-16], RIP=[CFA-8]
  0xe7ec4: CFA=RBP+16: RBP=[CFA-16], RIP=[CFA-8]
  0xe7ecd: CFA=RSP+8: RBP=[CFA-16], RIP=[CFA-8]

00000a04 00000020 00000a08 FDE cie=00000000 pc=000e7ed0...000e7fef
  Format:       DWARF32
  DW_CFA_advance_loc: 1
  DW_CFA_def_cfa_offset: +16
  DW_CFA_offset: RBP -16
  DW_CFA_advance_loc: 3
  DW_CFA_def_cfa_register: RBP
  DW_CFA_advance_loc1: 250
  DW_CFA_def_cfa: RSP +8
  DW_CFA_advance_loc: 1
  DW_CFA_def_cfa: RBP +16
  DW_CFA_nop:
  DW_CFA_nop:

  0xe7ed0: CFA=RSP+8: RIP=[CFA-8]
  0xe7ed1: CFA=RSP+16: RBP=[CFA-16], RIP=[CFA-8]
  0xe7ed4: CFA=RBP+16: RBP=[CFA-16], RIP=[CFA-8]
  0xe7fce: CFA=RSP+8: RBP=[CFA-16], RIP=[CFA-8]
  0xe7fcf: CFA=RBP+16: RBP=[CFA-16], RIP=[CFA-8]

00000a28 0000002c 00000a2c FDE cie=00000000 pc=000e7ff0...000e81d7
  Format:       DWARF32
  DW_CFA_advance_loc: 1
  DW_CFA_def_cfa_offset: +16
  DW_CFA_offset: RBP -16
  DW_CFA_advance_loc: 3
  DW_CFA_def_cfa_register: RBP
  DW_CFA_advance_loc1: 89
  DW_CFA_def_cfa: RSP +8
  DW_CFA_restore: RBP
  DW_CFA_advance_loc: 2
  DW_CFA_def_cfa: RBP +16
  DW_CFA_offset: RBP -16
  DW_CFA_advance_loc2: 261
  DW_CFA_def_cfa: RSP +8
  DW_CFA_advance_loc: 1
  DW_CFA_def_cfa: RBP +16
  DW_CFA_nop:

  0xe7ff0: CFA=RSP+8: RIP=[CFA-8]
  0xe7ff1: CFA=RSP+16: RBP=[CFA-16], RIP=[CFA-8]
  0xe7ff4: CFA=RBP+16: RBP=[CFA-16], RIP=[CFA-8]
  0xe804d: CFA=RSP+8: RIP=[CFA-8]
  0xe804f: CFA=RBP+16: RBP=[CFA-16], RIP=[CFA-8]
  0xe8154: CFA=RSP+8: RBP=[CFA-16], RIP=[CFA-8]
  0xe8155: CFA=RBP+16: RBP=[CFA-16], RIP=[CFA-8]

00000a58 0000001c 00000a5c FDE cie=00000000 pc=000e81e0...000e8201
  Format:       DWARF32
  DW_CFA_advance_loc: 1
  DW_CFA_def_cfa_offset: +16
  DW_CFA_offset: RBP -16
  DW_CFA_advance_loc: 3
  DW_CFA_def_cfa_register: RBP
  DW_CFA_advance_loc: 28
  DW_CFA_def_cfa: RSP +8
  DW_CFA_nop:
  DW_CFA_nop:
  DW_CFA_nop:

  0xe81e0: CFA=RSP+8: RIP=[CFA-8]
  0xe81e1: CFA=RSP+16: RBP=[CFA-16], RIP=[CFA-8]
  0xe81e4: CFA=RBP+16: RBP=[CFA-16], RIP=[CFA-8]
  0xe8200: CFA=RSP+8: RBP=[CFA-16], RIP=[CFA-8]

00000a78 0000001c 00000a7c FDE cie=00000000 pc=000e8210...000e822e
  Format:       DWARF32
  DW_CFA_advance_loc: 1
  DW_CFA_def_cfa_offset: +16
  DW_CFA_offset: RBP -16
  DW_CFA_advance_loc: 3
  DW_CFA_def_cfa_register: RBP
  DW_CFA_advance_loc: 25
  DW_CFA_def_cfa: RSP +8
  DW_CFA_nop:
  DW_CFA_nop:
  DW_CFA_nop:

  0xe8210: CFA=RSP+8: RIP=[CFA-8]
  0xe8211: CFA=RSP+16: RBP=[CFA-16], RIP=[CFA-8]
  0xe8214: CFA=RBP+16: RBP=[CFA-16], RIP=[CFA-8]
  0xe822d: CFA=RSP+8: RBP=[CFA-16], RIP=[CFA-8]

00000a98 00000020 00000a9c FDE cie=00000000 pc=000e8230...000e8252
  Format:       DWARF32
  DW_CFA_advance_loc: 1
  DW_CFA_def_cfa_offset: +16
  DW_CFA_offset: RBP -16
  DW_CFA_advance_loc: 3
  DW_CFA_def_cfa_register: RBP
  DW_CFA_advance_loc: 29
  DW_CFA_def_cfa: RSP +8
  DW_CFA_nop:
  DW_CFA_nop:
  DW_CFA_nop:
  DW_CFA_nop:
  DW_CFA_nop:
  DW_CFA_nop:
  DW_CFA_nop:

  0xe8230: CFA=RSP+8: RIP=[CFA-8]
  0xe8231: CFA=RSP+16: RBP=[CFA-16], RIP=[CFA-8]
  0xe8234: CFA=RBP+16: RBP=[CFA-16], RIP=[CFA-8]
  0xe8251: CFA=RSP+8: RBP=[CFA-16], RIP=[CFA-8]

00000abc 00000024 00000ac0 FDE cie=00000000 pc=000e8260...000e8640
  Format:       DWARF32
  DW_CFA_advance_loc: 1
  DW_CFA_def_cfa_offset: +16
  DW_CFA_offset: RBP -16
  DW_CFA_advance_loc: 3
  DW_CFA_def_cfa_register: RBP
  DW_CFA_advance_loc2: 723
  DW_CFA_def_cfa: RSP +8
  DW_CFA_advance_loc: 1
  DW_CFA_def_cfa: RBP +16
  DW_CFA_nop:
  DW_CFA_nop:
  DW_CFA_nop:
  DW_CFA_nop:
  DW_CFA_nop:

  0xe8260: CFA=RSP+8: RIP=[CFA-8]
  0xe8261: CFA=RSP+16: RBP=[CFA-16], RIP=[CFA-8]
  0xe8264: CFA=RBP+16: RBP=[CFA-16], RIP=[CFA-8]
  0xe8537: CFA=RSP+8: RBP=[CFA-16], RIP=[CFA-8]
  0xe8538: CFA=RBP+16: RBP=[CFA-16], RIP=[CFA-8]

00000ae4 0000001c 00000ae8 FDE cie=00000000 pc=000e8640...000e875e
  Format:       DWARF32
  DW_CFA_advance_loc: 1
  DW_CFA_def_cfa_offset: +16
  DW_CFA_offset: RBP -16
  DW_CFA_advance_loc: 3
  DW_CFA_def_cfa_register: RBP
  DW_CFA_advance_loc2: 281
  DW_CFA_def_cfa: RSP +8
  DW_CFA_nop:

  0xe8640: CFA=RSP+8: RIP=[CFA-8]
  0xe8641: CFA=RSP+16: RBP=[CFA-16], RIP=[CFA-8]
  0xe8644: CFA=RBP+16: RBP=[CFA-16], RIP=[CFA-8]
  0xe875d: CFA=RSP+8: RBP=[CFA-16], RIP=[CFA-8]

00000b04 0000001c 00000b08 FDE cie=00000000 pc=000e8760...000e87e6
  Format:       DWARF32
  DW_CFA_advance_loc: 1
  DW_CFA_def_cfa_offset: +16
  DW_CFA_offset: RBP -16
  DW_CFA_advance_loc: 3
  DW_CFA_def_cfa_register: RBP
  DW_CFA_advance_loc1: 129
  DW_CFA_def_cfa: RSP +8
  DW_CFA_nop:
  DW_CFA_nop:

  0xe8760: CFA=RSP+8: RIP=[CFA-8]
  0xe8761: CFA=RSP+16: RBP=[CFA-16], RIP=[CFA-8]
  0xe8764: CFA=RBP+16: RBP=[CFA-16], RIP=[CFA-8]
  0xe87e5: CFA=RSP+8: RBP=[CFA-16], RIP=[CFA-8]

00000b24 0000001c 00000b28 FDE cie=00000000 pc=000e87f0...000e87fc
  Format:       DWARF32
  DW_CFA_advance_loc: 1
  DW_CFA_def_cfa_offset: +16
  DW_CFA_offset: RBP -16
  DW_CFA_advance_loc: 3
  DW_CFA_def_cfa_register: RBP
  DW_CFA_advance_loc: 7
  DW_CFA_def_cfa: RSP +8
  DW_CFA_nop:
  DW_CFA_nop:
  DW_CFA_nop:

  0xe87f0: CFA=RSP+8: RIP=[CFA-8]
  0xe87f1: CFA=RSP+16: RBP=[CFA-16], RIP=[CFA-8]
  0xe87f4: CFA=RBP+16: RBP=[CFA-16], RIP=[CFA-8]
  0xe87fb: CFA=RSP+8: RBP=[CFA-16], RIP=[CFA-8]

00000b44 0000001c 00000b48 FDE cie=00000000 pc=000e8800...000e8885
  Format:       DWARF32
  DW_CFA_advance_loc: 1
  DW_CFA_def_cfa_offset: +16
  DW_CFA_offset: RBP -16
  DW_CFA_advance_loc: 3
  DW_CFA_def_cfa_register: RBP
  DW_CFA_advance_loc1: 128
  DW_CFA_def_cfa: RSP +8
  DW_CFA_nop:
  DW_CFA_nop:

  0xe8800: CFA=RSP+8: RIP=[CFA-8]
  0xe8801: CFA=RSP+16: RBP=[CFA-16], RIP=[CFA-8]
  0xe8804: CFA=RBP+16: RBP=[CFA-16], RIP=[CFA-8]
  0xe8884: CFA=RSP+8: RBP=[CFA-16], RIP=[CFA-8]

00000b64 0000001c 00000b68 FDE cie=00000000 pc=000e8890...000e88fc
  Format:       DWARF32
  DW_CFA_advance_loc: 1
  DW_CFA_def_cfa_offset: +16
  DW_CFA_offset: RBP -16
  DW_CFA_advance_loc: 3
  DW_CFA_def_cfa_register: RBP
  DW_CFA_advance_loc1: 103
  DW_CFA_def_cfa: RSP +8
  DW_CFA_nop:
  DW_CFA_nop:

  0xe8890: CFA=RSP+8: RIP=[CFA-8]
  0xe8891: CFA=RSP+16: RBP=[CFA-16], RIP=[CFA-8]
  0xe8894: CFA=RBP+16: RBP=[CFA-16], RIP=[CFA-8]
  0xe88fb: CFA=RSP+8: RBP=[CFA-16], RIP=[CFA-8]

00000b84 0000001c 00000b88 FDE cie=00000000 pc=000e8900...000e8915
  Format:       DWARF32
  DW_CFA_advance_loc: 1
  DW_CFA_def_cfa_offset: +16
  DW_CFA_offset: RBP -16
  DW_CFA_advance_loc: 3
  DW_CFA_def_cfa_register: RBP
  DW_CFA_advance_loc: 16
  DW_CFA_def_cfa: RSP +8
  DW_CFA_nop:
  DW_CFA_nop:
  DW_CFA_nop:

  0xe8900: CFA=RSP+8: RIP=[CFA-8]
  0xe8901: CFA=RSP+16: RBP=[CFA-16], RIP=[CFA-8]
  0xe8904: CFA=RBP+16: RBP=[CFA-16], RIP=[CFA-8]
  0xe8914: CFA=RSP+8: RBP=[CFA-16], RIP=[CFA-8]

00000ba4 00000020 00000ba8 FDE cie=00000000 pc=000e8920...000e8a3f
  Format:       DWARF32
  DW_CFA_advance_loc: 1
  DW_CFA_def_cfa_offset: +16
  DW_CFA_offset: RBP -16
  DW_CFA_advance_loc: 3
  DW_CFA_def_cfa_register: RBP
  DW_CFA_advance_loc1: 186
  DW_CFA_def_cfa: RSP +8
  DW_CFA_advance_loc: 1
  DW_CFA_def_cfa: RBP +16
  DW_CFA_nop:
  DW_CFA_nop:

  0xe8920: CFA=RSP+8: RIP=[CFA-8]
  0xe8921: CFA=RSP+16: RBP=[CFA-16], RIP=[CFA-8]
  0xe8924: CFA=RBP+16: RBP=[CFA-16], RIP=[CFA-8]
  0xe89de: CFA=RSP+8: RBP=[CFA-16], RIP=[CFA-8]
  0xe89df: CFA=RBP+16: RBP=[CFA-16], RIP=[CFA-8]

00000bc8 00000020 00000bcc FDE cie=00000000 pc=000e8a40...000e8ae3
  Format:       DWARF32
  DW_CFA_advance_loc: 1
  DW_CFA_def_cfa_offset: +16
  DW_CFA_offset: RBP -16
  DW_CFA_advance_loc: 3
  DW_CFA_def_cfa_register: RBP
  DW_CFA_advance_loc1: 111
  DW_CFA_def_cfa: RSP +8
  DW_CFA_advance_loc: 1
  DW_CFA_def_cfa: RBP +16
  DW_CFA_nop:
  DW_CFA_nop:

  0xe8a40: CFA=RSP+8: RIP=[CFA-8]
  0xe8a41: CFA=RSP+16: RBP=[CFA-16], RIP=[CFA-8]
  0xe8a44: CFA=RBP+16: RBP=[CFA-16], RIP=[CFA-8]
  0xe8ab3: CFA=RSP+8: RBP=[CFA-16], RIP=[CFA-8]
  0xe8ab4: CFA=RBP+16: RBP=[CFA-16], RIP=[CFA-8]

00000bec 00000018 00000bf0 FDE cie=00000000 pc=000e8af0...000e8b12
  Format:       DWARF32
  DW_CFA_advance_loc: 1
  DW_CFA_def_cfa_offset: +16
  DW_CFA_offset: RBP -16
  DW_CFA_advance_loc: 3
  DW_CFA_def_cfa_register: RBP
  DW_CFA_nop:
  DW_CFA_nop:
  DW_CFA_nop:

  0xe8af0: CFA=RSP+8: RIP=[CFA-8]
  0xe8af1: CFA=RSP+16: RBP=[CFA-16], RIP=[CFA-8]
  0xe8af4: CFA=RBP+16: RBP=[CFA-16], RIP=[CFA-8]

00000c08 0000001c 00000c0c FDE cie=00000000 pc=000e8b20...000e8baa
  Format:       DWARF32
  DW_CFA_advance_loc: 1
  DW_CFA_def_cfa_offset: +16
  DW_CFA_offset: RBP -16
  DW_CFA_advance_loc: 3
  DW_CFA_def_cfa_register: RBP
  DW_CFA_advance_loc1: 133
  DW_CFA_def_cfa: RSP +8
  DW_CFA_nop:
  DW_CFA_nop:

  0xe8b20: CFA=RSP+8: RIP=[CFA-8]
  0xe8b21: CFA=RSP+16: RBP=[CFA-16], RIP=[CFA-8]
  0xe8b24: CFA=RBP+16: RBP=[CFA-16], RIP=[CFA-8]
  0xe8ba9: CFA=RSP+8: RBP=[CFA-16], RIP=[CFA-8]

00000c28 0000001c 00000c2c FDE cie=00000000 pc=000e8bb0...000e8bfb
  Format:       DWARF32
  DW_CFA_advance_loc: 1
  DW_CFA_def_cfa_offset: +16
  DW_CFA_offset: RBP -16
  DW_CFA_advance_loc: 3
  DW_CFA_def_cfa_register: RBP
  DW_CFA_advance_loc1: 70
  DW_CFA_def_cfa: RSP +8
  DW_CFA_nop:
  DW_CFA_nop:

  0xe8bb0: CFA=RSP+8: RIP=[CFA-8]
  0xe8bb1: CFA=RSP+16: RBP=[CFA-16], RIP=[CFA-8]
  0xe8bb4: CFA=RBP+16: RBP=[CFA-16], RIP=[CFA-8]
  0xe8bfa: CFA=RSP+8: RBP=[CFA-16], RIP=[CFA-8]

00000c48 0000001c 00000c4c FDE cie=00000000 pc=000e8c00...000e8c17
  Format:       DWARF32
  DW_CFA_advance_loc: 1
  DW_CFA_def_cfa_offset: +16
  DW_CFA_offset: RBP -16
  DW_CFA_advance_loc: 3
  DW_CFA_def_cfa_register: RBP
  DW_CFA_advance_loc: 18
  DW_CFA_def_cfa: RSP +8
  DW_CFA_nop:
  DW_CFA_nop:
  DW_CFA_nop:

  0xe8c00: CFA=RSP+8: RIP=[CFA-8]
  0xe8c01: CFA=RSP+16: RBP=[CFA-16], RIP=[CFA-8]
  0xe8c04: CFA=RBP+16: RBP=[CFA-16], RIP=[CFA-8]
  0xe8c16: CFA=RSP+8: RBP=[CFA-16], RIP=[CFA-8]

00000c68 0000001c 00000c6c FDE cie=00000000 pc=000e8c20...000e90de
  Format:       DWARF32
  DW_CFA_advance_loc: 1
  DW_CFA_def_cfa_offset: +16
  DW_CFA_offset: RBP -16
  DW_CFA_advance_loc: 3
  DW_CFA_def_cfa_register: RBP
  DW_CFA_advance_loc2: 1209
  DW_CFA_def_cfa: RSP +8
  DW_CFA_nop:

  0xe8c20: CFA=RSP+8: RIP=[CFA-8]
  0xe8c21: CFA=RSP+16: RBP=[CFA-16], RIP=[CFA-8]
  0xe8c24: CFA=RBP+16: RBP=[CFA-16], RIP=[CFA-8]
  0xe90dd: CFA=RSP+8: RBP=[CFA-16], RIP=[CFA-8]

00000c88 0000001c 00000c8c FDE cie=00000000 pc=000e90e0...000e9118
  Format:       DWARF32
  DW_CFA_advance_loc: 1
  DW_CFA_def_cfa_offset: +16
  DW_CFA_offset: RBP -16
  DW_CFA_advance_loc: 3
  DW_CFA_def_cfa_register: RBP
  DW_CFA_advance_loc: 51
  DW_CFA_def_cfa: RSP +8
  DW_CFA_nop:
  DW_CFA_nop:
  DW_CFA_nop:

  0xe90e0: CFA=RSP+8: RIP=[CFA-8]
  0xe90e1: CFA=RSP+16: RBP=[CFA-16], RIP=[CFA-8]
  0xe90e4: CFA=RBP+16: RBP=[CFA-16], RIP=[CFA-8]
  0xe9117: CFA=RSP+8: RBP=[CFA-16], RIP=[CFA-8]

00000ca8 00000028 00000cac FDE cie=00000000 pc=000e9120...000e92cb
  Format:       DWARF32
  DW_CFA_advance_loc: 1
  DW_CFA_def_cfa_offset: +16
  DW_CFA_offset: RBP -16
  DW_CFA_advance_loc: 3
  DW_CFA_def_cfa_register: RBP
  DW_CFA_advance_loc: 47
  DW_CFA_def_cfa: RSP +8
  DW_CFA_restore: RBP
  DW_CFA_advance_loc: 2
  DW_CFA_def_cfa: RBP +16
  DW_CFA_offset: RBP -16
  DW_CFA_advance_loc2: 373
  DW_CFA_def_cfa: RSP +8
  DW_CFA_nop:
  DW_CFA_nop:

  0xe9120: CFA=RSP+8: RIP=[CFA-8]
  0xe9121: CFA=RSP+16: RBP=[CFA-16], RIP=[CFA-8]
  0xe9124: CFA=RBP+16: RBP=[CFA-16], RIP=[CFA-8]
  0xe9153: CFA=RSP+8: RIP=[CFA-8]
  0xe9155: CFA=RBP+16: RBP=[CFA-16], RIP=[CFA-8]
  0xe92ca: CFA=RSP+8: RBP=[CFA-16], RIP=[CFA-8]

00000cd4 0000001c 00000cd8 FDE cie=00000000 pc=000e92d0...000e9317
  Format:       DWARF32
  DW_CFA_advance_loc: 1
  DW_CFA_def_cfa_offset: +16
  DW_CFA_offset: RBP -16
  DW_CFA_advance_loc: 3
  DW_CFA_def_cfa_register: RBP
  DW_CFA_advance_loc1: 66
  DW_CFA_def_cfa: RSP +8
  DW_CFA_nop:
  DW_CFA_nop:

  0xe92d0: CFA=RSP+8: RIP=[CFA-8]
  0xe92d1: CFA=RSP+16: RBP=[CFA-16], RIP=[CFA-8]
  0xe92d4: CFA=RBP+16: RBP=[CFA-16], RIP=[CFA-8]
  0xe9316: CFA=RSP+8: RBP=[CFA-16], RIP=[CFA-8]

00000cf4 0000001c 00000cf8 FDE cie=00000000 pc=000e9320...000e9367
  Format:       DWARF32
  DW_CFA_advance_loc: 1
  DW_CFA_def_cfa_offset: +16
  DW_CFA_offset: RBP -16
  DW_CFA_advance_loc: 3
  DW_CFA_def_cfa_register: RBP
  DW_CFA_advance_loc1: 66
  DW_CFA_def_cfa: RSP +8
  DW_CFA_nop:
  DW_CFA_nop:

  0xe9320: CFA=RSP+8: RIP=[CFA-8]
  0xe9321: CFA=RSP+16: RBP=[CFA-16], RIP=[CFA-8]
  0xe9324: CFA=RBP+16: RBP=[CFA-16], RIP=[CFA-8]
  0xe9366: CFA=RSP+8: RBP=[CFA-16], RIP=[CFA-8]

00000d14 0000002c 00000d18 FDE cie=00000000 pc=000e9370...000e9cfa
  Format:       DWARF32
  DW_CFA_advance_loc: 1
  DW_CFA_def_cfa_offset: +16
  DW_CFA_offset: RBP -16
  DW_CFA_advance_loc: 3
  DW_CFA_def_cfa_register: RBP
  DW_CFA_advance_loc: 8
  DW_CFA_offset: RBX -24
  DW_CFA_advance_loc: 55
  DW_CFA_def_cfa: RSP +8
  DW_CFA_restore: RBX
  DW_CFA_restore: RBP
  DW_CFA_advance_loc: 2
  DW_CFA_def_cfa: RBP +16
  DW_CFA_offset: RBX -24
  DW_CFA_offset: RBP -16
  DW_CFA_advance_loc2: 2372
  DW_CFA_def_cfa: RSP +8

  0xe9370: CFA=RSP+8: RIP=[CFA-8]
  0xe9371: CFA=RSP+16: RBP=[CFA-16], RIP=[CFA-8]
  0xe9374: CFA=RBP+16: RBP=[CFA-16], RIP=[CFA-8]
  0xe937c: CFA=RBP+16: RBX=[CFA-24], RBP=[CFA-16], RIP=[CFA-8]
  0xe93b3: CFA=RSP+8: RIP=[CFA-8]
  0xe93b5: CFA=RBP+16: RBX=[CFA-24], RBP=[CFA-16], RIP=[CFA-8]
  0xe9cf9: CFA=RSP+8: RBX=[CFA-24], RBP=[CFA-16], RIP=[CFA-8]

00000d44 0000001c 00000d48 FDE cie=00000000 pc=000e9d00...000e9d2d
  Format:       DWARF32
  DW_CFA_advance_loc: 1
  DW_CFA_def_cfa_offset: +16
  DW_CFA_offset: RBP -16
  DW_CFA_advance_loc: 3
  DW_CFA_def_cfa_register: RBP
  DW_CFA_advance_loc: 40
  DW_CFA_def_cfa: RSP +8
  DW_CFA_nop:
  DW_CFA_nop:
  DW_CFA_nop:

  0xe9d00: CFA=RSP+8: RIP=[CFA-8]
  0xe9d01: CFA=RSP+16: RBP=[CFA-16], RIP=[CFA-8]
  0xe9d04: CFA=RBP+16: RBP=[CFA-16], RIP=[CFA-8]
  0xe9d2c: CFA=RSP+8: RBP=[CFA-16], RIP=[CFA-8]

00000d64 00000020 00000d68 FDE cie=00000000 pc=000e9d30...000e9de9
  Format:       DWARF32
  DW_CFA_advance_loc: 1
  DW_CFA_def_cfa_offset: +16
  DW_CFA_offset: RBP -16
  DW_CFA_advance_loc: 3
  DW_CFA_def_cfa_register: RBP
  DW_CFA_advance_loc1: 72
  DW_CFA_def_cfa: RSP +8
  DW_CFA_advance_loc: 1
  DW_CFA_def_cfa: RBP +16
  DW_CFA_nop:
  DW_CFA_nop:

  0xe9d30: CFA=RSP+8: RIP=[CFA-8]
  0xe9d31: CFA=RSP+16: RBP=[CFA-16], RIP=[CFA-8]
  0xe9d34: CFA=RBP+16: RBP=[CFA-16], RIP=[CFA-8]
  0xe9d7c: CFA=RSP+8: RBP=[CFA-16], RIP=[CFA-8]
  0xe9d7d: CFA=RBP+16: RBP=[CFA-16], RIP=[CFA-8]

00000d88 00000020 00000d8c FDE cie=00000000 pc=000e9df0...000e9e01
  Format:       DWARF32
  DW_CFA_advance_loc: 1
  DW_CFA_def_cfa_offset: +16
  DW_CFA_offset: RBP -16
  DW_CFA_advance_loc: 3
  DW_CFA_def_cfa_register: RBP
  DW_CFA_advance_loc: 12
  DW_CFA_def_cfa: RSP +8
  DW_CFA_nop:
  DW_CFA_nop:
  DW_CFA_nop:
  DW_CFA_nop:
  DW_CFA_nop:
  DW_CFA_nop:
  DW_CFA_nop:

  0xe9df0: CFA=RSP+8: RIP=[CFA-8]
  0xe9df1: CFA=RSP+16: RBP=[CFA-16], RIP=[CFA-8]
  0xe9df4: CFA=RBP+16: RBP=[CFA-16], RIP=[CFA-8]
  0xe9e00: CFA=RSP+8: RBP=[CFA-16], RIP=[CFA-8]

00000dac 0000001c 00000db0 FDE cie=00000000 pc=000e9e10...000e9e72
  Format:       DWARF32
  DW_CFA_advance_loc: 1
  DW_CFA_def_cfa_offset: +16
  DW_CFA_offset: RBP -16
  DW_CFA_advance_loc: 3
  DW_CFA_def_cfa_register: RBP
  DW_CFA_advance_loc1: 93
  DW_CFA_def_cfa: RSP +8
  DW_CFA_nop:
  DW_CFA_nop:

  0xe9e10: CFA=RSP+8: RIP=[CFA-8]
  0xe9e11: CFA=RSP+16: RBP=[CFA-16], RIP=[CFA-8]
  0xe9e14: CFA=RBP+16: RBP=[CFA-16], RIP=[CFA-8]
  0xe9e71: CFA=RSP+8: RBP=[CFA-16], RIP=[CFA-8]

00000dcc 0000001c 00000dd0 FDE cie=00000000 pc=000e9e80...000e9ebc
  Format:       DWARF32
  DW_CFA_advance_loc: 1
  DW_CFA_def_cfa_offset: +16
  DW_CFA_offset: RBP -16
  DW_CFA_advance_loc: 3
  DW_CFA_def_cfa_register: RBP
  DW_CFA_advance_loc: 55
  DW_CFA_def_cfa: RSP +8
  DW_CFA_nop:
  DW_CFA_nop:
  DW_CFA_nop:

  0xe9e80: CFA=RSP+8: RIP=[CFA-8]
  0xe9e81: CFA=RSP+16: RBP=[CFA-16], RIP=[CFA-8]
  0xe9e84: CFA=RBP+16: RBP=[CFA-16], RIP=[CFA-8]
  0xe9ebb: CFA=RSP+8: RBP=[CFA-16], RIP=[CFA-8]

00000dec 0000001c 00000df0 FDE cie=00000000 pc=000e9ec0...000e9ecc
  Format:       DWARF32
  DW_CFA_advance_loc: 1
  DW_CFA_def_cfa_offset: +16
  DW_CFA_offset: RBP -16
  DW_CFA_advance_loc: 3
  DW_CFA_def_cfa_register: RBP
  DW_CFA_advance_loc: 7
  DW_CFA_def_cfa: RSP +8
  DW_CFA_nop:
  DW_CFA_nop:
  DW_CFA_nop:

  0xe9ec0: CFA=RSP+8: RIP=[CFA-8]
  0xe9ec1: CFA=RSP+16: RBP=[CFA-16], RIP=[CFA-8]
  0xe9ec4: CFA=RBP+16: RBP=[CFA-16], RIP=[CFA-8]
  0xe9ecb: CFA=RSP+8: RBP=[CFA-16], RIP=[CFA-8]

00000e0c 0000001c 00000e10 FDE cie=00000000 pc=000e9ed0...000e9ef4
  Format:       DWARF32
  DW_CFA_advance_loc: 1
  DW_CFA_def_cfa_offset: +16
  DW_CFA_offset: RBP -16
  DW_CFA_advance_loc: 3
  DW_CFA_def_cfa_register: RBP
  DW_CFA_advance_loc: 31
  DW_CFA_def_cfa: RSP +8
  DW_CFA_nop:
  DW_CFA_nop:
  DW_CFA_nop:

  0xe9ed0: CFA=RSP+8: RIP=[CFA-8]
  0xe9ed1: CFA=RSP+16: RBP=[CFA-16], RIP=[CFA-8]
  0xe9ed4: CFA=RBP+16: RBP=[CFA-16], RIP=[CFA-8]
  0xe9ef3: CFA=RSP+8: RBP=[CFA-16], RIP=[CFA-8]

00000e2c 0000001c 00000e30 FDE cie=00000000 pc=000e9f00...000e9f24
  Format:       DWARF32
  DW_CFA_advance_loc: 1
  DW_CFA_def_cfa_offset: +16
  DW_CFA_offset: RBP -16
  DW_CFA_advance_loc: 3
  DW_CFA_def_cfa_register: RBP
  DW_CFA_advance_loc: 31
  DW_CFA_def_cfa: RSP +8
  DW_CFA_nop:
  DW_CFA_nop:
  DW_CFA_nop:

  0xe9f00: CFA=RSP+8: RIP=[CFA-8]
  0xe9f01: CFA=RSP+16: RBP=[CFA-16], RIP=[CFA-8]
  0xe9f04: CFA=RBP+16: RBP=[CFA-16], RIP=[CFA-8]
  0xe9f23: CFA=RSP+8: RBP=[CFA-16], RIP=[CFA-8]

00000e4c 0000001c 00000e50 FDE cie=00000000 pc=000e9f30...000e9f54
  Format:       DWARF32
  DW_CFA_advance_loc: 1
  DW_CFA_def_cfa_offset: +16
  DW_CFA_offset: RBP -16
  DW_CFA_advance_loc: 3
  DW_CFA_def_cfa_register: RBP
  DW_CFA_advance_loc: 31
  DW_CFA_def_cfa: RSP +8
  DW_CFA_nop:
  DW_CFA_nop:
  DW_CFA_nop:

  0xe9f30: CFA=RSP+8: RIP=[CFA-8]
  0xe9f31: CFA=RSP+16: RBP=[CFA-16], RIP=[CFA-8]
  0xe9f34: CFA=RBP+16: RBP=[CFA-16], RIP=[CFA-8]
  0xe9f53: CFA=RSP+8: RBP=[CFA-16], RIP=[CFA-8]

00000e6c 0000001c 00000e70 FDE cie=00000000 pc=000e9f60...000e9f84
  Format:       DWARF32
  DW_CFA_advance_loc: 1
  DW_CFA_def_cfa_offset: +16
  DW_CFA_offset: RBP -16
  DW_CFA_advance_loc: 3
  DW_CFA_def_cfa_register: RBP
  DW_CFA_advance_loc: 31
  DW_CFA_def_cfa: RSP +8
  DW_CFA_nop:
  DW_CFA_nop:
  DW_CFA_nop:

  0xe9f60: CFA=RSP+8: RIP=[CFA-8]
  0xe9f61: CFA=RSP+16: RBP=[CFA-16], RIP=[CFA-8]
  0xe9f64: CFA=RBP+16: RBP=[CFA-16], RIP=[CFA-8]
  0xe9f83: CFA=RSP+8: RBP=[CFA-16], RIP=[CFA-8]

00000e8c 0000001c 00000e90 FDE cie=00000000 pc=000e9f90...000e9fb4
  Format:       DWARF32
  DW_CFA_advance_loc: 1
  DW_CFA_def_cfa_offset: +16
  DW_CFA_offset: RBP -16
  DW_CFA_advance_loc: 3
  DW_CFA_def_cfa_register: RBP
  DW_CFA_advance_loc: 31
  DW_CFA_def_cfa: RSP +8
  DW_CFA_nop:
  DW_CFA_nop:
  DW_CFA_nop:

  0xe9f90: CFA=RSP+8: RIP=[CFA-8]
  0xe9f91: CFA=RSP+16: RBP=[CFA-16], RIP=[CFA-8]
  0xe9f94: CFA=RBP+16: RBP=[CFA-16], RIP=[CFA-8]
  0xe9fb3: CFA=RSP+8: RBP=[CFA-16], RIP=[CFA-8]

00000eac 0000001c 00000eb0 FDE cie=00000000 pc=000e9fc0...000e9ff8
  Format:       DWARF32
  DW_CFA_advance_loc: 1
  DW_CFA_def_cfa_offset: +16
  DW_CFA_offset: RBP -16
  DW_CFA_advance_loc: 3
  DW_CFA_def_cfa_register: RBP
  DW_CFA_advance_loc: 51
  DW_CFA_def_cfa: RSP +8
  DW_CFA_nop:
  DW_CFA_nop:
  DW_CFA_nop:

  0xe9fc0: CFA=RSP+8: RIP=[CFA-8]
  0xe9fc1: CFA=RSP+16: RBP=[CFA-16], RIP=[CFA-8]
  0xe9fc4: CFA=RBP+16: RBP=[CFA-16], RIP=[CFA-8]
  0xe9ff7: CFA=RSP+8: RBP=[CFA-16], RIP=[CFA-8]

00000ecc 0000001c 00000ed0 FDE cie=00000000 pc=000ea000...000ea028
  Format:       DWARF32
  DW_CFA_advance_loc: 1
  DW_CFA_def_cfa_offset: +16
  DW_CFA_offset: RBP -16
  DW_CFA_advance_loc: 3
  DW_CFA_def_cfa_register: RBP
  DW_CFA_advance_loc: 35
  DW_CFA_def_cfa: RSP +8
  DW_CFA_nop:
  DW_CFA_nop:
  DW_CFA_nop:

  0xea000: CFA=RSP+8: RIP=[CFA-8]
  0xea001: CFA=RSP+16: RBP=[CFA-16], RIP=[CFA-8]
  0xea004: CFA=RBP+16: RBP=[CFA-16], RIP=[CFA-8]
  0xea027: CFA=RSP+8: RBP=[CFA-16], RIP=[CFA-8]

00000eec 00000018 00000ef0 FDE cie=00000000 pc=000ea030...000ea03c
  Format:       DWARF32
  DW_CFA_advance_loc: 1
  DW_CFA_def_cfa_offset: +16
  DW_CFA_offset: RBP -16
  DW_CFA_advance_loc: 3
  DW_CFA_def_cfa_register: RBP
  DW_CFA_nop:
  DW_CFA_nop:
  DW_CFA_nop:

  0xea030: CFA=RSP+8: RIP=[CFA-8]
  0xea031: CFA=RSP+16: RBP=[CFA-16], RIP=[CFA-8]
  0xea034: CFA=RBP+16: RBP=[CFA-16], RIP=[CFA-8]

00000f08 0000001c 00000f0c FDE cie=00000000 pc=000ea040...000ea07d
  Format:       DWARF32
  DW_CFA_advance_loc: 1
  DW_CFA_def_cfa_offset: +16
  DW_CFA_offset: RBP -16
  DW_CFA_advance_loc: 3
  DW_CFA_def_cfa_register: RBP
  DW_CFA_advance_loc: 56
  DW_CFA_def_cfa: RSP +8
  DW_CFA_nop:
  DW_CFA_nop:
  DW_CFA_nop:

  0xea040: CFA=RSP+8: RIP=[CFA-8]
  0xea041: CFA=RSP+16: RBP=[CFA-16], RIP=[CFA-8]
  0xea044: CFA=RBP+16: RBP=[CFA-16], RIP=[CFA-8]
  0xea07c: CFA=RSP+8: RBP=[CFA-16], RIP=[CFA-8]

00000f28 00000018 00000f2c FDE cie=00000000 pc=000ea080...000ea08e
  Format:       DWARF32
  DW_CFA_advance_loc: 1
  DW_CFA_def_cfa_offset: +16
  DW_CFA_offset: RBP -16
  DW_CFA_advance_loc: 3
  DW_CFA_def_cfa_register: RBP
  DW_CFA_nop:
  DW_CFA_nop:
  DW_CFA_nop:

  0xea080: CFA=RSP+8: RIP=[CFA-8]
  0xea081: CFA=RSP+16: RBP=[CFA-16], RIP=[CFA-8]
  0xea084: CFA=RBP+16: RBP=[CFA-16], RIP=[CFA-8]

00000f44 0000001c 00000f48 FDE cie=00000000 pc=000ea090...000ea0a1
  Format:       DWARF32
  DW_CFA_advance_loc: 1
  DW_CFA_def_cfa_offset: +16
  DW_CFA_offset: RBP -16
  DW_CFA_advance_loc: 3
  DW_CFA_def_cfa_register: RBP
  DW_CFA_advance_loc: 12
  DW_CFA_def_cfa: RSP +8
  DW_CFA_nop:
  DW_CFA_nop:
  DW_CFA_nop:

  0xea090: CFA=RSP+8: RIP=[CFA-8]
  0xea091: CFA=RSP+16: RBP=[CFA-16], RIP=[CFA-8]
  0xea094: CFA=RBP+16: RBP=[CFA-16], RIP=[CFA-8]
  0xea0a0: CFA=RSP+8: RBP=[CFA-16], RIP=[CFA-8]

00000f64 00000020 00000f68 FDE cie=00000000 pc=000ea0b0...000ea135
  Format:       DWARF32
  DW_CFA_advance_loc: 1
  DW_CFA_def_cfa_offset: +16
  DW_CFA_offset: RBP -16
  DW_CFA_advance_loc: 3
  DW_CFA_def_cfa_register: RBP
  DW_CFA_advance_loc: 5
  DW_CFA_offset: RBX -24
  DW_CFA_advance_loc1: 123
  DW_CFA_def_cfa: RSP +8
  DW_CFA_nop:
  DW_CFA_nop:
  DW_CFA_nop:

  0xea0b0: CFA=RSP+8: RIP=[CFA-8]
  0xea0b1: CFA=RSP+16: RBP=[CFA-16], RIP=[CFA-8]
  0xea0b4: CFA=RBP+16: RBP=[CFA-16], RIP=[CFA-8]
  0xea0b9: CFA=RBP+16: RBX=[CFA-24], RBP=[CFA-16], RIP=[CFA-8]
  0xea134: CFA=RSP+8: RBX=[CFA-24], RBP=[CFA-16], RIP=[CFA-8]

00000f88 0000001c 00000f8c FDE cie=00000000 pc=000ea140...000ea167
  Format:       DWARF32
  DW_CFA_advance_loc: 1
  DW_CFA_def_cfa_offset: +16
  DW_CFA_offset: RBP -16
  DW_CFA_advance_loc: 3
  DW_CFA_def_cfa_register: RBP
  DW_CFA_advance_loc: 34
  DW_CFA_def_cfa: RSP +8
  DW_CFA_nop:
  DW_CFA_nop:
  DW_CFA_nop:

  0xea140: CFA=RSP+8: RIP=[CFA-8]
  0xea141: CFA=RSP+16: RBP=[CFA-16], RIP=[CFA-8]
  0xea144: CFA=RBP+16: RBP=[CFA-16], RIP=[CFA-8]
  0xea166: CFA=RSP+8: RBP=[CFA-16], RIP=[CFA-8]

00000fa8 00000020 00000fac FDE cie=00000000 pc=000ea170...000ea2d2
  Format:       DWARF32
  DW_CFA_advance_loc: 1
  DW_CFA_def_cfa_offset: +16
  DW_CFA_offset: RBP -16
  DW_CFA_advance_loc: 3
  DW_CFA_def_cfa_register: RBP
  DW_CFA_advance_loc: 8
  DW_CFA_offset: RBX -24
  DW_CFA_advance_loc2: 341
  DW_CFA_def_cfa: RSP +8
  DW_CFA_nop:
  DW_CFA_nop:

  0xea170: CFA=RSP+8: RIP=[CFA-8]
  0xea171: CFA=RSP+16: RBP=[CFA-16], RIP=[CFA-8]
  0xea174: CFA=RBP+16: RBP=[CFA-16], RIP=[CFA-8]
  0xea17c: CFA=RBP+16: RBX=[CFA-24], RBP=[CFA-16], RIP=[CFA-8]
  0xea2d1: CFA=RSP+8: RBX=[CFA-24], RBP=[CFA-16], RIP=[CFA-8]

00000fcc 0000001c 00000fd0 FDE cie=00000000 pc=000ea2e0...000ea307
  Format:       DWARF32
  DW_CFA_advance_loc: 1
  DW_CFA_def_cfa_offset: +16
  DW_CFA_offset: RBP -16
  DW_CFA_advance_loc: 3
  DW_CFA_def_cfa_register: RBP
  DW_CFA_advance_loc: 34
  DW_CFA_def_cfa: RSP +8
  DW_CFA_nop:
  DW_CFA_nop:
  DW_CFA_nop:

  0xea2e0: CFA=RSP+8: RIP=[CFA-8]
  0xea2e1: CFA=RSP+16: RBP=[CFA-16], RIP=[CFA-8]
  0xea2e4: CFA=RBP+16: RBP=[CFA-16], RIP=[CFA-8]
  0xea306: CFA=RSP+8: RBP=[CFA-16], RIP=[CFA-8]

00000fec 0000001c 00000ff0 FDE cie=00000000 pc=000ea310...000ea435
  Format:       DWARF32
  DW_CFA_advance_loc: 1
  DW_CFA_def_cfa_offset: +16
  DW_CFA_offset: RBP -16
  DW_CFA_advance_loc: 3
  DW_CFA_def_cfa_register: RBP
  DW_CFA_advance_loc2: 288
  DW_CFA_def_cfa: RSP +8
  DW_CFA_nop:

  0xea310: CFA=RSP+8: RIP=[CFA-8]
  0xea311: CFA=RSP+16: RBP=[CFA-16], RIP=[CFA-8]
  0xea314: CFA=RBP+16: RBP=[CFA-16], RIP=[CFA-8]
  0xea434: CFA=RSP+8: RBP=[CFA-16], RIP=[CFA-8]

0000100c 0000001c 00001010 FDE cie=00000000 pc=000ea440...000ea467
  Format:       DWARF32
  DW_CFA_advance_loc: 1
  DW_CFA_def_cfa_offset: +16
  DW_CFA_offset: RBP -16
  DW_CFA_advance_loc: 3
  DW_CFA_def_cfa_register: RBP
  DW_CFA_advance_loc: 34
  DW_CFA_def_cfa: RSP +8
  DW_CFA_nop:
  DW_CFA_nop:
  DW_CFA_nop:

  0xea440: CFA=RSP+8: RIP=[CFA-8]
  0xea441: CFA=RSP+16: RBP=[CFA-16], RIP=[CFA-8]
  0xea444: CFA=RBP+16: RBP=[CFA-16], RIP=[CFA-8]
  0xea466: CFA=RSP+8: RBP=[CFA-16], RIP=[CFA-8]

0000102c 00000020 00001030 FDE cie=00000000 pc=000ea470...000ea5d2
  Format:       DWARF32
  DW_CFA_advance_loc: 1
  DW_CFA_def_cfa_offset: +16
  DW_CFA_offset: RBP -16
  DW_CFA_advance_loc: 3
  DW_CFA_def_cfa_register: RBP
  DW_CFA_advance_loc: 8
  DW_CFA_offset: RBX -24
  DW_CFA_advance_loc2: 341
  DW_CFA_def_cfa: RSP +8
  DW_CFA_nop:
  DW_CFA_nop:

  0xea470: CFA=RSP+8: RIP=[CFA-8]
  0xea471: CFA=RSP+16: RBP=[CFA-16], RIP=[CFA-8]
  0xea474: CFA=RBP+16: RBP=[CFA-16], RIP=[CFA-8]
  0xea47c: CFA=RBP+16: RBX=[CFA-24], RBP=[CFA-16], RIP=[CFA-8]
  0xea5d1: CFA=RSP+8: RBX=[CFA-24], RBP=[CFA-16], RIP=[CFA-8]

00001050 0000001c 00001054 FDE cie=00000000 pc=000ea5e0...000ea607
  Format:       DWARF32
  DW_CFA_advance_loc: 1
  DW_CFA_def_cfa_offset: +16
  DW_CFA_offset: RBP -16
  DW_CFA_advance_loc: 3
  DW_CFA_def_cfa_register: RBP
  DW_CFA_advance_loc: 34
  DW_CFA_def_cfa: RSP +8
  DW_CFA_nop:
  DW_CFA_nop:
  DW_CFA_nop:

  0xea5e0: CFA=RSP+8: RIP=[CFA-8]
  0xea5e1: CFA=RSP+16: RBP=[CFA-16], RIP=[CFA-8]
  0xea5e4: CFA=RBP+16: RBP=[CFA-16], RIP=[CFA-8]
  0xea606: CFA=RSP+8: RBP=[CFA-16], RIP=[CFA-8]

00001070 00000020 00001074 FDE cie=00000000 pc=000ea610...000ea772
  Format:       DWARF32
  DW_CFA_advance_loc: 1
  DW_CFA_def_cfa_offset: +16
  DW_CFA_offset: RBP -16
  DW_CFA_advance_loc: 3
  DW_CFA_def_cfa_register: RBP
  DW_CFA_advance_loc: 8
  DW_CFA_offset: RBX -24
  DW_CFA_advance_loc2: 341
  DW_CFA_def_cfa: RSP +8
  DW_CFA_nop:
  DW_CFA_nop:

  0xea610: CFA=RSP+8: RIP=[CFA-8]
  0xea611: CFA=RSP+16: RBP=[CFA-16], RIP=[CFA-8]
  0xea614: CFA=RBP+16: RBP=[CFA-16], RIP=[CFA-8]
  0xea61c: CFA=RBP+16: RBX=[CFA-24], RBP=[CFA-16], RIP=[CFA-8]
  0xea771: CFA=RSP+8: RBX=[CFA-24], RBP=[CFA-16], RIP=[CFA-8]

00001094 0000001c 00001098 FDE cie=00000000 pc=000ea780...000ea7a7
  Format:       DWARF32
  DW_CFA_advance_loc: 1
  DW_CFA_def_cfa_offset: +16
  DW_CFA_offset: RBP -16
  DW_CFA_advance_loc: 3
  DW_CFA_def_cfa_register: RBP
  DW_CFA_advance_loc: 34
  DW_CFA_def_cfa: RSP +8
  DW_CFA_nop:
  DW_CFA_nop:
  DW_CFA_nop:

  0xea780: CFA=RSP+8: RIP=[CFA-8]
  0xea781: CFA=RSP+16: RBP=[CFA-16], RIP=[CFA-8]
  0xea784: CFA=RBP+16: RBP=[CFA-16], RIP=[CFA-8]
  0xea7a6: CFA=RSP+8: RBP=[CFA-16], RIP=[CFA-8]

000010b4 00000028 000010b8 FDE cie=00000000 pc=000ea7b0...000eab0a
  Format:       DWARF32
  DW_CFA_advance_loc: 1
  DW_CFA_def_cfa_offset: +16
  DW_CFA_offset: RBP -16
  DW_CFA_advance_loc: 3
  DW_CFA_def_cfa_register: RBP
  DW_CFA_advance_loc: 16
  DW_CFA_offset: RBX -56
  DW_CFA_offset: R12 -48
  DW_CFA_offset: R13 -40
  DW_CFA_offset: R14 -32
  DW_CFA_offset: R15 -24
  DW_CFA_advance_loc2: 837
  DW_CFA_def_cfa: RSP +8
  DW_CFA_nop:
  DW_CFA_nop:

  0xea7b0: CFA=RSP+8: RIP=[CFA-8]
  0xea7b1: CFA=RSP+16: RBP=[CFA-16], RIP=[CFA-8]
  0xea7b4: CFA=RBP+16: RBP=[CFA-16], RIP=[CFA-8]
  0xea7c4: CFA=RBP+16: RBX=[CFA-56], RBP=[CFA-16], R12=[CFA-48], R13=[CFA-40], R14=[CFA-32], R15=[CFA-24], RIP=[CFA-8]
  0xeab09: CFA=RSP+8: RBX=[CFA-56], RBP=[CFA-16], R12=[CFA-48], R13=[CFA-40], R14=[CFA-32], R15=[CFA-24], RIP=[CFA-8]

000010e0 0000001c 000010e4 FDE cie=00000000 pc=000eab10...000eab3b
  Format:       DWARF32
  DW_CFA_advance_loc: 1
  DW_CFA_def_cfa_offset: +16
  DW_CFA_offset: RBP -16
  DW_CFA_advance_loc: 3
  DW_CFA_def_cfa_register: RBP
  DW_CFA_advance_loc: 38
  DW_CFA_def_cfa: RSP +8
  DW_CFA_nop:
  DW_CFA_nop:
  DW_CFA_nop:

  0xeab10: CFA=RSP+8: RIP=[CFA-8]
  0xeab11: CFA=RSP+16: RBP=[CFA-16], RIP=[CFA-8]
  0xeab14: CFA=RBP+16: RBP=[CFA-16], RIP=[CFA-8]
  0xeab3a: CFA=RSP+8: RBP=[CFA-16], RIP=[CFA-8]

00001100 00000020 00001104 FDE cie=00000000 pc=000eab40...000eabc7
  Format:       DWARF32
  DW_CFA_advance_loc: 1
  DW_CFA_def_cfa_offset: +16
  DW_CFA_offset: RBP -16
  DW_CFA_advance_loc: 3
  DW_CFA_def_cfa_register: RBP
  DW_CFA_advance_loc: 5
  DW_CFA_offset: RBX -24
  DW_CFA_advance_loc1: 125
  DW_CFA_def_cfa: RSP +8
  DW_CFA_nop:
  DW_CFA_nop:
  DW_CFA_nop:

  0xeab40: CFA=RSP+8: RIP=[CFA-8]
  0xeab41: CFA=RSP+16: RBP=[CFA-16], RIP=[CFA-8]
  0xeab44: CFA=RBP+16: RBP=[CFA-16], RIP=[CFA-8]
  0xeab49: CFA=RBP+16: RBX=[CFA-24], RBP=[CFA-16], RIP=[CFA-8]
  0xeabc6: CFA=RSP+8: RBX=[CFA-24], RBP=[CFA-16], RIP=[CFA-8]

00001124 0000001c 00001128 FDE cie=00000000 pc=000eabd0...000eabe5
  Format:       DWARF32
  DW_CFA_advance_loc: 1
  DW_CFA_def_cfa_offset: +16
  DW_CFA_offset: RBP -16
  DW_CFA_advance_loc: 3
  DW_CFA_def_cfa_register: RBP
  DW_CFA_advance_loc: 16
  DW_CFA_def_cfa: RSP +8
  DW_CFA_nop:
  DW_CFA_nop:
  DW_CFA_nop:

  0xeabd0: CFA=RSP+8: RIP=[CFA-8]
  0xeabd1: CFA=RSP+16: RBP=[CFA-16], RIP=[CFA-8]
  0xeabd4: CFA=RBP+16: RBP=[CFA-16], RIP=[CFA-8]
  0xeabe4: CFA=RSP+8: RBP=[CFA-16], RIP=[CFA-8]

00001144 0000001c 00001148 FDE cie=00000000 pc=000eabf0...000eac48
  Format:       DWARF32
  DW_CFA_advance_loc: 1
  DW_CFA_def_cfa_offset: +16
  DW_CFA_offset: RBP -16
  DW_CFA_advance_loc: 3
  DW_CFA_def_cfa_register: RBP
  DW_CFA_advance_loc1: 83
  DW_CFA_def_cfa: RSP +8
  DW_CFA_nop:
  DW_CFA_nop:

  0xeabf0: CFA=RSP+8: RIP=[CFA-8]
  0xeabf1: CFA=RSP+16: RBP=[CFA-16], RIP=[CFA-8]
  0xeabf4: CFA=RBP+16: RBP=[CFA-16], RIP=[CFA-8]
  0xeac47: CFA=RSP+8: RBP=[CFA-16], RIP=[CFA-8]

00001164 0000001c 00001168 FDE cie=00000000 pc=000eac50...000eac6b
  Format:       DWARF32
  DW_CFA_advance_loc: 1
  DW_CFA_def_cfa_offset: +16
  DW_CFA_offset: RBP -16
  DW_CFA_advance_loc: 3
  DW_CFA_def_cfa_register: RBP
  DW_CFA_advance_loc: 22
  DW_CFA_def_cfa: RSP +8
  DW_CFA_nop:
  DW_CFA_nop:
  DW_CFA_nop:

  0xeac50: CFA=RSP+8: RIP=[CFA-8]
  0xeac51: CFA=RSP+16: RBP=[CFA-16], RIP=[CFA-8]
  0xeac54: CFA=RBP+16: RBP=[CFA-16], RIP=[CFA-8]
  0xeac6a: CFA=RSP+8: RBP=[CFA-16], RIP=[CFA-8]

00001184 00000028 00001188 FDE cie=00000000 pc=000eac70...000ead70
  Format:       DWARF32
  DW_CFA_advance_loc: 1
  DW_CFA_def_cfa_offset: +16
  DW_CFA_offset: RBP -16
  DW_CFA_advance_loc: 3
  DW_CFA_def_cfa_register: RBP
  DW_CFA_advance_loc: 16
  DW_CFA_offset: RBX -56
  DW_CFA_offset: R12 -48
  DW_CFA_offset: R13 -40
  DW_CFA_offset: R14 -32
  DW_CFA_offset: R15 -24
  DW_CFA_advance_loc1: 235
  DW_CFA_def_cfa: RSP +8
  DW_CFA_nop:
  DW_CFA_nop:
  DW_CFA_nop:

  0xeac70: CFA=RSP+8: RIP=[CFA-8]
  0xeac71: CFA=RSP+16: RBP=[CFA-16], RIP=[CFA-8]
  0xeac74: CFA=RBP+16: RBP=[CFA-16], RIP=[CFA-8]
  0xeac84: CFA=RBP+16: RBX=[CFA-56], RBP=[CFA-16], R12=[CFA-48], R13=[CFA-40], R14=[CFA-32], R15=[CFA-24], RIP=[CFA-8]
  0xead6f: CFA=RSP+8: RBX=[CFA-56], RBP=[CFA-16], R12=[CFA-48], R13=[CFA-40], R14=[CFA-32], R15=[CFA-24], RIP=[CFA-8]

000011b0 0000001c 000011b4 FDE cie=00000000 pc=000ead70...000ead97
  Format:       DWARF32
  DW_CFA_advance_loc: 1
  DW_CFA_def_cfa_offset: +16
  DW_CFA_offset: RBP -16
  DW_CFA_advance_loc: 3
  DW_CFA_def_cfa_register: RBP
  DW_CFA_advance_loc: 34
  DW_CFA_def_cfa: RSP +8
  DW_CFA_nop:
  DW_CFA_nop:
  DW_CFA_nop:

  0xead70: CFA=RSP+8: RIP=[CFA-8]
  0xead71: CFA=RSP+16: RBP=[CFA-16], RIP=[CFA-8]
  0xead74: CFA=RBP+16: RBP=[CFA-16], RIP=[CFA-8]
  0xead96: CFA=RSP+8: RBP=[CFA-16], RIP=[CFA-8]

000011d0 0000001c 000011d4 FDE cie=00000000 pc=000eada0...000eadf8
  Format:       DWARF32
  DW_CFA_advance_loc: 1
  DW_CFA_def_cfa_offset: +16
  DW_CFA_offset: RBP -16
  DW_CFA_advance_loc: 3
  DW_CFA_def_cfa_register: RBP
  DW_CFA_advance_loc1: 83
  DW_CFA_def_cfa: RSP +8
  DW_CFA_nop:
  DW_CFA_nop:

  0xeada0: CFA=RSP+8: RIP=[CFA-8]
  0xeada1: CFA=RSP+16: RBP=[CFA-16], RIP=[CFA-8]
  0xeada4: CFA=RBP+16: RBP=[CFA-16], RIP=[CFA-8]
  0xeadf7: CFA=RSP+8: RBP=[CFA-16], RIP=[CFA-8]

000011f0 0000001c 000011f4 FDE cie=00000000 pc=000eae00...000eae10
  Format:       DWARF32
  DW_CFA_advance_loc: 1
  DW_CFA_def_cfa_offset: +16
  DW_CFA_offset: RBP -16
  DW_CFA_advance_loc: 3
  DW_CFA_def_cfa_register: RBP
  DW_CFA_advance_loc: 11
  DW_CFA_def_cfa: RSP +8
  DW_CFA_nop:
  DW_CFA_nop:
  DW_CFA_nop:

  0xeae00: CFA=RSP+8: RIP=[CFA-8]
  0xeae01: CFA=RSP+16: RBP=[CFA-16], RIP=[CFA-8]
  0xeae04: CFA=RBP+16: RBP=[CFA-16], RIP=[CFA-8]
  0xeae0f: CFA=RSP+8: RBP=[CFA-16], RIP=[CFA-8]

00001210 00000020 00001214 FDE cie=00000000 pc=000eae10...000eae97
  Format:       DWARF32
  DW_CFA_advance_loc: 1
  DW_CFA_def_cfa_offset: +16
  DW_CFA_offset: RBP -16
  DW_CFA_advance_loc: 3
  DW_CFA_def_cfa_register: RBP
  DW_CFA_advance_loc: 5
  DW_CFA_offset: RBX -24
  DW_CFA_advance_loc1: 125
  DW_CFA_def_cfa: RSP +8
  DW_CFA_nop:
  DW_CFA_nop:
  DW_CFA_nop:

  0xeae10: CFA=RSP+8: RIP=[CFA-8]
  0xeae11: CFA=RSP+16: RBP=[CFA-16], RIP=[CFA-8]
  0xeae14: CFA=RBP+16: RBP=[CFA-16], RIP=[CFA-8]
  0xeae19: CFA=RBP+16: RBX=[CFA-24], RBP=[CFA-16], RIP=[CFA-8]
  0xeae96: CFA=RSP+8: RBX=[CFA-24], RBP=[CFA-16], RIP=[CFA-8]

00001234 0000001c 00001238 FDE cie=00000000 pc=000eaea0...000eaecb
  Format:       DWARF32
  DW_CFA_advance_loc: 1
  DW_CFA_def_cfa_offset: +16
  DW_CFA_offset: RBP -16
  DW_CFA_advance_loc: 3
  DW_CFA_def_cfa_register: RBP
  DW_CFA_advance_loc: 38
  DW_CFA_def_cfa: RSP +8
  DW_CFA_nop:
  DW_CFA_nop:
  DW_CFA_nop:

  0xeaea0: CFA=RSP+8: RIP=[CFA-8]
  0xeaea1: CFA=RSP+16: RBP=[CFA-16], RIP=[CFA-8]
  0xeaea4: CFA=RBP+16: RBP=[CFA-16], RIP=[CFA-8]
  0xeaeca: CFA=RSP+8: RBP=[CFA-16], RIP=[CFA-8]

00001254 0000001c 00001258 FDE cie=00000000 pc=000eaed0...000eb011
  Format:       DWARF32
  DW_CFA_advance_loc: 1
  DW_CFA_def_cfa_offset: +16
  DW_CFA_offset: RBP -16
  DW_CFA_advance_loc: 3
  DW_CFA_def_cfa_register: RBP
  DW_CFA_advance_loc2: 316
  DW_CFA_def_cfa: RSP +8
  DW_CFA_nop:

  0xeaed0: CFA=RSP+8: RIP=[CFA-8]
  0xeaed1: CFA=RSP+16: RBP=[CFA-16], RIP=[CFA-8]
  0xeaed4: CFA=RBP+16: RBP=[CFA-16], RIP=[CFA-8]
  0xeb010: CFA=RSP+8: RBP=[CFA-16], RIP=[CFA-8]

00001274 0000001c 00001278 FDE cie=00000000 pc=000eb020...000eb045
  Format:       DWARF32
  DW_CFA_advance_loc: 1
  DW_CFA_def_cfa_offset: +16
  DW_CFA_offset: RBP -16
  DW_CFA_advance_loc: 3
  DW_CFA_def_cfa_register: RBP
  DW_CFA_advance_loc: 32
  DW_CFA_def_cfa: RSP +8
  DW_CFA_nop:
  DW_CFA_nop:
  DW_CFA_nop:

  0xeb020: CFA=RSP+8: RIP=[CFA-8]
  0xeb021: CFA=RSP+16: RBP=[CFA-16], RIP=[CFA-8]
  0xeb024: CFA=RBP+16: RBP=[CFA-16], RIP=[CFA-8]
  0xeb044: CFA=RSP+8: RBP=[CFA-16], RIP=[CFA-8]

00001294 00000024 00001298 FDE cie=00000000 pc=000eb050...000eb110
  Format:       DWARF32
  DW_CFA_advance_loc: 1
  DW_CFA_def_cfa_offset: +16
  DW_CFA_offset: RBP -16
  DW_CFA_advance_loc: 3
  DW_CFA_def_cfa_register: RBP
  DW_CFA_advance_loc: 11
  DW_CFA_offset: RBX -48
  DW_CFA_offset: R12 -40
  DW_CFA_offset: R14 -32
  DW_CFA_offset: R15 -24
  DW_CFA_advance_loc1: 176
  DW_CFA_def_cfa: RSP +8
  DW_CFA_nop:

  0xeb050: CFA=RSP+8: RIP=[CFA-8]
  0xeb051: CFA=RSP+16: RBP=[CFA-16], RIP=[CFA-8]
  0xeb054: CFA=RBP+16: RBP=[CFA-16], RIP=[CFA-8]
  0xeb05f: CFA=RBP+16: RBX=[CFA-48], RBP=[CFA-16], R12=[CFA-40], R14=[CFA-32], R15=[CFA-24], RIP=[CFA-8]
  0xeb10f: CFA=RSP+8: RBX=[CFA-48], RBP=[CFA-16], R12=[CFA-40], R14=[CFA-32], R15=[CFA-24], RIP=[CFA-8]

000012bc 0000001c 000012c0 FDE cie=00000000 pc=000eb110...000eb133
  Format:       DWARF32
  DW_CFA_advance_loc: 1
  DW_CFA_def_cfa_offset: +16
  DW_CFA_offset: RBP -16
  DW_CFA_advance_loc: 3
  DW_CFA_def_cfa_register: RBP
  DW_CFA_advance_loc: 30
  DW_CFA_def_cfa: RSP +8
  DW_CFA_nop:
  DW_CFA_nop:
  DW_CFA_nop:

  0xeb110: CFA=RSP+8: RIP=[CFA-8]
  0xeb111: CFA=RSP+16: RBP=[CFA-16], RIP=[CFA-8]
  0xeb114: CFA=RBP+16: RBP=[CFA-16], RIP=[CFA-8]
  0xeb132: CFA=RSP+8: RBP=[CFA-16], RIP=[CFA-8]

000012dc 00000028 000012e0 FDE cie=00000000 pc=000eb140...000eb240
  Format:       DWARF32
  DW_CFA_advance_loc: 1
  DW_CFA_def_cfa_offset: +16
  DW_CFA_offset: RBP -16
  DW_CFA_advance_loc: 3
  DW_CFA_def_cfa_register: RBP
  DW_CFA_advance_loc: 16
  DW_CFA_offset: RBX -56
  DW_CFA_offset: R12 -48
  DW_CFA_offset: R13 -40
  DW_CFA_offset: R14 -32
  DW_CFA_offset: R15 -24
  DW_CFA_advance_loc1: 235
  DW_CFA_def_cfa: RSP +8
  DW_CFA_nop:
  DW_CFA_nop:
  DW_CFA_nop:

  0xeb140: CFA=RSP+8: RIP=[CFA-8]
  0xeb141: CFA=RSP+16: RBP=[CFA-16], RIP=[CFA-8]
  0xeb144: CFA=RBP+16: RBP=[CFA-16], RIP=[CFA-8]
  0xeb154: CFA=RBP+16: RBX=[CFA-56], RBP=[CFA-16], R12=[CFA-48], R13=[CFA-40], R14=[CFA-32], R15=[CFA-24], RIP=[CFA-8]
  0xeb23f: CFA=RSP+8: RBX=[CFA-56], RBP=[CFA-16], R12=[CFA-48], R13=[CFA-40], R14=[CFA-32], R15=[CFA-24], RIP=[CFA-8]

00001308 0000001c 0000130c FDE cie=00000000 pc=000eb240...000eb255
  Format:       DWARF32
  DW_CFA_advance_loc: 1
  DW_CFA_def_cfa_offset: +16
  DW_CFA_offset: RBP -16
  DW_CFA_advance_loc: 3
  DW_CFA_def_cfa_register: RBP
  DW_CFA_advance_loc: 16
  DW_CFA_def_cfa: RSP +8
  DW_CFA_nop:
  DW_CFA_nop:
  DW_CFA_nop:

  0xeb240: CFA=RSP+8: RIP=[CFA-8]
  0xeb241: CFA=RSP+16: RBP=[CFA-16], RIP=[CFA-8]
  0xeb244: CFA=RBP+16: RBP=[CFA-16], RIP=[CFA-8]
  0xeb254: CFA=RSP+8: RBP=[CFA-16], RIP=[CFA-8]

00001328 00000028 0000132c FDE cie=00000000 pc=000eb260...000eb349
  Format:       DWARF32
  DW_CFA_advance_loc: 1
  DW_CFA_def_cfa_offset: +16
  DW_CFA_offset: RBP -16
  DW_CFA_advance_loc: 3
  DW_CFA_def_cfa_register: RBP
  DW_CFA_advance_loc: 16
  DW_CFA_offset: RBX -56
  DW_CFA_offset: R12 -48
  DW_CFA_offset: R13 -40
  DW_CFA_offset: R14 -32
  DW_CFA_offset: R15 -24
  DW_CFA_advance_loc1: 212
  DW_CFA_def_cfa: RSP +8
  DW_CFA_nop:
  DW_CFA_nop:
  DW_CFA_nop:

  0xeb260: CFA=RSP+8: RIP=[CFA-8]
  0xeb261: CFA=RSP+16: RBP=[CFA-16], RIP=[CFA-8]
  0xeb264: CFA=RBP+16: RBP=[CFA-16], RIP=[CFA-8]
  0xeb274: CFA=RBP+16: RBX=[CFA-56], RBP=[CFA-16], R12=[CFA-48], R13=[CFA-40], R14=[CFA-32], R15=[CFA-24], RIP=[CFA-8]
  0xeb348: CFA=RSP+8: RBX=[CFA-56], RBP=[CFA-16], R12=[CFA-48], R13=[CFA-40], R14=[CFA-32], R15=[CFA-24], RIP=[CFA-8]

00001354 0000001c 00001358 FDE cie=00000000 pc=000eb350...000eb3dc
  Format:       DWARF32
  DW_CFA_advance_loc: 1
  DW_CFA_def_cfa_offset: +16
  DW_CFA_offset: RBP -16
  DW_CFA_advance_loc: 3
  DW_CFA_def_cfa_register: RBP
  DW_CFA_advance_loc1: 135
  DW_CFA_def_cfa: RSP +8
  DW_CFA_nop:
  DW_CFA_nop:

  0xeb350: CFA=RSP+8: RIP=[CFA-8]
  0xeb351: CFA=RSP+16: RBP=[CFA-16], RIP=[CFA-8]
  0xeb354: CFA=RBP+16: RBP=[CFA-16], RIP=[CFA-8]
  0xeb3db: CFA=RSP+8: RBP=[CFA-16], RIP=[CFA-8]

00001374 0000001c 00001378 FDE cie=00000000 pc=000eb3e0...000eb403
  Format:       DWARF32
  DW_CFA_advance_loc: 1
  DW_CFA_def_cfa_offset: +16
  DW_CFA_offset: RBP -16
  DW_CFA_advance_loc: 3
  DW_CFA_def_cfa_register: RBP
  DW_CFA_advance_loc: 30
  DW_CFA_def_cfa: RSP +8
  DW_CFA_nop:
  DW_CFA_nop:
  DW_CFA_nop:

  0xeb3e0: CFA=RSP+8: RIP=[CFA-8]
  0xeb3e1: CFA=RSP+16: RBP=[CFA-16], RIP=[CFA-8]
  0xeb3e4: CFA=RBP+16: RBP=[CFA-16], RIP=[CFA-8]
  0xeb402: CFA=RSP+8: RBP=[CFA-16], RIP=[CFA-8]

00001394 0000001c 00001398 FDE cie=00000000 pc=000eb410...000eb519
  Format:       DWARF32
  DW_CFA_advance_loc: 1
  DW_CFA_def_cfa_offset: +16
  DW_CFA_offset: RBP -16
  DW_CFA_advance_loc: 3
  DW_CFA_def_cfa_register: RBP
  DW_CFA_advance_loc2: 260
  DW_CFA_def_cfa: RSP +8
  DW_CFA_nop:

  0xeb410: CFA=RSP+8: RIP=[CFA-8]
  0xeb411: CFA=RSP+16: RBP=[CFA-16], RIP=[CFA-8]
  0xeb414: CFA=RBP+16: RBP=[CFA-16], RIP=[CFA-8]
  0xeb518: CFA=RSP+8: RBP=[CFA-16], RIP=[CFA-8]

000013b4 0000001c 000013b8 FDE cie=00000000 pc=000eb520...000eb547
  Format:       DWARF32
  DW_CFA_advance_loc: 1
  DW_CFA_def_cfa_offset: +16
  DW_CFA_offset: RBP -16
  DW_CFA_advance_loc: 3
  DW_CFA_def_cfa_register: RBP
  DW_CFA_advance_loc: 34
  DW_CFA_def_cfa: RSP +8
  DW_CFA_nop:
  DW_CFA_nop:
  DW_CFA_nop:

  0xeb520: CFA=RSP+8: RIP=[CFA-8]
  0xeb521: CFA=RSP+16: RBP=[CFA-16], RIP=[CFA-8]
  0xeb524: CFA=RBP+16: RBP=[CFA-16], RIP=[CFA-8]
  0xeb546: CFA=RSP+8: RBP=[CFA-16], RIP=[CFA-8]

000013d4 00000028 000013d8 FDE cie=00000000 pc=000eb550...000eb69c
  Format:       DWARF32
  DW_CFA_advance_loc: 1
  DW_CFA_def_cfa_offset: +16
  DW_CFA_offset: RBP -16
  DW_CFA_advance_loc: 3
  DW_CFA_def_cfa_register: RBP
  DW_CFA_advance_loc: 16
  DW_CFA_offset: RBX -56
  DW_CFA_offset: R12 -48
  DW_CFA_offset: R13 -40
  DW_CFA_offset: R14 -32
  DW_CFA_offset: R15 -24
  DW_CFA_advance_loc2: 311
  DW_CFA_def_cfa: RSP +8
  DW_CFA_nop:
  DW_CFA_nop:

  0xeb550: CFA=RSP+8: RIP=[CFA-8]
  0xeb551: CFA=RSP+16: RBP=[CFA-16], RIP=[CFA-8]
  0xeb554: CFA=RBP+16: RBP=[CFA-16], RIP=[CFA-8]
  0xeb564: CFA=RBP+16: RBX=[CFA-56], RBP=[CFA-16], R12=[CFA-48], R13=[CFA-40], R14=[CFA-32], R15=[CFA-24], RIP=[CFA-8]
  0xeb69b: CFA=RSP+8: RBX=[CFA-56], RBP=[CFA-16], R12=[CFA-48], R13=[CFA-40], R14=[CFA-32], R15=[CFA-24], RIP=[CFA-8]

00001400 0000001c 00001404 FDE cie=00000000 pc=000eb6a0...000eb6bb
  Format:       DWARF32
  DW_CFA_advance_loc: 1
  DW_CFA_def_cfa_offset: +16
  DW_CFA_offset: RBP -16
  DW_CFA_advance_loc: 3
  DW_CFA_def_cfa_register: RBP
  DW_CFA_advance_loc: 22
  DW_CFA_def_cfa: RSP +8
  DW_CFA_nop:
  DW_CFA_nop:
  DW_CFA_nop:

  0xeb6a0: CFA=RSP+8: RIP=[CFA-8]
  0xeb6a1: CFA=RSP+16: RBP=[CFA-16], RIP=[CFA-8]
  0xeb6a4: CFA=RBP+16: RBP=[CFA-16], RIP=[CFA-8]
  0xeb6ba: CFA=RSP+8: RBP=[CFA-16], RIP=[CFA-8]

00001420 00000024 00001424 FDE cie=00000000 pc=000eb6c0...000eb775
  Format:       DWARF32
  DW_CFA_advance_loc: 1
  DW_CFA_def_cfa_offset: +16
  DW_CFA_offset: RBP -16
  DW_CFA_advance_loc: 3
  DW_CFA_def_cfa_register: RBP
  DW_CFA_advance_loc: 9
  DW_CFA_offset: RBX -40
  DW_CFA_offset: R14 -32
  DW_CFA_offset: R15 -24
  DW_CFA_advance_loc1: 167
  DW_CFA_def_cfa: RSP +8
  DW_CFA_nop:
  DW_CFA_nop:
  DW_CFA_nop:

  0xeb6c0: CFA=RSP+8: RIP=[CFA-8]
  0xeb6c1: CFA=RSP+16: RBP=[CFA-16], RIP=[CFA-8]
  0xeb6c4: CFA=RBP+16: RBP=[CFA-16], RIP=[CFA-8]
  0xeb6cd: CFA=RBP+16: RBX=[CFA-40], RBP=[CFA-16], R14=[CFA-32], R15=[CFA-24], RIP=[CFA-8]
  0xeb774: CFA=RSP+8: RBX=[CFA-40], RBP=[CFA-16], R14=[CFA-32], R15=[CFA-24], RIP=[CFA-8]

00001448 0000001c 0000144c FDE cie=00000000 pc=000eb780...000eb791
  Format:       DWARF32
  DW_CFA_advance_loc: 1
  DW_CFA_def_cfa_offset: +16
  DW_CFA_offset: RBP -16
  DW_CFA_advance_loc: 3
  DW_CFA_def_cfa_register: RBP
  DW_CFA_advance_loc: 12
  DW_CFA_def_cfa: RSP +8
  DW_CFA_nop:
  DW_CFA_nop:
  DW_CFA_nop:

  0xeb780: CFA=RSP+8: RIP=[CFA-8]
  0xeb781: CFA=RSP+16: RBP=[CFA-16], RIP=[CFA-8]
  0xeb784: CFA=RBP+16: RBP=[CFA-16], RIP=[CFA-8]
  0xeb790: CFA=RSP+8: RBP=[CFA-16], RIP=[CFA-8]

00001468 00000020 0000146c FDE cie=00000000 pc=000eb7a0...000eb827
  Format:       DWARF32
  DW_CFA_advance_loc: 1
  DW_CFA_def_cfa_offset: +16
  DW_CFA_offset: RBP -16
  DW_CFA_advance_loc: 3
  DW_CFA_def_cfa_register: RBP
  DW_CFA_advance_loc: 5
  DW_CFA_offset: RBX -24
  DW_CFA_advance_loc1: 125
  DW_CFA_def_cfa: RSP +8
  DW_CFA_nop:
  DW_CFA_nop:
  DW_CFA_nop:

  0xeb7a0: CFA=RSP+8: RIP=[CFA-8]
  0xeb7a1: CFA=RSP+16: RBP=[CFA-16], RIP=[CFA-8]
  0xeb7a4: CFA=RBP+16: RBP=[CFA-16], RIP=[CFA-8]
  0xeb7a9: CFA=RBP+16: RBX=[CFA-24], RBP=[CFA-16], RIP=[CFA-8]
  0xeb826: CFA=RSP+8: RBX=[CFA-24], RBP=[CFA-16], RIP=[CFA-8]

0000148c 0000001c 00001490 FDE cie=00000000 pc=000eb830...000eb841
  Format:       DWARF32
  DW_CFA_advance_loc: 1
  DW_CFA_def_cfa_offset: +16
  DW_CFA_offset: RBP -16
  DW_CFA_advance_loc: 3
  DW_CFA_def_cfa_register: RBP
  DW_CFA_advance_loc: 12
  DW_CFA_def_cfa: RSP +8
  DW_CFA_nop:
  DW_CFA_nop:
  DW_CFA_nop:

  0xeb830: CFA=RSP+8: RIP=[CFA-8]
  0xeb831: CFA=RSP+16: RBP=[CFA-16], RIP=[CFA-8]
  0xeb834: CFA=RBP+16: RBP=[CFA-16], RIP=[CFA-8]
  0xeb840: CFA=RSP+8: RBP=[CFA-16], RIP=[CFA-8]

000014ac 00000020 000014b0 FDE cie=00000000 pc=000eb850...000eb8d7
  Format:       DWARF32
  DW_CFA_advance_loc: 1
  DW_CFA_def_cfa_offset: +16
  DW_CFA_offset: RBP -16
  DW_CFA_advance_loc: 3
  DW_CFA_def_cfa_register: RBP
  DW_CFA_advance_loc: 5
  DW_CFA_offset: RBX -24
  DW_CFA_advance_loc1: 125
  DW_CFA_def_cfa: RSP +8
  DW_CFA_nop:
  DW_CFA_nop:
  DW_CFA_nop:

  0xeb850: CFA=RSP+8: RIP=[CFA-8]
  0xeb851: CFA=RSP+16: RBP=[CFA-16], RIP=[CFA-8]
  0xeb854: CFA=RBP+16: RBP=[CFA-16], RIP=[CFA-8]
  0xeb859: CFA=RBP+16: RBX=[CFA-24], RBP=[CFA-16], RIP=[CFA-8]
  0xeb8d6: CFA=RSP+8: RBX=[CFA-24], RBP=[CFA-16], RIP=[CFA-8]

000014d0 0000001c 000014d4 FDE cie=00000000 pc=000eb8e0...000eb8f5
  Format:       DWARF32
  DW_CFA_advance_loc: 1
  DW_CFA_def_cfa_offset: +16
  DW_CFA_offset: RBP -16
  DW_CFA_advance_loc: 3
  DW_CFA_def_cfa_register: RBP
  DW_CFA_advance_loc: 16
  DW_CFA_def_cfa: RSP +8
  DW_CFA_nop:
  DW_CFA_nop:
  DW_CFA_nop:

  0xeb8e0: CFA=RSP+8: RIP=[CFA-8]
  0xeb8e1: CFA=RSP+16: RBP=[CFA-16], RIP=[CFA-8]
  0xeb8e4: CFA=RBP+16: RBP=[CFA-16], RIP=[CFA-8]
  0xeb8f4: CFA=RSP+8: RBP=[CFA-16], RIP=[CFA-8]

000014f0 00000028 000014f4 FDE cie=00000000 pc=000eb900...000eb9e9
  Format:       DWARF32
  DW_CFA_advance_loc: 1
  DW_CFA_def_cfa_offset: +16
  DW_CFA_offset: RBP -16
  DW_CFA_advance_loc: 3
  DW_CFA_def_cfa_register: RBP
  DW_CFA_advance_loc: 16
  DW_CFA_offset: RBX -56
  DW_CFA_offset: R12 -48
  DW_CFA_offset: R13 -40
  DW_CFA_offset: R14 -32
  DW_CFA_offset: R15 -24
  DW_CFA_advance_loc1: 212
  DW_CFA_def_cfa: RSP +8
  DW_CFA_nop:
  DW_CFA_nop:
  DW_CFA_nop:

  0xeb900: CFA=RSP+8: RIP=[CFA-8]
  0xeb901: CFA=RSP+16: RBP=[CFA-16], RIP=[CFA-8]
  0xeb904: CFA=RBP+16: RBP=[CFA-16], RIP=[CFA-8]
  0xeb914: CFA=RBP+16: RBX=[CFA-56], RBP=[CFA-16], R12=[CFA-48], R13=[CFA-40], R14=[CFA-32], R15=[CFA-24], RIP=[CFA-8]
  0xeb9e8: CFA=RSP+8: RBX=[CFA-56], RBP=[CFA-16], R12=[CFA-48], R13=[CFA-40], R14=[CFA-32], R15=[CFA-24], RIP=[CFA-8]

0000151c 0000001c 00001520 FDE cie=00000000 pc=000eb9f0...000eba0b
  Format:       DWARF32
  DW_CFA_advance_loc: 1
  DW_CFA_def_cfa_offset: +16
  DW_CFA_offset: RBP -16
  DW_CFA_advance_loc: 3
  DW_CFA_def_cfa_register: RBP
  DW_CFA_advance_loc: 22
  DW_CFA_def_cfa: RSP +8
  DW_CFA_nop:
  DW_CFA_nop:
  DW_CFA_nop:

  0xeb9f0: CFA=RSP+8: RIP=[CFA-8]
  0xeb9f1: CFA=RSP+16: RBP=[CFA-16], RIP=[CFA-8]
  0xeb9f4: CFA=RBP+16: RBP=[CFA-16], RIP=[CFA-8]
  0xeba0a: CFA=RSP+8: RBP=[CFA-16], RIP=[CFA-8]

0000153c 00000020 00001540 FDE cie=00000000 pc=000eba10...000eba97
  Format:       DWARF32
  DW_CFA_advance_loc: 1
  DW_CFA_def_cfa_offset: +16
  DW_CFA_offset: RBP -16
  DW_CFA_advance_loc: 3
  DW_CFA_def_cfa_register: RBP
  DW_CFA_advance_loc: 5
  DW_CFA_offset: RBX -24
  DW_CFA_advance_loc1: 125
  DW_CFA_def_cfa: RSP +8
  DW_CFA_nop:
  DW_CFA_nop:
  DW_CFA_nop:

  0xeba10: CFA=RSP+8: RIP=[CFA-8]
  0xeba11: CFA=RSP+16: RBP=[CFA-16], RIP=[CFA-8]
  0xeba14: CFA=RBP+16: RBP=[CFA-16], RIP=[CFA-8]
  0xeba19: CFA=RBP+16: RBX=[CFA-24], RBP=[CFA-16], RIP=[CFA-8]
  0xeba96: CFA=RSP+8: RBX=[CFA-24], RBP=[CFA-16], RIP=[CFA-8]

00001560 0000001c 00001564 FDE cie=00000000 pc=000ebaa0...000ebab9
  Format:       DWARF32
  DW_CFA_advance_loc: 1
  DW_CFA_def_cfa_offset: +16
  DW_CFA_offset: RBP -16
  DW_CFA_advance_loc: 3
  DW_CFA_def_cfa_register: RBP
  DW_CFA_advance_loc: 20
  DW_CFA_def_cfa: RSP +8
  DW_CFA_nop:
  DW_CFA_nop:
  DW_CFA_nop:

  0xebaa0: CFA=RSP+8: RIP=[CFA-8]
  0xebaa1: CFA=RSP+16: RBP=[CFA-16], RIP=[CFA-8]
  0xebaa4: CFA=RBP+16: RBP=[CFA-16], RIP=[CFA-8]
  0xebab8: CFA=RSP+8: RBP=[CFA-16], RIP=[CFA-8]

00001580 00000024 00001584 FDE cie=00000000 pc=000ebac0...000ebb75
  Format:       DWARF32
  DW_CFA_advance_loc: 1
  DW_CFA_def_cfa_offset: +16
  DW_CFA_offset: RBP -16
  DW_CFA_advance_loc: 3
  DW_CFA_def_cfa_register: RBP
  DW_CFA_advance_loc: 9
  DW_CFA_offset: RBX -40
  DW_CFA_offset: R14 -32
  DW_CFA_offset: R15 -24
  DW_CFA_advance_loc1: 167
  DW_CFA_def_cfa: RSP +8
  DW_CFA_nop:
  DW_CFA_nop:
  DW_CFA_nop:

  0xebac0: CFA=RSP+8: RIP=[CFA-8]
  0xebac1: CFA=RSP+16: RBP=[CFA-16], RIP=[CFA-8]
  0xebac4: CFA=RBP+16: RBP=[CFA-16], RIP=[CFA-8]
  0xebacd: CFA=RBP+16: RBX=[CFA-40], RBP=[CFA-16], R14=[CFA-32], R15=[CFA-24], RIP=[CFA-8]
  0xebb74: CFA=RSP+8: RBX=[CFA-40], RBP=[CFA-16], R14=[CFA-32], R15=[CFA-24], RIP=[CFA-8]

000015a8 0000001c 000015ac FDE cie=00000000 pc=000ebb80...000ebb99
  Format:       DWARF32
  DW_CFA_advance_loc: 1
  DW_CFA_def_cfa_offset: +16
  DW_CFA_offset: RBP -16
  DW_CFA_advance_loc: 3
  DW_CFA_def_cfa_register: RBP
  DW_CFA_advance_loc: 20
  DW_CFA_def_cfa: RSP +8
  DW_CFA_nop:
  DW_CFA_nop:
  DW_CFA_nop:

  0xebb80: CFA=RSP+8: RIP=[CFA-8]
  0xebb81: CFA=RSP+16: RBP=[CFA-16], RIP=[CFA-8]
  0xebb84: CFA=RBP+16: RBP=[CFA-16], RIP=[CFA-8]
  0xebb98: CFA=RSP+8: RBP=[CFA-16], RIP=[CFA-8]

000015c8 0000001c 000015cc FDE cie=00000000 pc=000ebba0...000ebca9
  Format:       DWARF32
  DW_CFA_advance_loc: 1
  DW_CFA_def_cfa_offset: +16
  DW_CFA_offset: RBP -16
  DW_CFA_advance_loc: 3
  DW_CFA_def_cfa_register: RBP
  DW_CFA_advance_loc2: 260
  DW_CFA_def_cfa: RSP +8
  DW_CFA_nop:

  0xebba0: CFA=RSP+8: RIP=[CFA-8]
  0xebba1: CFA=RSP+16: RBP=[CFA-16], RIP=[CFA-8]
  0xebba4: CFA=RBP+16: RBP=[CFA-16], RIP=[CFA-8]
  0xebca8: CFA=RSP+8: RBP=[CFA-16], RIP=[CFA-8]

000015e8 0000001c 000015ec FDE cie=00000000 pc=000ebcb0...000ebcdb
  Format:       DWARF32
  DW_CFA_advance_loc: 1
  DW_CFA_def_cfa_offset: +16
  DW_CFA_offset: RBP -16
  DW_CFA_advance_loc: 3
  DW_CFA_def_cfa_register: RBP
  DW_CFA_advance_loc: 38
  DW_CFA_def_cfa: RSP +8
  DW_CFA_nop:
  DW_CFA_nop:
  DW_CFA_nop:

  0xebcb0: CFA=RSP+8: RIP=[CFA-8]
  0xebcb1: CFA=RSP+16: RBP=[CFA-16], RIP=[CFA-8]
  0xebcb4: CFA=RBP+16: RBP=[CFA-16], RIP=[CFA-8]
  0xebcda: CFA=RSP+8: RBP=[CFA-16], RIP=[CFA-8]

00001608 0000001c 0000160c FDE cie=00000000 pc=000ebce0...000ebe21
  Format:       DWARF32
  DW_CFA_advance_loc: 1
  DW_CFA_def_cfa_offset: +16
  DW_CFA_offset: RBP -16
  DW_CFA_advance_loc: 3
  DW_CFA_def_cfa_register: RBP
  DW_CFA_advance_loc2: 316
  DW_CFA_def_cfa: RSP +8
  DW_CFA_nop:

  0xebce0: CFA=RSP+8: RIP=[CFA-8]
  0xebce1: CFA=RSP+16: RBP=[CFA-16], RIP=[CFA-8]
  0xebce4: CFA=RBP+16: RBP=[CFA-16], RIP=[CFA-8]
  0xebe20: CFA=RSP+8: RBP=[CFA-16], RIP=[CFA-8]

00001628 0000001c 0000162c FDE cie=00000000 pc=000ebe30...000ebe41
  Format:       DWARF32
  DW_CFA_advance_loc: 1
  DW_CFA_def_cfa_offset: +16
  DW_CFA_offset: RBP -16
  DW_CFA_advance_loc: 3
  DW_CFA_def_cfa_register: RBP
  DW_CFA_advance_loc: 12
  DW_CFA_def_cfa: RSP +8
  DW_CFA_nop:
  DW_CFA_nop:
  DW_CFA_nop:

  0xebe30: CFA=RSP+8: RIP=[CFA-8]
  0xebe31: CFA=RSP+16: RBP=[CFA-16], RIP=[CFA-8]
  0xebe34: CFA=RBP+16: RBP=[CFA-16], RIP=[CFA-8]
  0xebe40: CFA=RSP+8: RBP=[CFA-16], RIP=[CFA-8]

00001648 00000020 0000164c FDE cie=00000000 pc=000ebe50...000ebed5
  Format:       DWARF32
  DW_CFA_advance_loc: 1
  DW_CFA_def_cfa_offset: +16
  DW_CFA_offset: RBP -16
  DW_CFA_advance_loc: 3
  DW_CFA_def_cfa_register: RBP
  DW_CFA_advance_loc: 5
  DW_CFA_offset: RBX -24
  DW_CFA_advance_loc1: 123
  DW_CFA_def_cfa: RSP +8
  DW_CFA_nop:
  DW_CFA_nop:
  DW_CFA_nop:

  0xebe50: CFA=RSP+8: RIP=[CFA-8]
  0xebe51: CFA=RSP+16: RBP=[CFA-16], RIP=[CFA-8]
  0xebe54: CFA=RBP+16: RBP=[CFA-16], RIP=[CFA-8]
  0xebe59: CFA=RBP+16: RBX=[CFA-24], RBP=[CFA-16], RIP=[CFA-8]
  0xebed4: CFA=RSP+8: RBX=[CFA-24], RBP=[CFA-16], RIP=[CFA-8]

0000166c 0000001c 00001670 FDE cie=00000000 pc=000ebee0...000ebf07
  Format:       DWARF32
  DW_CFA_advance_loc: 1
  DW_CFA_def_cfa_offset: +16
  DW_CFA_offset: RBP -16
  DW_CFA_advance_loc: 3
  DW_CFA_def_cfa_register: RBP
  DW_CFA_advance_loc: 34
  DW_CFA_def_cfa: RSP +8
  DW_CFA_nop:
  DW_CFA_nop:
  DW_CFA_nop:

  0xebee0: CFA=RSP+8: RIP=[CFA-8]
  0xebee1: CFA=RSP+16: RBP=[CFA-16], RIP=[CFA-8]
  0xebee4: CFA=RBP+16: RBP=[CFA-16], RIP=[CFA-8]
  0xebf06: CFA=RSP+8: RBP=[CFA-16], RIP=[CFA-8]

0000168c 0000001c 00001690 FDE cie=00000000 pc=000ebf10...000ec019
  Format:       DWARF32
  DW_CFA_advance_loc: 1
  DW_CFA_def_cfa_offset: +16
  DW_CFA_offset: RBP -16
  DW_CFA_advance_loc: 3
  DW_CFA_def_cfa_register: RBP
  DW_CFA_advance_loc2: 260
  DW_CFA_def_cfa: RSP +8
  DW_CFA_nop:

  0xebf10: CFA=RSP+8: RIP=[CFA-8]
  0xebf11: CFA=RSP+16: RBP=[CFA-16], RIP=[CFA-8]
  0xebf14: CFA=RBP+16: RBP=[CFA-16], RIP=[CFA-8]
  0xec018: CFA=RSP+8: RBP=[CFA-16], RIP=[CFA-8]

000016ac 0000001c 000016b0 FDE cie=00000000 pc=000ec020...000ec047
  Format:       DWARF32
  DW_CFA_advance_loc: 1
  DW_CFA_def_cfa_offset: +16
  DW_CFA_offset: RBP -16
  DW_CFA_advance_loc: 3
  DW_CFA_def_cfa_register: RBP
  DW_CFA_advance_loc: 34
  DW_CFA_def_cfa: RSP +8
  DW_CFA_nop:
  DW_CFA_nop:
  DW_CFA_nop:

  0xec020: CFA=RSP+8: RIP=[CFA-8]
  0xec021: CFA=RSP+16: RBP=[CFA-16], RIP=[CFA-8]
  0xec024: CFA=RBP+16: RBP=[CFA-16], RIP=[CFA-8]
  0xec046: CFA=RSP+8: RBP=[CFA-16], RIP=[CFA-8]

000016cc 00000028 000016d0 FDE cie=00000000 pc=000ec050...000ec15f
  Format:       DWARF32
  DW_CFA_advance_loc: 1
  DW_CFA_def_cfa_offset: +16
  DW_CFA_offset: RBP -16
  DW_CFA_advance_loc: 3
  DW_CFA_def_cfa_register: RBP
  DW_CFA_advance_loc: 16
  DW_CFA_offset: RBX -56
  DW_CFA_offset: R12 -48
  DW_CFA_offset: R13 -40
  DW_CFA_offset: R14 -32
  DW_CFA_offset: R15 -24
  DW_CFA_advance_loc1: 250
  DW_CFA_def_cfa: RSP +8
  DW_CFA_nop:
  DW_CFA_nop:
  DW_CFA_nop:

  0xec050: CFA=RSP+8: RIP=[CFA-8]
  0xec051: CFA=RSP+16: RBP=[CFA-16], RIP=[CFA-8]
  0xec054: CFA=RBP+16: RBP=[CFA-16], RIP=[CFA-8]
  0xec064: CFA=RBP+16: RBX=[CFA-56], RBP=[CFA-16], R12=[CFA-48], R13=[CFA-40], R14=[CFA-32], R15=[CFA-24], RIP=[CFA-8]
  0xec15e: CFA=RSP+8: RBX=[CFA-56], RBP=[CFA-16], R12=[CFA-48], R13=[CFA-40], R14=[CFA-32], R15=[CFA-24], RIP=[CFA-8]

000016f8 0000001c 000016fc FDE cie=00000000 pc=000ec160...000ec179
  Format:       DWARF32
  DW_CFA_advance_loc: 1
  DW_CFA_def_cfa_offset: +16
  DW_CFA_offset: RBP -16
  DW_CFA_advance_loc: 3
  DW_CFA_def_cfa_register: RBP
  DW_CFA_advance_loc: 20
  DW_CFA_def_cfa: RSP +8
  DW_CFA_nop:
  DW_CFA_nop:
  DW_CFA_nop:

  0xec160: CFA=RSP+8: RIP=[CFA-8]
  0xec161: CFA=RSP+16: RBP=[CFA-16], RIP=[CFA-8]
  0xec164: CFA=RBP+16: RBP=[CFA-16], RIP=[CFA-8]
  0xec178: CFA=RSP+8: RBP=[CFA-16], RIP=[CFA-8]

00001718 00000024 0000171c FDE cie=00000000 pc=000ec180...000ec240
  Format:       DWARF32
  DW_CFA_advance_loc: 1
  DW_CFA_def_cfa_offset: +16
  DW_CFA_offset: RBP -16
  DW_CFA_advance_loc: 3
  DW_CFA_def_cfa_register: RBP
  DW_CFA_advance_loc: 11
  DW_CFA_offset: RBX -48
  DW_CFA_offset: R12 -40
  DW_CFA_offset: R14 -32
  DW_CFA_offset: R15 -24
  DW_CFA_advance_loc1: 176
  DW_CFA_def_cfa: RSP +8
  DW_CFA_nop:

  0xec180: CFA=RSP+8: RIP=[CFA-8]
  0xec181: CFA=RSP+16: RBP=[CFA-16], RIP=[CFA-8]
  0xec184: CFA=RBP+16: RBP=[CFA-16], RIP=[CFA-8]
  0xec18f: CFA=RBP+16: RBX=[CFA-48], RBP=[CFA-16], R12=[CFA-40], R14=[CFA-32], R15=[CFA-24], RIP=[CFA-8]
  0xec23f: CFA=RSP+8: RBX=[CFA-48], RBP=[CFA-16], R12=[CFA-40], R14=[CFA-32], R15=[CFA-24], RIP=[CFA-8]

00001740 0000001c 00001744 FDE cie=00000000 pc=000ec240...000ec269
  Format:       DWARF32
  DW_CFA_advance_loc: 1
  DW_CFA_def_cfa_offset: +16
  DW_CFA_offset: RBP -16
  DW_CFA_advance_loc: 3
  DW_CFA_def_cfa_register: RBP
  DW_CFA_advance_loc: 36
  DW_CFA_def_cfa: RSP +8
  DW_CFA_nop:
  DW_CFA_nop:
  DW_CFA_nop:

  0xec240: CFA=RSP+8: RIP=[CFA-8]
  0xec241: CFA=RSP+16: RBP=[CFA-16], RIP=[CFA-8]
  0xec244: CFA=RBP+16: RBP=[CFA-16], RIP=[CFA-8]
  0xec268: CFA=RSP+8: RBP=[CFA-16], RIP=[CFA-8]

00001760 00000020 00001764 FDE cie=00000000 pc=000ec270...000ec2f7
  Format:       DWARF32
  DW_CFA_advance_loc: 1
  DW_CFA_def_cfa_offset: +16
  DW_CFA_offset: RBP -16
  DW_CFA_advance_loc: 3
  DW_CFA_def_cfa_register: RBP
  DW_CFA_advance_loc: 5
  DW_CFA_offset: RBX -24
  DW_CFA_advance_loc1: 125
  DW_CFA_def_cfa: RSP +8
  DW_CFA_nop:
  DW_CFA_nop:
  DW_CFA_nop:

  0xec270: CFA=RSP+8: RIP=[CFA-8]
  0xec271: CFA=RSP+16: RBP=[CFA-16], RIP=[CFA-8]
  0xec274: CFA=RBP+16: RBP=[CFA-16], RIP=[CFA-8]
  0xec279: CFA=RBP+16: RBX=[CFA-24], RBP=[CFA-16], RIP=[CFA-8]
  0xec2f6: CFA=RSP+8: RBX=[CFA-24], RBP=[CFA-16], RIP=[CFA-8]

00001784 0000001c 00001788 FDE cie=00000000 pc=000ec300...000ec327
  Format:       DWARF32
  DW_CFA_advance_loc: 1
  DW_CFA_def_cfa_offset: +16
  DW_CFA_offset: RBP -16
  DW_CFA_advance_loc: 3
  DW_CFA_def_cfa_register: RBP
  DW_CFA_advance_loc: 34
  DW_CFA_def_cfa: RSP +8
  DW_CFA_nop:
  DW_CFA_nop:
  DW_CFA_nop:

  0xec300: CFA=RSP+8: RIP=[CFA-8]
  0xec301: CFA=RSP+16: RBP=[CFA-16], RIP=[CFA-8]
  0xec304: CFA=RBP+16: RBP=[CFA-16], RIP=[CFA-8]
  0xec326: CFA=RSP+8: RBP=[CFA-16], RIP=[CFA-8]

000017a4 0000001c 000017a8 FDE cie=00000000 pc=000ec330...000ec471
  Format:       DWARF32
  DW_CFA_advance_loc: 1
  DW_CFA_def_cfa_offset: +16
  DW_CFA_offset: RBP -16
  DW_CFA_advance_loc: 3
  DW_CFA_def_cfa_register: RBP
  DW_CFA_advance_loc2: 316
  DW_CFA_def_cfa: RSP +8
  DW_CFA_nop:

  0xec330: CFA=RSP+8: RIP=[CFA-8]
  0xec331: CFA=RSP+16: RBP=[CFA-16], RIP=[CFA-8]
  0xec334: CFA=RBP+16: RBP=[CFA-16], RIP=[CFA-8]
  0xec470: CFA=RSP+8: RBP=[CFA-16], RIP=[CFA-8]

000017c4 0000001c 000017c8 FDE cie=00000000 pc=000ec480...000ec4a7
  Format:       DWARF32
  DW_CFA_advance_loc: 1
  DW_CFA_def_cfa_offset: +16
  DW_CFA_offset: RBP -16
  DW_CFA_advance_loc: 3
  DW_CFA_def_cfa_register: RBP
  DW_CFA_advance_loc: 34
  DW_CFA_def_cfa: RSP +8
  DW_CFA_nop:
  DW_CFA_nop:
  DW_CFA_nop:

  0xec480: CFA=RSP+8: RIP=[CFA-8]
  0xec481: CFA=RSP+16: RBP=[CFA-16], RIP=[CFA-8]
  0xec484: CFA=RBP+16: RBP=[CFA-16], RIP=[CFA-8]
  0xec4a6: CFA=RSP+8: RBP=[CFA-16], RIP=[CFA-8]

000017e4 00000028 000017e8 FDE cie=00000000 pc=000ec4b0...000ec6ba
  Format:       DWARF32
  DW_CFA_advance_loc: 1
  DW_CFA_def_cfa_offset: +16
  DW_CFA_offset: RBP -16
  DW_CFA_advance_loc: 3
  DW_CFA_def_cfa_register: RBP
  DW_CFA_advance_loc: 16
  DW_CFA_offset: RBX -56
  DW_CFA_offset: R12 -48
  DW_CFA_offset: R13 -40
  DW_CFA_offset: R14 -32
  DW_CFA_offset: R15 -24
  DW_CFA_advance_loc2: 501
  DW_CFA_def_cfa: RSP +8
  DW_CFA_nop:
  DW_CFA_nop:

  0xec4b0: CFA=RSP+8: RIP=[CFA-8]
  0xec4b1: CFA=RSP+16: RBP=[CFA-16], RIP=[CFA-8]
  0xec4b4: CFA=RBP+16: RBP=[CFA-16], RIP=[CFA-8]
  0xec4c4: CFA=RBP+16: RBX=[CFA-56], RBP=[CFA-16], R12=[CFA-48], R13=[CFA-40], R14=[CFA-32], R15=[CFA-24], RIP=[CFA-8]
  0xec6b9: CFA=RSP+8: RBX=[CFA-56], RBP=[CFA-16], R12=[CFA-48], R13=[CFA-40], R14=[CFA-32], R15=[CFA-24], RIP=[CFA-8]

00001810 0000001c 00001814 FDE cie=00000000 pc=000ec6c0...000ec6e7
  Format:       DWARF32
  DW_CFA_advance_loc: 1
  DW_CFA_def_cfa_offset: +16
  DW_CFA_offset: RBP -16
  DW_CFA_advance_loc: 3
  DW_CFA_def_cfa_register: RBP
  DW_CFA_advance_loc: 34
  DW_CFA_def_cfa: RSP +8
  DW_CFA_nop:
  DW_CFA_nop:
  DW_CFA_nop:

  0xec6c0: CFA=RSP+8: RIP=[CFA-8]
  0xec6c1: CFA=RSP+16: RBP=[CFA-16], RIP=[CFA-8]
  0xec6c4: CFA=RBP+16: RBP=[CFA-16], RIP=[CFA-8]
  0xec6e6: CFA=RSP+8: RBP=[CFA-16], RIP=[CFA-8]

00001830 00000028 00001834 FDE cie=00000000 pc=000ec6f0...000ec8fa
  Format:       DWARF32
  DW_CFA_advance_loc: 1
  DW_CFA_def_cfa_offset: +16
  DW_CFA_offset: RBP -16
  DW_CFA_advance_loc: 3
  DW_CFA_def_cfa_register: RBP
  DW_CFA_advance_loc: 16
  DW_CFA_offset: RBX -56
  DW_CFA_offset: R12 -48
  DW_CFA_offset: R13 -40
  DW_CFA_offset: R14 -32
  DW_CFA_offset: R15 -24
  DW_CFA_advance_loc2: 501
  DW_CFA_def_cfa: RSP +8
  DW_CFA_nop:
  DW_CFA_nop:

  0xec6f0: CFA=RSP+8: RIP=[CFA-8]
  0xec6f1: CFA=RSP+16: RBP=[CFA-16], RIP=[CFA-8]
  0xec6f4: CFA=RBP+16: RBP=[CFA-16], RIP=[CFA-8]
  0xec704: CFA=RBP+16: RBX=[CFA-56], RBP=[CFA-16], R12=[CFA-48], R13=[CFA-40], R14=[CFA-32], R15=[CFA-24], RIP=[CFA-8]
  0xec8f9: CFA=RSP+8: RBX=[CFA-56], RBP=[CFA-16], R12=[CFA-48], R13=[CFA-40], R14=[CFA-32], R15=[CFA-24], RIP=[CFA-8]

0000185c 0000001c 00001860 FDE cie=00000000 pc=000ec900...000ec91b
  Format:       DWARF32
  DW_CFA_advance_loc: 1
  DW_CFA_def_cfa_offset: +16
  DW_CFA_offset: RBP -16
  DW_CFA_advance_loc: 3
  DW_CFA_def_cfa_register: RBP
  DW_CFA_advance_loc: 22
  DW_CFA_def_cfa: RSP +8
  DW_CFA_nop:
  DW_CFA_nop:
  DW_CFA_nop:

  0xec900: CFA=RSP+8: RIP=[CFA-8]
  0xec901: CFA=RSP+16: RBP=[CFA-16], RIP=[CFA-8]
  0xec904: CFA=RBP+16: RBP=[CFA-16], RIP=[CFA-8]
  0xec91a: CFA=RSP+8: RBP=[CFA-16], RIP=[CFA-8]

0000187c 0000001c 00001880 FDE cie=00000000 pc=000ec920...000eca29
  Format:       DWARF32
  DW_CFA_advance_loc: 1
  DW_CFA_def_cfa_offset: +16
  DW_CFA_offset: RBP -16
  DW_CFA_advance_loc: 3
  DW_CFA_def_cfa_register: RBP
  DW_CFA_advance_loc2: 260
  DW_CFA_def_cfa: RSP +8
  DW_CFA_nop:

  0xec920: CFA=RSP+8: RIP=[CFA-8]
  0xec921: CFA=RSP+16: RBP=[CFA-16], RIP=[CFA-8]
  0xec924: CFA=RBP+16: RBP=[CFA-16], RIP=[CFA-8]
  0xeca28: CFA=RSP+8: RBP=[CFA-16], RIP=[CFA-8]

0000189c 0000001c 000018a0 FDE cie=00000000 pc=000eca30...000eca53
  Format:       DWARF32
  DW_CFA_advance_loc: 1
  DW_CFA_def_cfa_offset: +16
  DW_CFA_offset: RBP -16
  DW_CFA_advance_loc: 3
  DW_CFA_def_cfa_register: RBP
  DW_CFA_advance_loc: 30
  DW_CFA_def_cfa: RSP +8
  DW_CFA_nop:
  DW_CFA_nop:
  DW_CFA_nop:

  0xeca30: CFA=RSP+8: RIP=[CFA-8]
  0xeca31: CFA=RSP+16: RBP=[CFA-16], RIP=[CFA-8]
  0xeca34: CFA=RBP+16: RBP=[CFA-16], RIP=[CFA-8]
  0xeca52: CFA=RSP+8: RBP=[CFA-16], RIP=[CFA-8]

000018bc 0000001c 000018c0 FDE cie=00000000 pc=000eca60...000ecb69
  Format:       DWARF32
  DW_CFA_advance_loc: 1
  DW_CFA_def_cfa_offset: +16
  DW_CFA_offset: RBP -16
  DW_CFA_advance_loc: 3
  DW_CFA_def_cfa_register: RBP
  DW_CFA_advance_loc2: 260
  DW_CFA_def_cfa: RSP +8
  DW_CFA_nop:

  0xeca60: CFA=RSP+8: RIP=[CFA-8]
  0xeca61: CFA=RSP+16: RBP=[CFA-16], RIP=[CFA-8]
  0xeca64: CFA=RBP+16: RBP=[CFA-16], RIP=[CFA-8]
  0xecb68: CFA=RSP+8: RBP=[CFA-16], RIP=[CFA-8]

000018dc 0000001c 000018e0 FDE cie=00000000 pc=000ecb70...000ecb9b
  Format:       DWARF32
  DW_CFA_advance_loc: 1
  DW_CFA_def_cfa_offset: +16
  DW_CFA_offset: RBP -16
  DW_CFA_advance_loc: 3
  DW_CFA_def_cfa_register: RBP
  DW_CFA_advance_loc: 38
  DW_CFA_def_cfa: RSP +8
  DW_CFA_nop:
  DW_CFA_nop:
  DW_CFA_nop:

  0xecb70: CFA=RSP+8: RIP=[CFA-8]
  0xecb71: CFA=RSP+16: RBP=[CFA-16], RIP=[CFA-8]
  0xecb74: CFA=RBP+16: RBP=[CFA-16], RIP=[CFA-8]
  0xecb9a: CFA=RSP+8: RBP=[CFA-16], RIP=[CFA-8]

000018fc 0000001c 00001900 FDE cie=00000000 pc=000ecba0...000ecce1
  Format:       DWARF32
  DW_CFA_advance_loc: 1
  DW_CFA_def_cfa_offset: +16
  DW_CFA_offset: RBP -16
  DW_CFA_advance_loc: 3
  DW_CFA_def_cfa_register: RBP
  DW_CFA_advance_loc2: 316
  DW_CFA_def_cfa: RSP +8
  DW_CFA_nop:

  0xecba0: CFA=RSP+8: RIP=[CFA-8]
  0xecba1: CFA=RSP+16: RBP=[CFA-16], RIP=[CFA-8]
  0xecba4: CFA=RBP+16: RBP=[CFA-16], RIP=[CFA-8]
  0xecce0: CFA=RSP+8: RBP=[CFA-16], RIP=[CFA-8]

0000191c 0000001c 00001920 FDE cie=00000000 pc=000eccf0...000ecd17
  Format:       DWARF32
  DW_CFA_advance_loc: 1
  DW_CFA_def_cfa_offset: +16
  DW_CFA_offset: RBP -16
  DW_CFA_advance_loc: 3
  DW_CFA_def_cfa_register: RBP
  DW_CFA_advance_loc: 34
  DW_CFA_def_cfa: RSP +8
  DW_CFA_nop:
  DW_CFA_nop:
  DW_CFA_nop:

  0xeccf0: CFA=RSP+8: RIP=[CFA-8]
  0xeccf1: CFA=RSP+16: RBP=[CFA-16], RIP=[CFA-8]
  0xeccf4: CFA=RBP+16: RBP=[CFA-16], RIP=[CFA-8]
  0xecd16: CFA=RSP+8: RBP=[CFA-16], RIP=[CFA-8]

0000193c 0000001c 00001940 FDE cie=00000000 pc=000ecd20...000ece61
  Format:       DWARF32
  DW_CFA_advance_loc: 1
  DW_CFA_def_cfa_offset: +16
  DW_CFA_offset: RBP -16
  DW_CFA_advance_loc: 3
  DW_CFA_def_cfa_register: RBP
  DW_CFA_advance_loc2: 316
  DW_CFA_def_cfa: RSP +8
  DW_CFA_nop:

  0xecd20: CFA=RSP+8: RIP=[CFA-8]
  0xecd21: CFA=RSP+16: RBP=[CFA-16], RIP=[CFA-8]
  0xecd24: CFA=RBP+16: RBP=[CFA-16], RIP=[CFA-8]
  0xece60: CFA=RSP+8: RBP=[CFA-16], RIP=[CFA-8]

0000195c 0000001c 00001960 FDE cie=00000000 pc=000ece70...000ece97
  Format:       DWARF32
  DW_CFA_advance_loc: 1
  DW_CFA_def_cfa_offset: +16
  DW_CFA_offset: RBP -16
  DW_CFA_advance_loc: 3
  DW_CFA_def_cfa_register: RBP
  DW_CFA_advance_loc: 34
  DW_CFA_def_cfa: RSP +8
  DW_CFA_nop:
  DW_CFA_nop:
  DW_CFA_nop:

  0xece70: CFA=RSP+8: RIP=[CFA-8]
  0xece71: CFA=RSP+16: RBP=[CFA-16], RIP=[CFA-8]
  0xece74: CFA=RBP+16: RBP=[CFA-16], RIP=[CFA-8]
  0xece96: CFA=RSP+8: RBP=[CFA-16], RIP=[CFA-8]

0000197c 00000020 00001980 FDE cie=00000000 pc=000ecea0...000ed023
  Format:       DWARF32
  DW_CFA_advance_loc: 1
  DW_CFA_def_cfa_offset: +16
  DW_CFA_offset: RBP -16
  DW_CFA_advance_loc: 3
  DW_CFA_def_cfa_register: RBP
  DW_CFA_advance_loc: 10
  DW_CFA_offset: RBX -32
  DW_CFA_offset: R14 -24
  DW_CFA_advance_loc2: 372
  DW_CFA_def_cfa: RSP +8

  0xecea0: CFA=RSP+8: RIP=[CFA-8]
  0xecea1: CFA=RSP+16: RBP=[CFA-16], RIP=[CFA-8]
  0xecea4: CFA=RBP+16: RBP=[CFA-16], RIP=[CFA-8]
  0xeceae: CFA=RBP+16: RBX=[CFA-32], RBP=[CFA-16], R14=[CFA-24], RIP=[CFA-8]
  0xed022: CFA=RSP+8: RBX=[CFA-32], RBP=[CFA-16], R14=[CFA-24], RIP=[CFA-8]

000019a0 0000001c 000019a4 FDE cie=00000000 pc=000ed030...000ed057
  Format:       DWARF32
  DW_CFA_advance_loc: 1
  DW_CFA_def_cfa_offset: +16
  DW_CFA_offset: RBP -16
  DW_CFA_advance_loc: 3
  DW_CFA_def_cfa_register: RBP
  DW_CFA_advance_loc: 34
  DW_CFA_def_cfa: RSP +8
  DW_CFA_nop:
  DW_CFA_nop:
  DW_CFA_nop:

  0xed030: CFA=RSP+8: RIP=[CFA-8]
  0xed031: CFA=RSP+16: RBP=[CFA-16], RIP=[CFA-8]
  0xed034: CFA=RBP+16: RBP=[CFA-16], RIP=[CFA-8]
  0xed056: CFA=RSP+8: RBP=[CFA-16], RIP=[CFA-8]

000019c0 00000020 000019c4 FDE cie=00000000 pc=000ed060...000ed1e3
  Format:       DWARF32
  DW_CFA_advance_loc: 1
  DW_CFA_def_cfa_offset: +16
  DW_CFA_offset: RBP -16
  DW_CFA_advance_loc: 3
  DW_CFA_def_cfa_register: RBP
  DW_CFA_advance_loc: 10
  DW_CFA_offset: RBX -32
  DW_CFA_offset: R14 -24
  DW_CFA_advance_loc2: 372
  DW_CFA_def_cfa: RSP +8

  0xed060: CFA=RSP+8: RIP=[CFA-8]
  0xed061: CFA=RSP+16: RBP=[CFA-16], RIP=[CFA-8]
  0xed064: CFA=RBP+16: RBP=[CFA-16], RIP=[CFA-8]
  0xed06e: CFA=RBP+16: RBX=[CFA-32], RBP=[CFA-16], R14=[CFA-24], RIP=[CFA-8]
  0xed1e2: CFA=RSP+8: RBX=[CFA-32], RBP=[CFA-16], R14=[CFA-24], RIP=[CFA-8]

000019e4 0000001c 000019e8 FDE cie=00000000 pc=000ed1f0...000ed209
  Format:       DWARF32
  DW_CFA_advance_loc: 1
  DW_CFA_def_cfa_offset: +16
  DW_CFA_offset: RBP -16
  DW_CFA_advance_loc: 3
  DW_CFA_def_cfa_register: RBP
  DW_CFA_advance_loc: 20
  DW_CFA_def_cfa: RSP +8
  DW_CFA_nop:
  DW_CFA_nop:
  DW_CFA_nop:

  0xed1f0: CFA=RSP+8: RIP=[CFA-8]
  0xed1f1: CFA=RSP+16: RBP=[CFA-16], RIP=[CFA-8]
  0xed1f4: CFA=RBP+16: RBP=[CFA-16], RIP=[CFA-8]
  0xed208: CFA=RSP+8: RBP=[CFA-16], RIP=[CFA-8]

00001a04 00000024 00001a08 FDE cie=00000000 pc=000ed210...000ed2d0
  Format:       DWARF32
  DW_CFA_advance_loc: 1
  DW_CFA_def_cfa_offset: +16
  DW_CFA_offset: RBP -16
  DW_CFA_advance_loc: 3
  DW_CFA_def_cfa_register: RBP
  DW_CFA_advance_loc: 11
  DW_CFA_offset: RBX -48
  DW_CFA_offset: R12 -40
  DW_CFA_offset: R14 -32
  DW_CFA_offset: R15 -24
  DW_CFA_advance_loc1: 176
  DW_CFA_def_cfa: RSP +8
  DW_CFA_nop:

  0xed210: CFA=RSP+8: RIP=[CFA-8]
  0xed211: CFA=RSP+16: RBP=[CFA-16], RIP=[CFA-8]
  0xed214: CFA=RBP+16: RBP=[CFA-16], RIP=[CFA-8]
  0xed21f: CFA=RBP+16: RBX=[CFA-48], RBP=[CFA-16], R12=[CFA-40], R14=[CFA-32], R15=[CFA-24], RIP=[CFA-8]
  0xed2cf: CFA=RSP+8: RBX=[CFA-48], RBP=[CFA-16], R12=[CFA-40], R14=[CFA-32], R15=[CFA-24], RIP=[CFA-8]

00001a2c 0000001c 00001a30 FDE cie=00000000 pc=000ed2d0...000ed2f7
  Format:       DWARF32
  DW_CFA_advance_loc: 1
  DW_CFA_def_cfa_offset: +16
  DW_CFA_offset: RBP -16
  DW_CFA_advance_loc: 3
  DW_CFA_def_cfa_register: RBP
  DW_CFA_advance_loc: 34
  DW_CFA_def_cfa: RSP +8
  DW_CFA_nop:
  DW_CFA_nop:
  DW_CFA_nop:

  0xed2d0: CFA=RSP+8: RIP=[CFA-8]
  0xed2d1: CFA=RSP+16: RBP=[CFA-16], RIP=[CFA-8]
  0xed2d4: CFA=RBP+16: RBP=[CFA-16], RIP=[CFA-8]
  0xed2f6: CFA=RSP+8: RBP=[CFA-16], RIP=[CFA-8]

00001a4c 0000001c 00001a50 FDE cie=00000000 pc=000ed300...000ed407
  Format:       DWARF32
  DW_CFA_advance_loc: 1
  DW_CFA_def_cfa_offset: +16
  DW_CFA_offset: RBP -16
  DW_CFA_advance_loc: 3
  DW_CFA_def_cfa_register: RBP
  DW_CFA_advance_loc2: 258
  DW_CFA_def_cfa: RSP +8
  DW_CFA_nop:

  0xed300: CFA=RSP+8: RIP=[CFA-8]
  0xed301: CFA=RSP+16: RBP=[CFA-16], RIP=[CFA-8]
  0xed304: CFA=RBP+16: RBP=[CFA-16], RIP=[CFA-8]
  0xed406: CFA=RSP+8: RBP=[CFA-16], RIP=[CFA-8]

00001a6c 0000001c 00001a70 FDE cie=00000000 pc=000ed410...000ed437
  Format:       DWARF32
  DW_CFA_advance_loc: 1
  DW_CFA_def_cfa_offset: +16
  DW_CFA_offset: RBP -16
  DW_CFA_advance_loc: 3
  DW_CFA_def_cfa_register: RBP
  DW_CFA_advance_loc: 34
  DW_CFA_def_cfa: RSP +8
  DW_CFA_nop:
  DW_CFA_nop:
  DW_CFA_nop:

  0xed410: CFA=RSP+8: RIP=[CFA-8]
  0xed411: CFA=RSP+16: RBP=[CFA-16], RIP=[CFA-8]
  0xed414: CFA=RBP+16: RBP=[CFA-16], RIP=[CFA-8]
  0xed436: CFA=RSP+8: RBP=[CFA-16], RIP=[CFA-8]

00001a8c 00000028 00001a90 FDE cie=00000000 pc=000ed440...000ed540
  Format:       DWARF32
  DW_CFA_advance_loc: 1
  DW_CFA_def_cfa_offset: +16
  DW_CFA_offset: RBP -16
  DW_CFA_advance_loc: 3
  DW_CFA_def_cfa_register: RBP
  DW_CFA_advance_loc: 16
  DW_CFA_offset: RBX -56
  DW_CFA_offset: R12 -48
  DW_CFA_offset: R13 -40
  DW_CFA_offset: R14 -32
  DW_CFA_offset: R15 -24
  DW_CFA_advance_loc1: 235
  DW_CFA_def_cfa: RSP +8
  DW_CFA_nop:
  DW_CFA_nop:
  DW_CFA_nop:

  0xed440: CFA=RSP+8: RIP=[CFA-8]
  0xed441: CFA=RSP+16: RBP=[CFA-16], RIP=[CFA-8]
  0xed444: CFA=RBP+16: RBP=[CFA-16], RIP=[CFA-8]
  0xed454: CFA=RBP+16: RBX=[CFA-56], RBP=[CFA-16], R12=[CFA-48], R13=[CFA-40], R14=[CFA-32], R15=[CFA-24], RIP=[CFA-8]
  0xed53f: CFA=RSP+8: RBX=[CFA-56], RBP=[CFA-16], R12=[CFA-48], R13=[CFA-40], R14=[CFA-32], R15=[CFA-24], RIP=[CFA-8]

00001ab8 0000001c 00001abc FDE cie=00000000 pc=000ed540...000ed567
  Format:       DWARF32
  DW_CFA_advance_loc: 1
  DW_CFA_def_cfa_offset: +16
  DW_CFA_offset: RBP -16
  DW_CFA_advance_loc: 3
  DW_CFA_def_cfa_register: RBP
  DW_CFA_advance_loc: 34
  DW_CFA_def_cfa: RSP +8
  DW_CFA_nop:
  DW_CFA_nop:
  DW_CFA_nop:

  0xed540: CFA=RSP+8: RIP=[CFA-8]
  0xed541: CFA=RSP+16: RBP=[CFA-16], RIP=[CFA-8]
  0xed544: CFA=RBP+16: RBP=[CFA-16], RIP=[CFA-8]
  0xed566: CFA=RSP+8: RBP=[CFA-16], RIP=[CFA-8]

00001ad8 0000001c 00001adc FDE cie=00000000 pc=000ed570...000ed6a0
  Format:       DWARF32
  DW_CFA_advance_loc: 1
  DW_CFA_def_cfa_offset: +16
  DW_CFA_offset: RBP -16
  DW_CFA_advance_loc: 3
  DW_CFA_def_cfa_register: RBP
  DW_CFA_advance_loc2: 299
  DW_CFA_def_cfa: RSP +8
  DW_CFA_nop:

  0xed570: CFA=RSP+8: RIP=[CFA-8]
  0xed571: CFA=RSP+16: RBP=[CFA-16], RIP=[CFA-8]
  0xed574: CFA=RBP+16: RBP=[CFA-16], RIP=[CFA-8]
  0xed69f: CFA=RSP+8: RBP=[CFA-16], RIP=[CFA-8]

00001af8 0000001c 00001afc FDE cie=00000000 pc=000ed6a0...000ed6b2
  Format:       DWARF32
  DW_CFA_advance_loc: 1
  DW_CFA_def_cfa_offset: +16
  DW_CFA_offset: RBP -16
  DW_CFA_advance_loc: 3
  DW_CFA_def_cfa_register: RBP
  DW_CFA_advance_loc: 13
  DW_CFA_def_cfa: RSP +8
  DW_CFA_nop:
  DW_CFA_nop:
  DW_CFA_nop:

  0xed6a0: CFA=RSP+8: RIP=[CFA-8]
  0xed6a1: CFA=RSP+16: RBP=[CFA-16], RIP=[CFA-8]
  0xed6a4: CFA=RBP+16: RBP=[CFA-16], RIP=[CFA-8]
  0xed6b1: CFA=RSP+8: RBP=[CFA-16], RIP=[CFA-8]

00001b18 00000024 00001b1c FDE cie=00000000 pc=000ed6c0...000ed775
  Format:       DWARF32
  DW_CFA_advance_loc: 1
  DW_CFA_def_cfa_offset: +16
  DW_CFA_offset: RBP -16
  DW_CFA_advance_loc: 3
  DW_CFA_def_cfa_register: RBP
  DW_CFA_advance_loc: 9
  DW_CFA_offset: RBX -40
  DW_CFA_offset: R14 -32
  DW_CFA_offset: R15 -24
  DW_CFA_advance_loc1: 167
  DW_CFA_def_cfa: RSP +8
  DW_CFA_nop:
  DW_CFA_nop:
  DW_CFA_nop:

  0xed6c0: CFA=RSP+8: RIP=[CFA-8]
  0xed6c1: CFA=RSP+16: RBP=[CFA-16], RIP=[CFA-8]
  0xed6c4: CFA=RBP+16: RBP=[CFA-16], RIP=[CFA-8]
  0xed6cd: CFA=RBP+16: RBX=[CFA-40], RBP=[CFA-16], R14=[CFA-32], R15=[CFA-24], RIP=[CFA-8]
  0xed774: CFA=RSP+8: RBX=[CFA-40], RBP=[CFA-16], R14=[CFA-32], R15=[CFA-24], RIP=[CFA-8]

00001b40 0000001c 00001b44 FDE cie=00000000 pc=000ed780...000ed7a1
  Format:       DWARF32
  DW_CFA_advance_loc: 1
  DW_CFA_def_cfa_offset: +16
  DW_CFA_offset: RBP -16
  DW_CFA_advance_loc: 3
  DW_CFA_def_cfa_register: RBP
  DW_CFA_advance_loc: 28
  DW_CFA_def_cfa: RSP +8
  DW_CFA_nop:
  DW_CFA_nop:
  DW_CFA_nop:

  0xed780: CFA=RSP+8: RIP=[CFA-8]
  0xed781: CFA=RSP+16: RBP=[CFA-16], RIP=[CFA-8]
  0xed784: CFA=RBP+16: RBP=[CFA-16], RIP=[CFA-8]
  0xed7a0: CFA=RSP+8: RBP=[CFA-16], RIP=[CFA-8]

00001b60 00000020 00001b64 FDE cie=00000000 pc=000ed7b0...000ed837
  Format:       DWARF32
  DW_CFA_advance_loc: 1
  DW_CFA_def_cfa_offset: +16
  DW_CFA_offset: RBP -16
  DW_CFA_advance_loc: 3
  DW_CFA_def_cfa_register: RBP
  DW_CFA_advance_loc: 5
  DW_CFA_offset: RBX -24
  DW_CFA_advance_loc1: 125
  DW_CFA_def_cfa: RSP +8
  DW_CFA_nop:
  DW_CFA_nop:
  DW_CFA_nop:

  0xed7b0: CFA=RSP+8: RIP=[CFA-8]
  0xed7b1: CFA=RSP+16: RBP=[CFA-16], RIP=[CFA-8]
  0xed7b4: CFA=RBP+16: RBP=[CFA-16], RIP=[CFA-8]
  0xed7b9: CFA=RBP+16: RBX=[CFA-24], RBP=[CFA-16], RIP=[CFA-8]
  0xed836: CFA=RSP+8: RBX=[CFA-24], RBP=[CFA-16], RIP=[CFA-8]

00001b84 0000001c 00001b88 FDE cie=00000000 pc=000ed840...000ed867
  Format:       DWARF32
  DW_CFA_advance_loc: 1
  DW_CFA_def_cfa_offset: +16
  DW_CFA_offset: RBP -16
  DW_CFA_advance_loc: 3
  DW_CFA_def_cfa_register: RBP
  DW_CFA_advance_loc: 34
  DW_CFA_def_cfa: RSP +8
  DW_CFA_nop:
  DW_CFA_nop:
  DW_CFA_nop:

  0xed840: CFA=RSP+8: RIP=[CFA-8]
  0xed841: CFA=RSP+16: RBP=[CFA-16], RIP=[CFA-8]
  0xed844: CFA=RBP+16: RBP=[CFA-16], RIP=[CFA-8]
  0xed866: CFA=RSP+8: RBP=[CFA-16], RIP=[CFA-8]

00001ba4 0000001c 00001ba8 FDE cie=00000000 pc=000ed870...000ed979
  Format:       DWARF32
  DW_CFA_advance_loc: 1
  DW_CFA_def_cfa_offset: +16
  DW_CFA_offset: RBP -16
  DW_CFA_advance_loc: 3
  DW_CFA_def_cfa_register: RBP
  DW_CFA_advance_loc2: 260
  DW_CFA_def_cfa: RSP +8
  DW_CFA_nop:

  0xed870: CFA=RSP+8: RIP=[CFA-8]
  0xed871: CFA=RSP+16: RBP=[CFA-16], RIP=[CFA-8]
  0xed874: CFA=RBP+16: RBP=[CFA-16], RIP=[CFA-8]
  0xed978: CFA=RSP+8: RBP=[CFA-16], RIP=[CFA-8]

00001bc4 0000001c 00001bc8 FDE cie=00000000 pc=000ed980...000ed99b
  Format:       DWARF32
  DW_CFA_advance_loc: 1
  DW_CFA_def_cfa_offset: +16
  DW_CFA_offset: RBP -16
  DW_CFA_advance_loc: 3
  DW_CFA_def_cfa_register: RBP
  DW_CFA_advance_loc: 22
  DW_CFA_def_cfa: RSP +8
  DW_CFA_nop:
  DW_CFA_nop:
  DW_CFA_nop:

  0xed980: CFA=RSP+8: RIP=[CFA-8]
  0xed981: CFA=RSP+16: RBP=[CFA-16], RIP=[CFA-8]
  0xed984: CFA=RBP+16: RBP=[CFA-16], RIP=[CFA-8]
  0xed99a: CFA=RSP+8: RBP=[CFA-16], RIP=[CFA-8]

00001be4 00000028 00001be8 FDE cie=00000000 pc=000ed9a0...000edaa0
  Format:       DWARF32
  DW_CFA_advance_loc: 1
  DW_CFA_def_cfa_offset: +16
  DW_CFA_offset: RBP -16
  DW_CFA_advance_loc: 3
  DW_CFA_def_cfa_register: RBP
  DW_CFA_advance_loc: 16
  DW_CFA_offset: RBX -56
  DW_CFA_offset: R12 -48
  DW_CFA_offset: R13 -40
  DW_CFA_offset: R14 -32
  DW_CFA_offset: R15 -24
  DW_CFA_advance_loc1: 235
  DW_CFA_def_cfa: RSP +8
  DW_CFA_nop:
  DW_CFA_nop:
  DW_CFA_nop:

  0xed9a0: CFA=RSP+8: RIP=[CFA-8]
  0xed9a1: CFA=RSP+16: RBP=[CFA-16], RIP=[CFA-8]
  0xed9a4: CFA=RBP+16: RBP=[CFA-16], RIP=[CFA-8]
  0xed9b4: CFA=RBP+16: RBX=[CFA-56], RBP=[CFA-16], R12=[CFA-48], R13=[CFA-40], R14=[CFA-32], R15=[CFA-24], RIP=[CFA-8]
  0xeda9f: CFA=RSP+8: RBX=[CFA-56], RBP=[CFA-16], R12=[CFA-48], R13=[CFA-40], R14=[CFA-32], R15=[CFA-24], RIP=[CFA-8]

00001c10 0000001c 00001c14 FDE cie=00000000 pc=000edaa0...000edaaf
  Format:       DWARF32
  DW_CFA_advance_loc: 1
  DW_CFA_def_cfa_offset: +16
  DW_CFA_offset: RBP -16
  DW_CFA_advance_loc: 3
  DW_CFA_def_cfa_register: RBP
  DW_CFA_advance_loc: 10
  DW_CFA_def_cfa: RSP +8
  DW_CFA_nop:
  DW_CFA_nop:
  DW_CFA_nop:

  0xedaa0: CFA=RSP+8: RIP=[CFA-8]
  0xedaa1: CFA=RSP+16: RBP=[CFA-16], RIP=[CFA-8]
  0xedaa4: CFA=RBP+16: RBP=[CFA-16], RIP=[CFA-8]
  0xedaae: CFA=RSP+8: RBP=[CFA-16], RIP=[CFA-8]

00001c30 00000020 00001c34 FDE cie=00000000 pc=000edab0...000edb37
  Format:       DWARF32
  DW_CFA_advance_loc: 1
  DW_CFA_def_cfa_offset: +16
  DW_CFA_offset: RBP -16
  DW_CFA_advance_loc: 3
  DW_CFA_def_cfa_register: RBP
  DW_CFA_advance_loc: 5
  DW_CFA_offset: RBX -24
  DW_CFA_advance_loc1: 125
  DW_CFA_def_cfa: RSP +8
  DW_CFA_nop:
  DW_CFA_nop:
  DW_CFA_nop:

  0xedab0: CFA=RSP+8: RIP=[CFA-8]
  0xedab1: CFA=RSP+16: RBP=[CFA-16], RIP=[CFA-8]
  0xedab4: CFA=RBP+16: RBP=[CFA-16], RIP=[CFA-8]
  0xedab9: CFA=RBP+16: RBX=[CFA-24], RBP=[CFA-16], RIP=[CFA-8]
  0xedb36: CFA=RSP+8: RBX=[CFA-24], RBP=[CFA-16], RIP=[CFA-8]

00001c54 0000001c 00001c58 FDE cie=00000000 pc=000edb40...000edb5b
  Format:       DWARF32
  DW_CFA_advance_loc: 1
  DW_CFA_def_cfa_offset: +16
  DW_CFA_offset: RBP -16
  DW_CFA_advance_loc: 3
  DW_CFA_def_cfa_register: RBP
  DW_CFA_advance_loc: 22
  DW_CFA_def_cfa: RSP +8
  DW_CFA_nop:
  DW_CFA_nop:
  DW_CFA_nop:

  0xedb40: CFA=RSP+8: RIP=[CFA-8]
  0xedb41: CFA=RSP+16: RBP=[CFA-16], RIP=[CFA-8]
  0xedb44: CFA=RBP+16: RBP=[CFA-16], RIP=[CFA-8]
  0xedb5a: CFA=RSP+8: RBP=[CFA-16], RIP=[CFA-8]

00001c74 00000028 00001c78 FDE cie=00000000 pc=000edb60...000edc9d
  Format:       DWARF32
  DW_CFA_advance_loc: 1
  DW_CFA_def_cfa_offset: +16
  DW_CFA_offset: RBP -16
  DW_CFA_advance_loc: 3
  DW_CFA_def_cfa_register: RBP
  DW_CFA_advance_loc: 16
  DW_CFA_offset: RBX -56
  DW_CFA_offset: R12 -48
  DW_CFA_offset: R13 -40
  DW_CFA_offset: R14 -32
  DW_CFA_offset: R15 -24
  DW_CFA_advance_loc2: 296
  DW_CFA_def_cfa: RSP +8
  DW_CFA_nop:
  DW_CFA_nop:

  0xedb60: CFA=RSP+8: RIP=[CFA-8]
  0xedb61: CFA=RSP+16: RBP=[CFA-16], RIP=[CFA-8]
  0xedb64: CFA=RBP+16: RBP=[CFA-16], RIP=[CFA-8]
  0xedb74: CFA=RBP+16: RBX=[CFA-56], RBP=[CFA-16], R12=[CFA-48], R13=[CFA-40], R14=[CFA-32], R15=[CFA-24], RIP=[CFA-8]
  0xedc9c: CFA=RSP+8: RBX=[CFA-56], RBP=[CFA-16], R12=[CFA-48], R13=[CFA-40], R14=[CFA-32], R15=[CFA-24], RIP=[CFA-8]

00001ca0 0000001c 00001ca4 FDE cie=00000000 pc=000edca0...000edcaf
  Format:       DWARF32
  DW_CFA_advance_loc: 1
  DW_CFA_def_cfa_offset: +16
  DW_CFA_offset: RBP -16
  DW_CFA_advance_loc: 3
  DW_CFA_def_cfa_register: RBP
  DW_CFA_advance_loc: 10
  DW_CFA_def_cfa: RSP +8
  DW_CFA_nop:
  DW_CFA_nop:
  DW_CFA_nop:

  0xedca0: CFA=RSP+8: RIP=[CFA-8]
  0xedca1: CFA=RSP+16: RBP=[CFA-16], RIP=[CFA-8]
  0xedca4: CFA=RBP+16: RBP=[CFA-16], RIP=[CFA-8]
  0xedcae: CFA=RSP+8: RBP=[CFA-16], RIP=[CFA-8]

00001cc0 00000020 00001cc4 FDE cie=00000000 pc=000edcb0...000edd37
  Format:       DWARF32
  DW_CFA_advance_loc: 1
  DW_CFA_def_cfa_offset: +16
  DW_CFA_offset: RBP -16
  DW_CFA_advance_loc: 3
  DW_CFA_def_cfa_register: RBP
  DW_CFA_advance_loc: 5
  DW_CFA_offset: RBX -24
  DW_CFA_advance_loc1: 125
  DW_CFA_def_cfa: RSP +8
  DW_CFA_nop:
  DW_CFA_nop:
  DW_CFA_nop:

  0xedcb0: CFA=RSP+8: RIP=[CFA-8]
  0xedcb1: CFA=RSP+16: RBP=[CFA-16], RIP=[CFA-8]
  0xedcb4: CFA=RBP+16: RBP=[CFA-16], RIP=[CFA-8]
  0xedcb9: CFA=RBP+16: RBX=[CFA-24], RBP=[CFA-16], RIP=[CFA-8]
  0xedd36: CFA=RSP+8: RBX=[CFA-24], RBP=[CFA-16], RIP=[CFA-8]

00001ce4 0000001c 00001ce8 FDE cie=00000000 pc=000edd40...000edd5b
  Format:       DWARF32
  DW_CFA_advance_loc: 1
  DW_CFA_def_cfa_offset: +16
  DW_CFA_offset: RBP -16
  DW_CFA_advance_loc: 3
  DW_CFA_def_cfa_register: RBP
  DW_CFA_advance_loc: 22
  DW_CFA_def_cfa: RSP +8
  DW_CFA_nop:
  DW_CFA_nop:
  DW_CFA_nop:

  0xedd40: CFA=RSP+8: RIP=[CFA-8]
  0xedd41: CFA=RSP+16: RBP=[CFA-16], RIP=[CFA-8]
  0xedd44: CFA=RBP+16: RBP=[CFA-16], RIP=[CFA-8]
  0xedd5a: CFA=RSP+8: RBP=[CFA-16], RIP=[CFA-8]

00001d04 0000001c 00001d08 FDE cie=00000000 pc=000edd60...000ede85
  Format:       DWARF32
  DW_CFA_advance_loc: 1
  DW_CFA_def_cfa_offset: +16
  DW_CFA_offset: RBP -16
  DW_CFA_advance_loc: 3
  DW_CFA_def_cfa_register: RBP
  DW_CFA_advance_loc2: 288
  DW_CFA_def_cfa: RSP +8
  DW_CFA_nop:

  0xedd60: CFA=RSP+8: RIP=[CFA-8]
  0xedd61: CFA=RSP+16: RBP=[CFA-16], RIP=[CFA-8]
  0xedd64: CFA=RBP+16: RBP=[CFA-16], RIP=[CFA-8]
  0xede84: CFA=RSP+8: RBP=[CFA-16], RIP=[CFA-8]

00001d24 0000001c 00001d28 FDE cie=00000000 pc=000ede90...000ede9f
  Format:       DWARF32
  DW_CFA_advance_loc: 1
  DW_CFA_def_cfa_offset: +16
  DW_CFA_offset: RBP -16
  DW_CFA_advance_loc: 3
  DW_CFA_def_cfa_register: RBP
  DW_CFA_advance_loc: 10
  DW_CFA_def_cfa: RSP +8
  DW_CFA_nop:
  DW_CFA_nop:
  DW_CFA_nop:

  0xede90: CFA=RSP+8: RIP=[CFA-8]
  0xede91: CFA=RSP+16: RBP=[CFA-16], RIP=[CFA-8]
  0xede94: CFA=RBP+16: RBP=[CFA-16], RIP=[CFA-8]
  0xede9e: CFA=RSP+8: RBP=[CFA-16], RIP=[CFA-8]

00001d44 00000020 00001d48 FDE cie=00000000 pc=000edea0...000edf27
  Format:       DWARF32
  DW_CFA_advance_loc: 1
  DW_CFA_def_cfa_offset: +16
  DW_CFA_offset: RBP -16
  DW_CFA_advance_loc: 3
  DW_CFA_def_cfa_register: RBP
  DW_CFA_advance_loc: 5
  DW_CFA_offset: RBX -24
  DW_CFA_advance_loc1: 125
  DW_CFA_def_cfa: RSP +8
  DW_CFA_nop:
  DW_CFA_nop:
  DW_CFA_nop:

  0xedea0: CFA=RSP+8: RIP=[CFA-8]
  0xedea1: CFA=RSP+16: RBP=[CFA-16], RIP=[CFA-8]
  0xedea4: CFA=RBP+16: RBP=[CFA-16], RIP=[CFA-8]
  0xedea9: CFA=RBP+16: RBX=[CFA-24], RBP=[CFA-16], RIP=[CFA-8]
  0xedf26: CFA=RSP+8: RBX=[CFA-24], RBP=[CFA-16], RIP=[CFA-8]

00001d68 0000001c 00001d6c FDE cie=00000000 pc=000edf30...000edf4b
  Format:       DWARF32
  DW_CFA_advance_loc: 1
  DW_CFA_def_cfa_offset: +16
  DW_CFA_offset: RBP -16
  DW_CFA_advance_loc: 3
  DW_CFA_def_cfa_register: RBP
  DW_CFA_advance_loc: 22
  DW_CFA_def_cfa: RSP +8
  DW_CFA_nop:
  DW_CFA_nop:
  DW_CFA_nop:

  0xedf30: CFA=RSP+8: RIP=[CFA-8]
  0xedf31: CFA=RSP+16: RBP=[CFA-16], RIP=[CFA-8]
  0xedf34: CFA=RBP+16: RBP=[CFA-16], RIP=[CFA-8]
  0xedf4a: CFA=RSP+8: RBP=[CFA-16], RIP=[CFA-8]

00001d88 00000024 00001d8c FDE cie=00000000 pc=000edf50...000ee010
  Format:       DWARF32
  DW_CFA_advance_loc: 1
  DW_CFA_def_cfa_offset: +16
  DW_CFA_offset: RBP -16
  DW_CFA_advance_loc: 3
  DW_CFA_def_cfa_register: RBP
  DW_CFA_advance_loc: 11
  DW_CFA_offset: RBX -48
  DW_CFA_offset: R12 -40
  DW_CFA_offset: R14 -32
  DW_CFA_offset: R15 -24
  DW_CFA_advance_loc1: 176
  DW_CFA_def_cfa: RSP +8
  DW_CFA_nop:

  0xedf50: CFA=RSP+8: RIP=[CFA-8]
  0xedf51: CFA=RSP+16: RBP=[CFA-16], RIP=[CFA-8]
  0xedf54: CFA=RBP+16: RBP=[CFA-16], RIP=[CFA-8]
  0xedf5f: CFA=RBP+16: RBX=[CFA-48], RBP=[CFA-16], R12=[CFA-40], R14=[CFA-32], R15=[CFA-24], RIP=[CFA-8]
  0xee00f: CFA=RSP+8: RBX=[CFA-48], RBP=[CFA-16], R12=[CFA-40], R14=[CFA-32], R15=[CFA-24], RIP=[CFA-8]

00001db0 0000001c 00001db4 FDE cie=00000000 pc=000ee010...000ee01f
  Format:       DWARF32
  DW_CFA_advance_loc: 1
  DW_CFA_def_cfa_offset: +16
  DW_CFA_offset: RBP -16
  DW_CFA_advance_loc: 3
  DW_CFA_def_cfa_register: RBP
  DW_CFA_advance_loc: 10
  DW_CFA_def_cfa: RSP +8
  DW_CFA_nop:
  DW_CFA_nop:
  DW_CFA_nop:

  0xee010: CFA=RSP+8: RIP=[CFA-8]
  0xee011: CFA=RSP+16: RBP=[CFA-16], RIP=[CFA-8]
  0xee014: CFA=RBP+16: RBP=[CFA-16], RIP=[CFA-8]
  0xee01e: CFA=RSP+8: RBP=[CFA-16], RIP=[CFA-8]

00001dd0 00000020 00001dd4 FDE cie=00000000 pc=000ee020...000ee0a7
  Format:       DWARF32
  DW_CFA_advance_loc: 1
  DW_CFA_def_cfa_offset: +16
  DW_CFA_offset: RBP -16
  DW_CFA_advance_loc: 3
  DW_CFA_def_cfa_register: RBP
  DW_CFA_advance_loc: 5
  DW_CFA_offset: RBX -24
  DW_CFA_advance_loc1: 125
  DW_CFA_def_cfa: RSP +8
  DW_CFA_nop:
  DW_CFA_nop:
  DW_CFA_nop:

  0xee020: CFA=RSP+8: RIP=[CFA-8]
  0xee021: CFA=RSP+16: RBP=[CFA-16], RIP=[CFA-8]
  0xee024: CFA=RBP+16: RBP=[CFA-16], RIP=[CFA-8]
  0xee029: CFA=RBP+16: RBX=[CFA-24], RBP=[CFA-16], RIP=[CFA-8]
  0xee0a6: CFA=RSP+8: RBX=[CFA-24], RBP=[CFA-16], RIP=[CFA-8]

00001df4 0000001c 00001df8 FDE cie=00000000 pc=000ee0b0...000ee0db
  Format:       DWARF32
  DW_CFA_advance_loc: 1
  DW_CFA_def_cfa_offset: +16
  DW_CFA_offset: RBP -16
  DW_CFA_advance_loc: 3
  DW_CFA_def_cfa_register: RBP
  DW_CFA_advance_loc: 38
  DW_CFA_def_cfa: RSP +8
  DW_CFA_nop:
  DW_CFA_nop:
  DW_CFA_nop:

  0xee0b0: CFA=RSP+8: RIP=[CFA-8]
  0xee0b1: CFA=RSP+16: RBP=[CFA-16], RIP=[CFA-8]
  0xee0b4: CFA=RBP+16: RBP=[CFA-16], RIP=[CFA-8]
  0xee0da: CFA=RSP+8: RBP=[CFA-16], RIP=[CFA-8]

00001e14 0000001c 00001e18 FDE cie=00000000 pc=000ee0e0...000ee1e9
  Format:       DWARF32
  DW_CFA_advance_loc: 1
  DW_CFA_def_cfa_offset: +16
  DW_CFA_offset: RBP -16
  DW_CFA_advance_loc: 3
  DW_CFA_def_cfa_register: RBP
  DW_CFA_advance_loc2: 260
  DW_CFA_def_cfa: RSP +8
  DW_CFA_nop:

  0xee0e0: CFA=RSP+8: RIP=[CFA-8]
  0xee0e1: CFA=RSP+16: RBP=[CFA-16], RIP=[CFA-8]
  0xee0e4: CFA=RBP+16: RBP=[CFA-16], RIP=[CFA-8]
  0xee1e8: CFA=RSP+8: RBP=[CFA-16], RIP=[CFA-8]

00001e34 0000001c 00001e38 FDE cie=00000000 pc=000ee1f0...000ee205
  Format:       DWARF32
  DW_CFA_advance_loc: 1
  DW_CFA_def_cfa_offset: +16
  DW_CFA_offset: RBP -16
  DW_CFA_advance_loc: 3
  DW_CFA_def_cfa_register: RBP
  DW_CFA_advance_loc: 16
  DW_CFA_def_cfa: RSP +8
  DW_CFA_nop:
  DW_CFA_nop:
  DW_CFA_nop:

  0xee1f0: CFA=RSP+8: RIP=[CFA-8]
  0xee1f1: CFA=RSP+16: RBP=[CFA-16], RIP=[CFA-8]
  0xee1f4: CFA=RBP+16: RBP=[CFA-16], RIP=[CFA-8]
  0xee204: CFA=RSP+8: RBP=[CFA-16], RIP=[CFA-8]

00001e54 00000028 00001e58 FDE cie=00000000 pc=000ee210...000ee310
  Format:       DWARF32
  DW_CFA_advance_loc: 1
  DW_CFA_def_cfa_offset: +16
  DW_CFA_offset: RBP -16
  DW_CFA_advance_loc: 3
  DW_CFA_def_cfa_register: RBP
  DW_CFA_advance_loc: 16
  DW_CFA_offset: RBX -56
  DW_CFA_offset: R12 -48
  DW_CFA_offset: R13 -40
  DW_CFA_offset: R14 -32
  DW_CFA_offset: R15 -24
  DW_CFA_advance_loc1: 235
  DW_CFA_def_cfa: RSP +8
  DW_CFA_nop:
  DW_CFA_nop:
  DW_CFA_nop:

  0xee210: CFA=RSP+8: RIP=[CFA-8]
  0xee211: CFA=RSP+16: RBP=[CFA-16], RIP=[CFA-8]
  0xee214: CFA=RBP+16: RBP=[CFA-16], RIP=[CFA-8]
  0xee224: CFA=RBP+16: RBX=[CFA-56], RBP=[CFA-16], R12=[CFA-48], R13=[CFA-40], R14=[CFA-32], R15=[CFA-24], RIP=[CFA-8]
  0xee30f: CFA=RSP+8: RBX=[CFA-56], RBP=[CFA-16], R12=[CFA-48], R13=[CFA-40], R14=[CFA-32], R15=[CFA-24], RIP=[CFA-8]

00001e80 0000001c 00001e84 FDE cie=00000000 pc=000ee310...000ee321
  Format:       DWARF32
  DW_CFA_advance_loc: 1
  DW_CFA_def_cfa_offset: +16
  DW_CFA_offset: RBP -16
  DW_CFA_advance_loc: 3
  DW_CFA_def_cfa_register: RBP
  DW_CFA_advance_loc: 12
  DW_CFA_def_cfa: RSP +8
  DW_CFA_nop:
  DW_CFA_nop:
  DW_CFA_nop:

  0xee310: CFA=RSP+8: RIP=[CFA-8]
  0xee311: CFA=RSP+16: RBP=[CFA-16], RIP=[CFA-8]
  0xee314: CFA=RBP+16: RBP=[CFA-16], RIP=[CFA-8]
  0xee320: CFA=RSP+8: RBP=[CFA-16], RIP=[CFA-8]

00001ea0 00000020 00001ea4 FDE cie=00000000 pc=000ee330...000ee3b7
  Format:       DWARF32
  DW_CFA_advance_loc: 1
  DW_CFA_def_cfa_offset: +16
  DW_CFA_offset: RBP -16
  DW_CFA_advance_loc: 3
  DW_CFA_def_cfa_register: RBP
  DW_CFA_advance_loc: 5
  DW_CFA_offset: RBX -24
  DW_CFA_advance_loc1: 125
  DW_CFA_def_cfa: RSP +8
  DW_CFA_nop:
  DW_CFA_nop:
  DW_CFA_nop:

  0xee330: CFA=RSP+8: RIP=[CFA-8]
  0xee331: CFA=RSP+16: RBP=[CFA-16], RIP=[CFA-8]
  0xee334: CFA=RBP+16: RBP=[CFA-16], RIP=[CFA-8]
  0xee339: CFA=RBP+16: RBX=[CFA-24], RBP=[CFA-16], RIP=[CFA-8]
  0xee3b6: CFA=RSP+8: RBX=[CFA-24], RBP=[CFA-16], RIP=[CFA-8]

00001ec4 0000001c 00001ec8 FDE cie=00000000 pc=000ee3c0...000ee3e7
  Format:       DWARF32
  DW_CFA_advance_loc: 1
  DW_CFA_def_cfa_offset: +16
  DW_CFA_offset: RBP -16
  DW_CFA_advance_loc: 3
  DW_CFA_def_cfa_register: RBP
  DW_CFA_advance_loc: 34
  DW_CFA_def_cfa: RSP +8
  DW_CFA_nop:
  DW_CFA_nop:
  DW_CFA_nop:

  0xee3c0: CFA=RSP+8: RIP=[CFA-8]
  0xee3c1: CFA=RSP+16: RBP=[CFA-16], RIP=[CFA-8]
  0xee3c4: CFA=RBP+16: RBP=[CFA-16], RIP=[CFA-8]
  0xee3e6: CFA=RSP+8: RBP=[CFA-16], RIP=[CFA-8]

00001ee4 00000028 00001ee8 FDE cie=00000000 pc=000ee3f0...000ee4ff
  Format:       DWARF32
  DW_CFA_advance_loc: 1
  DW_CFA_def_cfa_offset: +16
  DW_CFA_offset: RBP -16
  DW_CFA_advance_loc: 3
  DW_CFA_def_cfa_register: RBP
  DW_CFA_advance_loc: 16
  DW_CFA_offset: RBX -56
  DW_CFA_offset: R12 -48
  DW_CFA_offset: R13 -40
  DW_CFA_offset: R14 -32
  DW_CFA_offset: R15 -24
  DW_CFA_advance_loc1: 250
  DW_CFA_def_cfa: RSP +8
  DW_CFA_nop:
  DW_CFA_nop:
  DW_CFA_nop:

  0xee3f0: CFA=RSP+8: RIP=[CFA-8]
  0xee3f1: CFA=RSP+16: RBP=[CFA-16], RIP=[CFA-8]
  0xee3f4: CFA=RBP+16: RBP=[CFA-16], RIP=[CFA-8]
  0xee404: CFA=RBP+16: RBX=[CFA-56], RBP=[CFA-16], R12=[CFA-48], R13=[CFA-40], R14=[CFA-32], R15=[CFA-24], RIP=[CFA-8]
  0xee4fe: CFA=RSP+8: RBX=[CFA-56], RBP=[CFA-16], R12=[CFA-48], R13=[CFA-40], R14=[CFA-32], R15=[CFA-24], RIP=[CFA-8]

00001f10 0000001c 00001f14 FDE cie=00000000 pc=000ee500...000ee51b
  Format:       DWARF32
  DW_CFA_advance_loc: 1
  DW_CFA_def_cfa_offset: +16
  DW_CFA_offset: RBP -16
  DW_CFA_advance_loc: 3
  DW_CFA_def_cfa_register: RBP
  DW_CFA_advance_loc: 22
  DW_CFA_def_cfa: RSP +8
  DW_CFA_nop:
  DW_CFA_nop:
  DW_CFA_nop:

  0xee500: CFA=RSP+8: RIP=[CFA-8]
  0xee501: CFA=RSP+16: RBP=[CFA-16], RIP=[CFA-8]
  0xee504: CFA=RBP+16: RBP=[CFA-16], RIP=[CFA-8]
  0xee51a: CFA=RSP+8: RBP=[CFA-16], RIP=[CFA-8]

00001f30 00000028 00001f34 FDE cie=00000000 pc=000ee520...000ee659
  Format:       DWARF32
  DW_CFA_advance_loc: 1
  DW_CFA_def_cfa_offset: +16
  DW_CFA_offset: RBP -16
  DW_CFA_advance_loc: 3
  DW_CFA_def_cfa_register: RBP
  DW_CFA_advance_loc: 16
  DW_CFA_offset: RBX -56
  DW_CFA_offset: R12 -48
  DW_CFA_offset: R13 -40
  DW_CFA_offset: R14 -32
  DW_CFA_offset: R15 -24
  DW_CFA_advance_loc2: 292
  DW_CFA_def_cfa: RSP +8
  DW_CFA_nop:
  DW_CFA_nop:

  0xee520: CFA=RSP+8: RIP=[CFA-8]
  0xee521: CFA=RSP+16: RBP=[CFA-16], RIP=[CFA-8]
  0xee524: CFA=RBP+16: RBP=[CFA-16], RIP=[CFA-8]
  0xee534: CFA=RBP+16: RBX=[CFA-56], RBP=[CFA-16], R12=[CFA-48], R13=[CFA-40], R14=[CFA-32], R15=[CFA-24], RIP=[CFA-8]
  0xee658: CFA=RSP+8: RBX=[CFA-56], RBP=[CFA-16], R12=[CFA-48], R13=[CFA-40], R14=[CFA-32], R15=[CFA-24], RIP=[CFA-8]

00001f5c 0000001c 00001f60 FDE cie=00000000 pc=000ee660...000ee681
  Format:       DWARF32
  DW_CFA_advance_loc: 1
  DW_CFA_def_cfa_offset: +16
  DW_CFA_offset: RBP -16
  DW_CFA_advance_loc: 3
  DW_CFA_def_cfa_register: RBP
  DW_CFA_advance_loc: 28
  DW_CFA_def_cfa: RSP +8
  DW_CFA_nop:
  DW_CFA_nop:
  DW_CFA_nop:

  0xee660: CFA=RSP+8: RIP=[CFA-8]
  0xee661: CFA=RSP+16: RBP=[CFA-16], RIP=[CFA-8]
  0xee664: CFA=RBP+16: RBP=[CFA-16], RIP=[CFA-8]
  0xee680: CFA=RSP+8: RBP=[CFA-16], RIP=[CFA-8]

00001f7c 00000020 00001f80 FDE cie=00000000 pc=000ee690...000ee717
  Format:       DWARF32
  DW_CFA_advance_loc: 1
  DW_CFA_def_cfa_offset: +16
  DW_CFA_offset: RBP -16
  DW_CFA_advance_loc: 3
  DW_CFA_def_cfa_register: RBP
  DW_CFA_advance_loc: 5
  DW_CFA_offset: RBX -24
  DW_CFA_advance_loc1: 125
  DW_CFA_def_cfa: RSP +8
  DW_CFA_nop:
  DW_CFA_nop:
  DW_CFA_nop:

  0xee690: CFA=RSP+8: RIP=[CFA-8]
  0xee691: CFA=RSP+16: RBP=[CFA-16], RIP=[CFA-8]
  0xee694: CFA=RBP+16: RBP=[CFA-16], RIP=[CFA-8]
  0xee699: CFA=RBP+16: RBX=[CFA-24], RBP=[CFA-16], RIP=[CFA-8]
  0xee716: CFA=RSP+8: RBX=[CFA-24], RBP=[CFA-16], RIP=[CFA-8]

00001fa0 0000001c 00001fa4 FDE cie=00000000 pc=000ee720...000ee731
  Format:       DWARF32
  DW_CFA_advance_loc: 1
  DW_CFA_def_cfa_offset: +16
  DW_CFA_offset: RBP -16
  DW_CFA_advance_loc: 3
  DW_CFA_def_cfa_register: RBP
  DW_CFA_advance_loc: 12
  DW_CFA_def_cfa: RSP +8
  DW_CFA_nop:
  DW_CFA_nop:
  DW_CFA_nop:

  0xee720: CFA=RSP+8: RIP=[CFA-8]
  0xee721: CFA=RSP+16: RBP=[CFA-16], RIP=[CFA-8]
  0xee724: CFA=RBP+16: RBP=[CFA-16], RIP=[CFA-8]
  0xee730: CFA=RSP+8: RBP=[CFA-16], RIP=[CFA-8]

00001fc0 00000020 00001fc4 FDE cie=00000000 pc=000ee740...000ee7c7
  Format:       DWARF32
  DW_CFA_advance_loc: 1
  DW_CFA_def_cfa_offset: +16
  DW_CFA_offset: RBP -16
  DW_CFA_advance_loc: 3
  DW_CFA_def_cfa_register: RBP
  DW_CFA_advance_loc: 5
  DW_CFA_offset: RBX -24
  DW_CFA_advance_loc1: 125
  DW_CFA_def_cfa: RSP +8
  DW_CFA_nop:
  DW_CFA_nop:
  DW_CFA_nop:

  0xee740: CFA=RSP+8: RIP=[CFA-8]
  0xee741: CFA=RSP+16: RBP=[CFA-16], RIP=[CFA-8]
  0xee744: CFA=RBP+16: RBP=[CFA-16], RIP=[CFA-8]
  0xee749: CFA=RBP+16: RBX=[CFA-24], RBP=[CFA-16], RIP=[CFA-8]
  0xee7c6: CFA=RSP+8: RBX=[CFA-24], RBP=[CFA-16], RIP=[CFA-8]

00001fe4 0000001c 00001fe8 FDE cie=00000000 pc=000ee7d0...000ee7fb
  Format:       DWARF32
  DW_CFA_advance_loc: 1
  DW_CFA_def_cfa_offset: +16
  DW_CFA_offset: RBP -16
  DW_CFA_advance_loc: 3
  DW_CFA_def_cfa_register: RBP
  DW_CFA_advance_loc: 38
  DW_CFA_def_cfa: RSP +8
  DW_CFA_nop:
  DW_CFA_nop:
  DW_CFA_nop:

  0xee7d0: CFA=RSP+8: RIP=[CFA-8]
  0xee7d1: CFA=RSP+16: RBP=[CFA-16], RIP=[CFA-8]
  0xee7d4: CFA=RBP+16: RBP=[CFA-16], RIP=[CFA-8]
  0xee7fa: CFA=RSP+8: RBP=[CFA-16], RIP=[CFA-8]

00002004 00000028 00002008 FDE cie=00000000 pc=000ee800...000ee900
  Format:       DWARF32
  DW_CFA_advance_loc: 1
  DW_CFA_def_cfa_offset: +16
  DW_CFA_offset: RBP -16
  DW_CFA_advance_loc: 3
  DW_CFA_def_cfa_register: RBP
  DW_CFA_advance_loc: 16
  DW_CFA_offset: RBX -56
  DW_CFA_offset: R12 -48
  DW_CFA_offset: R13 -40
  DW_CFA_offset: R14 -32
  DW_CFA_offset: R15 -24
  DW_CFA_advance_loc1: 235
  DW_CFA_def_cfa: RSP +8
  DW_CFA_nop:
  DW_CFA_nop:
  DW_CFA_nop:

  0xee800: CFA=RSP+8: RIP=[CFA-8]
  0xee801: CFA=RSP+16: RBP=[CFA-16], RIP=[CFA-8]
  0xee804: CFA=RBP+16: RBP=[CFA-16], RIP=[CFA-8]
  0xee814: CFA=RBP+16: RBX=[CFA-56], RBP=[CFA-16], R12=[CFA-48], R13=[CFA-40], R14=[CFA-32], R15=[CFA-24], RIP=[CFA-8]
  0xee8ff: CFA=RSP+8: RBX=[CFA-56], RBP=[CFA-16], R12=[CFA-48], R13=[CFA-40], R14=[CFA-32], R15=[CFA-24], RIP=[CFA-8]

00002030 0000001c 00002034 FDE cie=00000000 pc=000ee900...000ee923
  Format:       DWARF32
  DW_CFA_advance_loc: 1
  DW_CFA_def_cfa_offset: +16
  DW_CFA_offset: RBP -16
  DW_CFA_advance_loc: 3
  DW_CFA_def_cfa_register: RBP
  DW_CFA_advance_loc: 30
  DW_CFA_def_cfa: RSP +8
  DW_CFA_nop:
  DW_CFA_nop:
  DW_CFA_nop:

  0xee900: CFA=RSP+8: RIP=[CFA-8]
  0xee901: CFA=RSP+16: RBP=[CFA-16], RIP=[CFA-8]
  0xee904: CFA=RBP+16: RBP=[CFA-16], RIP=[CFA-8]
  0xee922: CFA=RSP+8: RBP=[CFA-16], RIP=[CFA-8]

00002050 0000001c 00002054 FDE cie=00000000 pc=000ee930...000eea39
  Format:       DWARF32
  DW_CFA_advance_loc: 1
  DW_CFA_def_cfa_offset: +16
  DW_CFA_offset: RBP -16
  DW_CFA_advance_loc: 3
  DW_CFA_def_cfa_register: RBP
  DW_CFA_advance_loc2: 260
  DW_CFA_def_cfa: RSP +8
  DW_CFA_nop:

  0xee930: CFA=RSP+8: RIP=[CFA-8]
  0xee931: CFA=RSP+16: RBP=[CFA-16], RIP=[CFA-8]
  0xee934: CFA=RBP+16: RBP=[CFA-16], RIP=[CFA-8]
  0xeea38: CFA=RSP+8: RBP=[CFA-16], RIP=[CFA-8]

00002070 0000001c 00002074 FDE cie=00000000 pc=000eea40...000eea63
  Format:       DWARF32
  DW_CFA_advance_loc: 1
  DW_CFA_def_cfa_offset: +16
  DW_CFA_offset: RBP -16
  DW_CFA_advance_loc: 3
  DW_CFA_def_cfa_register: RBP
  DW_CFA_advance_loc: 30
  DW_CFA_def_cfa: RSP +8
  DW_CFA_nop:
  DW_CFA_nop:
  DW_CFA_nop:

  0xeea40: CFA=RSP+8: RIP=[CFA-8]
  0xeea41: CFA=RSP+16: RBP=[CFA-16], RIP=[CFA-8]
  0xeea44: CFA=RBP+16: RBP=[CFA-16], RIP=[CFA-8]
  0xeea62: CFA=RSP+8: RBP=[CFA-16], RIP=[CFA-8]

00002090 00000024 00002094 FDE cie=00000000 pc=000eea70...000eeb2e
  Format:       DWARF32
  DW_CFA_advance_loc: 1
  DW_CFA_def_cfa_offset: +16
  DW_CFA_offset: RBP -16
  DW_CFA_advance_loc: 3
  DW_CFA_def_cfa_register: RBP
  DW_CFA_advance_loc: 11
  DW_CFA_offset: RBX -48
  DW_CFA_offset: R12 -40
  DW_CFA_offset: R14 -32
  DW_CFA_offset: R15 -24
  DW_CFA_advance_loc1: 174
  DW_CFA_def_cfa: RSP +8
  DW_CFA_nop:

  0xeea70: CFA=RSP+8: RIP=[CFA-8]
  0xeea71: CFA=RSP+16: RBP=[CFA-16], RIP=[CFA-8]
  0xeea74: CFA=RBP+16: RBP=[CFA-16], RIP=[CFA-8]
  0xeea7f: CFA=RBP+16: RBX=[CFA-48], RBP=[CFA-16], R12=[CFA-40], R14=[CFA-32], R15=[CFA-24], RIP=[CFA-8]
  0xeeb2d: CFA=RSP+8: RBX=[CFA-48], RBP=[CFA-16], R12=[CFA-40], R14=[CFA-32], R15=[CFA-24], RIP=[CFA-8]

000020b8 0000001c 000020bc FDE cie=00000000 pc=000eeb30...000eeb5b
  Format:       DWARF32
  DW_CFA_advance_loc: 1
  DW_CFA_def_cfa_offset: +16
  DW_CFA_offset: RBP -16
  DW_CFA_advance_loc: 3
  DW_CFA_def_cfa_register: RBP
  DW_CFA_advance_loc: 38
  DW_CFA_def_cfa: RSP +8
  DW_CFA_nop:
  DW_CFA_nop:
  DW_CFA_nop:

  0xeeb30: CFA=RSP+8: RIP=[CFA-8]
  0xeeb31: CFA=RSP+16: RBP=[CFA-16], RIP=[CFA-8]
  0xeeb34: CFA=RBP+16: RBP=[CFA-16], RIP=[CFA-8]
  0xeeb5a: CFA=RSP+8: RBP=[CFA-16], RIP=[CFA-8]

000020d8 00000028 000020dc FDE cie=00000000 pc=000eeb60...000eec6f
  Format:       DWARF32
  DW_CFA_advance_loc: 1
  DW_CFA_def_cfa_offset: +16
  DW_CFA_offset: RBP -16
  DW_CFA_advance_loc: 3
  DW_CFA_def_cfa_register: RBP
  DW_CFA_advance_loc: 16
  DW_CFA_offset: RBX -56
  DW_CFA_offset: R12 -48
  DW_CFA_offset: R13 -40
  DW_CFA_offset: R14 -32
  DW_CFA_offset: R15 -24
  DW_CFA_advance_loc1: 250
  DW_CFA_def_cfa: RSP +8
  DW_CFA_nop:
  DW_CFA_nop:
  DW_CFA_nop:

  0xeeb60: CFA=RSP+8: RIP=[CFA-8]
  0xeeb61: CFA=RSP+16: RBP=[CFA-16], RIP=[CFA-8]
  0xeeb64: CFA=RBP+16: RBP=[CFA-16], RIP=[CFA-8]
  0xeeb74: CFA=RBP+16: RBX=[CFA-56], RBP=[CFA-16], R12=[CFA-48], R13=[CFA-40], R14=[CFA-32], R15=[CFA-24], RIP=[CFA-8]
  0xeec6e: CFA=RSP+8: RBX=[CFA-56], RBP=[CFA-16], R12=[CFA-48], R13=[CFA-40], R14=[CFA-32], R15=[CFA-24], RIP=[CFA-8]

00002104 0000001c 00002108 FDE cie=00000000 pc=000eec70...000eec85
  Format:       DWARF32
  DW_CFA_advance_loc: 1
  DW_CFA_def_cfa_offset: +16
  DW_CFA_offset: RBP -16
  DW_CFA_advance_loc: 3
  DW_CFA_def_cfa_register: RBP
  DW_CFA_advance_loc: 16
  DW_CFA_def_cfa: RSP +8
  DW_CFA_nop:
  DW_CFA_nop:
  DW_CFA_nop:

  0xeec70: CFA=RSP+8: RIP=[CFA-8]
  0xeec71: CFA=RSP+16: RBP=[CFA-16], RIP=[CFA-8]
  0xeec74: CFA=RBP+16: RBP=[CFA-16], RIP=[CFA-8]
  0xeec84: CFA=RSP+8: RBP=[CFA-16], RIP=[CFA-8]

00002124 00000028 00002128 FDE cie=00000000 pc=000eec90...000eed79
  Format:       DWARF32
  DW_CFA_advance_loc: 1
  DW_CFA_def_cfa_offset: +16
  DW_CFA_offset: RBP -16
  DW_CFA_advance_loc: 3
  DW_CFA_def_cfa_register: RBP
  DW_CFA_advance_loc: 16
  DW_CFA_offset: RBX -56
  DW_CFA_offset: R12 -48
  DW_CFA_offset: R13 -40
  DW_CFA_offset: R14 -32
  DW_CFA_offset: R15 -24
  DW_CFA_advance_loc1: 212
  DW_CFA_def_cfa: RSP +8
  DW_CFA_nop:
  DW_CFA_nop:
  DW_CFA_nop:

  0xeec90: CFA=RSP+8: RIP=[CFA-8]
  0xeec91: CFA=RSP+16: RBP=[CFA-16], RIP=[CFA-8]
  0xeec94: CFA=RBP+16: RBP=[CFA-16], RIP=[CFA-8]
  0xeeca4: CFA=RBP+16: RBX=[CFA-56], RBP=[CFA-16], R12=[CFA-48], R13=[CFA-40], R14=[CFA-32], R15=[CFA-24], RIP=[CFA-8]
  0xeed78: CFA=RSP+8: RBX=[CFA-56], RBP=[CFA-16], R12=[CFA-48], R13=[CFA-40], R14=[CFA-32], R15=[CFA-24], RIP=[CFA-8]

00002150 0000001c 00002154 FDE cie=00000000 pc=000eed80...000eedab
  Format:       DWARF32
  DW_CFA_advance_loc: 1
  DW_CFA_def_cfa_offset: +16
  DW_CFA_offset: RBP -16
  DW_CFA_advance_loc: 3
  DW_CFA_def_cfa_register: RBP
  DW_CFA_advance_loc: 38
  DW_CFA_def_cfa: RSP +8
  DW_CFA_nop:
  DW_CFA_nop:
  DW_CFA_nop:

  0xeed80: CFA=RSP+8: RIP=[CFA-8]
  0xeed81: CFA=RSP+16: RBP=[CFA-16], RIP=[CFA-8]
  0xeed84: CFA=RBP+16: RBP=[CFA-16], RIP=[CFA-8]
  0xeedaa: CFA=RSP+8: RBP=[CFA-16], RIP=[CFA-8]

00002170 00000020 00002174 FDE cie=00000000 pc=000eedb0...000eef12
  Format:       DWARF32
  DW_CFA_advance_loc: 1
  DW_CFA_def_cfa_offset: +16
  DW_CFA_offset: RBP -16
  DW_CFA_advance_loc: 3
  DW_CFA_def_cfa_register: RBP
  DW_CFA_advance_loc: 8
  DW_CFA_offset: RBX -24
  DW_CFA_advance_loc2: 341
  DW_CFA_def_cfa: RSP +8
  DW_CFA_nop:
  DW_CFA_nop:

  0xeedb0: CFA=RSP+8: RIP=[CFA-8]
  0xeedb1: CFA=RSP+16: RBP=[CFA-16], RIP=[CFA-8]
  0xeedb4: CFA=RBP+16: RBP=[CFA-16], RIP=[CFA-8]
  0xeedbc: CFA=RBP+16: RBX=[CFA-24], RBP=[CFA-16], RIP=[CFA-8]
  0xeef11: CFA=RSP+8: RBX=[CFA-24], RBP=[CFA-16], RIP=[CFA-8]

00002194 0000001c 00002198 FDE cie=00000000 pc=000eef20...000eef3b
  Format:       DWARF32
  DW_CFA_advance_loc: 1
  DW_CFA_def_cfa_offset: +16
  DW_CFA_offset: RBP -16
  DW_CFA_advance_loc: 3
  DW_CFA_def_cfa_register: RBP
  DW_CFA_advance_loc: 22
  DW_CFA_def_cfa: RSP +8
  DW_CFA_nop:
  DW_CFA_nop:
  DW_CFA_nop:

  0xeef20: CFA=RSP+8: RIP=[CFA-8]
  0xeef21: CFA=RSP+16: RBP=[CFA-16], RIP=[CFA-8]
  0xeef24: CFA=RBP+16: RBP=[CFA-16], RIP=[CFA-8]
  0xeef3a: CFA=RSP+8: RBP=[CFA-16], RIP=[CFA-8]

000021b4 00000028 000021b8 FDE cie=00000000 pc=000eef40...000ef07d
  Format:       DWARF32
  DW_CFA_advance_loc: 1
  DW_CFA_def_cfa_offset: +16
  DW_CFA_offset: RBP -16
  DW_CFA_advance_loc: 3
  DW_CFA_def_cfa_register: RBP
  DW_CFA_advance_loc: 16
  DW_CFA_offset: RBX -56
  DW_CFA_offset: R12 -48
  DW_CFA_offset: R13 -40
  DW_CFA_offset: R14 -32
  DW_CFA_offset: R15 -24
  DW_CFA_advance_loc2: 296
  DW_CFA_def_cfa: RSP +8
  DW_CFA_nop:
  DW_CFA_nop:

  0xeef40: CFA=RSP+8: RIP=[CFA-8]
  0xeef41: CFA=RSP+16: RBP=[CFA-16], RIP=[CFA-8]
  0xeef44: CFA=RBP+16: RBP=[CFA-16], RIP=[CFA-8]
  0xeef54: CFA=RBP+16: RBX=[CFA-56], RBP=[CFA-16], R12=[CFA-48], R13=[CFA-40], R14=[CFA-32], R15=[CFA-24], RIP=[CFA-8]
  0xef07c: CFA=RSP+8: RBX=[CFA-56], RBP=[CFA-16], R12=[CFA-48], R13=[CFA-40], R14=[CFA-32], R15=[CFA-24], RIP=[CFA-8]

000021e0 0000001c 000021e4 FDE cie=00000000 pc=000ef080...000ef0a9
  Format:       DWARF32
  DW_CFA_advance_loc: 1
  DW_CFA_def_cfa_offset: +16
  DW_CFA_offset: RBP -16
  DW_CFA_advance_loc: 3
  DW_CFA_def_cfa_register: RBP
  DW_CFA_advance_loc: 36
  DW_CFA_def_cfa: RSP +8
  DW_CFA_nop:
  DW_CFA_nop:
  DW_CFA_nop:

  0xef080: CFA=RSP+8: RIP=[CFA-8]
  0xef081: CFA=RSP+16: RBP=[CFA-16], RIP=[CFA-8]
  0xef084: CFA=RBP+16: RBP=[CFA-16], RIP=[CFA-8]
  0xef0a8: CFA=RSP+8: RBP=[CFA-16], RIP=[CFA-8]

00002200 0000001c 00002204 FDE cie=00000000 pc=000ef0b0...000ef1f1
  Format:       DWARF32
  DW_CFA_advance_loc: 1
  DW_CFA_def_cfa_offset: +16
  DW_CFA_offset: RBP -16
  DW_CFA_advance_loc: 3
  DW_CFA_def_cfa_register: RBP
  DW_CFA_advance_loc2: 316
  DW_CFA_def_cfa: RSP +8
  DW_CFA_nop:

  0xef0b0: CFA=RSP+8: RIP=[CFA-8]
  0xef0b1: CFA=RSP+16: RBP=[CFA-16], RIP=[CFA-8]
  0xef0b4: CFA=RBP+16: RBP=[CFA-16], RIP=[CFA-8]
  0xef1f0: CFA=RSP+8: RBP=[CFA-16], RIP=[CFA-8]

00002220 0000001c 00002224 FDE cie=00000000 pc=000ef200...000ef21b
  Format:       DWARF32
  DW_CFA_advance_loc: 1
  DW_CFA_def_cfa_offset: +16
  DW_CFA_offset: RBP -16
  DW_CFA_advance_loc: 3
  DW_CFA_def_cfa_register: RBP
  DW_CFA_advance_loc: 22
  DW_CFA_def_cfa: RSP +8
  DW_CFA_nop:
  DW_CFA_nop:
  DW_CFA_nop:

  0xef200: CFA=RSP+8: RIP=[CFA-8]
  0xef201: CFA=RSP+16: RBP=[CFA-16], RIP=[CFA-8]
  0xef204: CFA=RBP+16: RBP=[CFA-16], RIP=[CFA-8]
  0xef21a: CFA=RSP+8: RBP=[CFA-16], RIP=[CFA-8]

00002240 00000028 00002244 FDE cie=00000000 pc=000ef220...000ef35d
  Format:       DWARF32
  DW_CFA_advance_loc: 1
  DW_CFA_def_cfa_offset: +16
  DW_CFA_offset: RBP -16
  DW_CFA_advance_loc: 3
  DW_CFA_def_cfa_register: RBP
  DW_CFA_advance_loc: 16
  DW_CFA_offset: RBX -56
  DW_CFA_offset: R12 -48
  DW_CFA_offset: R13 -40
  DW_CFA_offset: R14 -32
  DW_CFA_offset: R15 -24
  DW_CFA_advance_loc2: 296
  DW_CFA_def_cfa: RSP +8
  DW_CFA_nop:
  DW_CFA_nop:

  0xef220: CFA=RSP+8: RIP=[CFA-8]
  0xef221: CFA=RSP+16: RBP=[CFA-16], RIP=[CFA-8]
  0xef224: CFA=RBP+16: RBP=[CFA-16], RIP=[CFA-8]
  0xef234: CFA=RBP+16: RBX=[CFA-56], RBP=[CFA-16], R12=[CFA-48], R13=[CFA-40], R14=[CFA-32], R15=[CFA-24], RIP=[CFA-8]
  0xef35c: CFA=RSP+8: RBX=[CFA-56], RBP=[CFA-16], R12=[CFA-48], R13=[CFA-40], R14=[CFA-32], R15=[CFA-24], RIP=[CFA-8]

0000226c 0000001c 00002270 FDE cie=00000000 pc=000ef360...000ef370
  Format:       DWARF32
  DW_CFA_advance_loc: 1
  DW_CFA_def_cfa_offset: +16
  DW_CFA_offset: RBP -16
  DW_CFA_advance_loc: 3
  DW_CFA_def_cfa_register: RBP
  DW_CFA_advance_loc: 11
  DW_CFA_def_cfa: RSP +8
  DW_CFA_nop:
  DW_CFA_nop:
  DW_CFA_nop:

  0xef360: CFA=RSP+8: RIP=[CFA-8]
  0xef361: CFA=RSP+16: RBP=[CFA-16], RIP=[CFA-8]
  0xef364: CFA=RBP+16: RBP=[CFA-16], RIP=[CFA-8]
  0xef36f: CFA=RSP+8: RBP=[CFA-16], RIP=[CFA-8]

0000228c 00000020 00002290 FDE cie=00000000 pc=000ef370...000ef3f7
  Format:       DWARF32
  DW_CFA_advance_loc: 1
  DW_CFA_def_cfa_offset: +16
  DW_CFA_offset: RBP -16
  DW_CFA_advance_loc: 3
  DW_CFA_def_cfa_register: RBP
  DW_CFA_advance_loc: 5
  DW_CFA_offset: RBX -24
  DW_CFA_advance_loc1: 125
  DW_CFA_def_cfa: RSP +8
  DW_CFA_nop:
  DW_CFA_nop:
  DW_CFA_nop:

  0xef370: CFA=RSP+8: RIP=[CFA-8]
  0xef371: CFA=RSP+16: RBP=[CFA-16], RIP=[CFA-8]
  0xef374: CFA=RBP+16: RBP=[CFA-16], RIP=[CFA-8]
  0xef379: CFA=RBP+16: RBX=[CFA-24], RBP=[CFA-16], RIP=[CFA-8]
  0xef3f6: CFA=RSP+8: RBX=[CFA-24], RBP=[CFA-16], RIP=[CFA-8]

000022b0 0000001c 000022b4 FDE cie=00000000 pc=000ef400...000ef415
  Format:       DWARF32
  DW_CFA_advance_loc: 1
  DW_CFA_def_cfa_offset: +16
  DW_CFA_offset: RBP -16
  DW_CFA_advance_loc: 3
  DW_CFA_def_cfa_register: RBP
  DW_CFA_advance_loc: 16
  DW_CFA_def_cfa: RSP +8
  DW_CFA_nop:
  DW_CFA_nop:
  DW_CFA_nop:

  0xef400: CFA=RSP+8: RIP=[CFA-8]
  0xef401: CFA=RSP+16: RBP=[CFA-16], RIP=[CFA-8]
  0xef404: CFA=RBP+16: RBP=[CFA-16], RIP=[CFA-8]
  0xef414: CFA=RSP+8: RBP=[CFA-16], RIP=[CFA-8]

000022d0 0000001c 000022d4 FDE cie=00000000 pc=000ef420...000ef478
  Format:       DWARF32
  DW_CFA_advance_loc: 1
  DW_CFA_def_cfa_offset: +16
  DW_CFA_offset: RBP -16
  DW_CFA_advance_loc: 3
  DW_CFA_def_cfa_register: RBP
  DW_CFA_advance_loc1: 83
  DW_CFA_def_cfa: RSP +8
  DW_CFA_nop:
  DW_CFA_nop:

  0xef420: CFA=RSP+8: RIP=[CFA-8]
  0xef421: CFA=RSP+16: RBP=[CFA-16], RIP=[CFA-8]
  0xef424: CFA=RBP+16: RBP=[CFA-16], RIP=[CFA-8]
  0xef477: CFA=RSP+8: RBP=[CFA-16], RIP=[CFA-8]

000022f0 0000001c 000022f4 FDE cie=00000000 pc=000ef480...000ef499
  Format:       DWARF32
  DW_CFA_advance_loc: 1
  DW_CFA_def_cfa_offset: +16
  DW_CFA_offset: RBP -16
  DW_CFA_advance_loc: 3
  DW_CFA_def_cfa_register: RBP
  DW_CFA_advance_loc: 20
  DW_CFA_def_cfa: RSP +8
  DW_CFA_nop:
  DW_CFA_nop:
  DW_CFA_nop:

  0xef480: CFA=RSP+8: RIP=[CFA-8]
  0xef481: CFA=RSP+16: RBP=[CFA-16], RIP=[CFA-8]
  0xef484: CFA=RBP+16: RBP=[CFA-16], RIP=[CFA-8]
  0xef498: CFA=RSP+8: RBP=[CFA-16], RIP=[CFA-8]

00002310 0000001c 00002314 FDE cie=00000000 pc=000ef4a0...000ef4c7
  Format:       DWARF32
  DW_CFA_advance_loc: 1
  DW_CFA_def_cfa_offset: +16
  DW_CFA_offset: RBP -16
  DW_CFA_advance_loc: 3
  DW_CFA_def_cfa_register: RBP
  DW_CFA_advance_loc: 34
  DW_CFA_def_cfa: RSP +8
  DW_CFA_nop:
  DW_CFA_nop:
  DW_CFA_nop:

  0xef4a0: CFA=RSP+8: RIP=[CFA-8]
  0xef4a1: CFA=RSP+16: RBP=[CFA-16], RIP=[CFA-8]
  0xef4a4: CFA=RBP+16: RBP=[CFA-16], RIP=[CFA-8]
  0xef4c6: CFA=RSP+8: RBP=[CFA-16], RIP=[CFA-8]

00002330 0000001c 00002334 FDE cie=00000000 pc=000ef4d0...000ef4f7
  Format:       DWARF32
  DW_CFA_advance_loc: 1
  DW_CFA_def_cfa_offset: +16
  DW_CFA_offset: RBP -16
  DW_CFA_advance_loc: 3
  DW_CFA_def_cfa_register: RBP
  DW_CFA_advance_loc: 34
  DW_CFA_def_cfa: RSP +8
  DW_CFA_nop:
  DW_CFA_nop:
  DW_CFA_nop:

  0xef4d0: CFA=RSP+8: RIP=[CFA-8]
  0xef4d1: CFA=RSP+16: RBP=[CFA-16], RIP=[CFA-8]
  0xef4d4: CFA=RBP+16: RBP=[CFA-16], RIP=[CFA-8]
  0xef4f6: CFA=RSP+8: RBP=[CFA-16], RIP=[CFA-8]

00002350 0000001c 00002354 FDE cie=00000000 pc=000ef500...000ef527
  Format:       DWARF32
  DW_CFA_advance_loc: 1
  DW_CFA_def_cfa_offset: +16
  DW_CFA_offset: RBP -16
  DW_CFA_advance_loc: 3
  DW_CFA_def_cfa_register: RBP
  DW_CFA_advance_loc: 34
  DW_CFA_def_cfa: RSP +8
  DW_CFA_nop:
  DW_CFA_nop:
  DW_CFA_nop:

  0xef500: CFA=RSP+8: RIP=[CFA-8]
  0xef501: CFA=RSP+16: RBP=[CFA-16], RIP=[CFA-8]
  0xef504: CFA=RBP+16: RBP=[CFA-16], RIP=[CFA-8]
  0xef526: CFA=RSP+8: RBP=[CFA-16], RIP=[CFA-8]

00002370 0000001c 00002374 FDE cie=00000000 pc=000ef530...000ef557
  Format:       DWARF32
  DW_CFA_advance_loc: 1
  DW_CFA_def_cfa_offset: +16
  DW_CFA_offset: RBP -16
  DW_CFA_advance_loc: 3
  DW_CFA_def_cfa_register: RBP
  DW_CFA_advance_loc: 34
  DW_CFA_def_cfa: RSP +8
  DW_CFA_nop:
  DW_CFA_nop:
  DW_CFA_nop:

  0xef530: CFA=RSP+8: RIP=[CFA-8]
  0xef531: CFA=RSP+16: RBP=[CFA-16], RIP=[CFA-8]
  0xef534: CFA=RBP+16: RBP=[CFA-16], RIP=[CFA-8]
  0xef556: CFA=RSP+8: RBP=[CFA-16], RIP=[CFA-8]

00002390 0000001c 00002394 FDE cie=00000000 pc=000ef560...000ef587
  Format:       DWARF32
  DW_CFA_advance_loc: 1
  DW_CFA_def_cfa_offset: +16
  DW_CFA_offset: RBP -16
  DW_CFA_advance_loc: 3
  DW_CFA_def_cfa_register: RBP
  DW_CFA_advance_loc: 34
  DW_CFA_def_cfa: RSP +8
  DW_CFA_nop:
  DW_CFA_nop:
  DW_CFA_nop:

  0xef560: CFA=RSP+8: RIP=[CFA-8]
  0xef561: CFA=RSP+16: RBP=[CFA-16], RIP=[CFA-8]
  0xef564: CFA=RBP+16: RBP=[CFA-16], RIP=[CFA-8]
  0xef586: CFA=RSP+8: RBP=[CFA-16], RIP=[CFA-8]

000023b0 0000001c 000023b4 FDE cie=00000000 pc=000ef590...000ef5a2
  Format:       DWARF32
  DW_CFA_advance_loc: 1
  DW_CFA_def_cfa_offset: +16
  DW_CFA_offset: RBP -16
  DW_CFA_advance_loc: 3
  DW_CFA_def_cfa_register: RBP
  DW_CFA_advance_loc: 13
  DW_CFA_def_cfa: RSP +8
  DW_CFA_nop:
  DW_CFA_nop:
  DW_CFA_nop:

  0xef590: CFA=RSP+8: RIP=[CFA-8]
  0xef591: CFA=RSP+16: RBP=[CFA-16], RIP=[CFA-8]
  0xef594: CFA=RBP+16: RBP=[CFA-16], RIP=[CFA-8]
  0xef5a1: CFA=RSP+8: RBP=[CFA-16], RIP=[CFA-8]

000023d0 0000001c 000023d4 FDE cie=00000000 pc=000ef5b0...000ef5d7
  Format:       DWARF32
  DW_CFA_advance_loc: 1
  DW_CFA_def_cfa_offset: +16
  DW_CFA_offset: RBP -16
  DW_CFA_advance_loc: 3
  DW_CFA_def_cfa_register: RBP
  DW_CFA_advance_loc: 34
  DW_CFA_def_cfa: RSP +8
  DW_CFA_nop:
  DW_CFA_nop:
  DW_CFA_nop:

  0xef5b0: CFA=RSP+8: RIP=[CFA-8]
  0xef5b1: CFA=RSP+16: RBP=[CFA-16], RIP=[CFA-8]
  0xef5b4: CFA=RBP+16: RBP=[CFA-16], RIP=[CFA-8]
  0xef5d6: CFA=RSP+8: RBP=[CFA-16], RIP=[CFA-8]

000023f0 0000001c 000023f4 FDE cie=00000000 pc=000ef5e0...000ef603
  Format:       DWARF32
  DW_CFA_advance_loc: 1
  DW_CFA_def_cfa_offset: +16
  DW_CFA_offset: RBP -16
  DW_CFA_advance_loc: 3
  DW_CFA_def_cfa_register: RBP
  DW_CFA_advance_loc: 30
  DW_CFA_def_cfa: RSP +8
  DW_CFA_nop:
  DW_CFA_nop:
  DW_CFA_nop:

  0xef5e0: CFA=RSP+8: RIP=[CFA-8]
  0xef5e1: CFA=RSP+16: RBP=[CFA-16], RIP=[CFA-8]
  0xef5e4: CFA=RBP+16: RBP=[CFA-16], RIP=[CFA-8]
  0xef602: CFA=RSP+8: RBP=[CFA-16], RIP=[CFA-8]

00002410 0000001c 00002414 FDE cie=00000000 pc=000ef610...000ef637
  Format:       DWARF32
  DW_CFA_advance_loc: 1
  DW_CFA_def_cfa_offset: +16
  DW_CFA_offset: RBP -16
  DW_CFA_advance_loc: 3
  DW_CFA_def_cfa_register: RBP
  DW_CFA_advance_loc: 34
  DW_CFA_def_cfa: RSP +8
  DW_CFA_nop:
  DW_CFA_nop:
  DW_CFA_nop:

  0xef610: CFA=RSP+8: RIP=[CFA-8]
  0xef611: CFA=RSP+16: RBP=[CFA-16], RIP=[CFA-8]
  0xef614: CFA=RBP+16: RBP=[CFA-16], RIP=[CFA-8]
  0xef636: CFA=RSP+8: RBP=[CFA-16], RIP=[CFA-8]

00002430 0000001c 00002434 FDE cie=00000000 pc=000ef640...000ef64f
  Format:       DWARF32
  DW_CFA_advance_loc: 1
  DW_CFA_def_cfa_offset: +16
  DW_CFA_offset: RBP -16
  DW_CFA_advance_loc: 3
  DW_CFA_def_cfa_register: RBP
  DW_CFA_advance_loc: 10
  DW_CFA_def_cfa: RSP +8
  DW_CFA_nop:
  DW_CFA_nop:
  DW_CFA_nop:

  0xef640: CFA=RSP+8: RIP=[CFA-8]
  0xef641: CFA=RSP+16: RBP=[CFA-16], RIP=[CFA-8]
  0xef644: CFA=RBP+16: RBP=[CFA-16], RIP=[CFA-8]
  0xef64e: CFA=RSP+8: RBP=[CFA-16], RIP=[CFA-8]

00002450 0000001c 00002454 FDE cie=00000000 pc=000ef650...000ef66b
  Format:       DWARF32
  DW_CFA_advance_loc: 1
  DW_CFA_def_cfa_offset: +16
  DW_CFA_offset: RBP -16
  DW_CFA_advance_loc: 3
  DW_CFA_def_cfa_register: RBP
  DW_CFA_advance_loc: 22
  DW_CFA_def_cfa: RSP +8
  DW_CFA_nop:
  DW_CFA_nop:
  DW_CFA_nop:

  0xef650: CFA=RSP+8: RIP=[CFA-8]
  0xef651: CFA=RSP+16: RBP=[CFA-16], RIP=[CFA-8]
  0xef654: CFA=RBP+16: RBP=[CFA-16], RIP=[CFA-8]
  0xef66a: CFA=RSP+8: RBP=[CFA-16], RIP=[CFA-8]

00002470 0000001c 00002474 FDE cie=00000000 pc=000ef670...000ef693
  Format:       DWARF32
  DW_CFA_advance_loc: 1
  DW_CFA_def_cfa_offset: +16
  DW_CFA_offset: RBP -16
  DW_CFA_advance_loc: 3
  DW_CFA_def_cfa_register: RBP
  DW_CFA_advance_loc: 30
  DW_CFA_def_cfa: RSP +8
  DW_CFA_nop:
  DW_CFA_nop:
  DW_CFA_nop:

  0xef670: CFA=RSP+8: RIP=[CFA-8]
  0xef671: CFA=RSP+16: RBP=[CFA-16], RIP=[CFA-8]
  0xef674: CFA=RBP+16: RBP=[CFA-16], RIP=[CFA-8]
  0xef692: CFA=RSP+8: RBP=[CFA-16], RIP=[CFA-8]

00002490 0000001c 00002494 FDE cie=00000000 pc=000ef6a0...000ef704
  Format:       DWARF32
  DW_CFA_advance_loc: 1
  DW_CFA_def_cfa_offset: +16
  DW_CFA_offset: RBP -16
  DW_CFA_advance_loc: 3
  DW_CFA_def_cfa_register: RBP
  DW_CFA_advance_loc1: 95
  DW_CFA_def_cfa: RSP +8
  DW_CFA_nop:
  DW_CFA_nop:

  0xef6a0: CFA=RSP+8: RIP=[CFA-8]
  0xef6a1: CFA=RSP+16: RBP=[CFA-16], RIP=[CFA-8]
  0xef6a4: CFA=RBP+16: RBP=[CFA-16], RIP=[CFA-8]
  0xef703: CFA=RSP+8: RBP=[CFA-16], RIP=[CFA-8]

000024b0 0000001c 000024b4 FDE cie=00000000 pc=000ef710...000ef7b7
  Format:       DWARF32
  DW_CFA_advance_loc: 1
  DW_CFA_def_cfa_offset: +16
  DW_CFA_offset: RBP -16
  DW_CFA_advance_loc: 3
  DW_CFA_def_cfa_register: RBP
  DW_CFA_advance_loc1: 162
  DW_CFA_def_cfa: RSP +8
  DW_CFA_nop:
  DW_CFA_nop:

  0xef710: CFA=RSP+8: RIP=[CFA-8]
  0xef711: CFA=RSP+16: RBP=[CFA-16], RIP=[CFA-8]
  0xef714: CFA=RBP+16: RBP=[CFA-16], RIP=[CFA-8]
  0xef7b6: CFA=RSP+8: RBP=[CFA-16], RIP=[CFA-8]

000024d0 0000001c 000024d4 FDE cie=00000000 pc=000ef7c0...000ef8b3
  Format:       DWARF32
  DW_CFA_advance_loc: 1
  DW_CFA_def_cfa_offset: +16
  DW_CFA_offset: RBP -16
  DW_CFA_advance_loc: 3
  DW_CFA_def_cfa_register: RBP
  DW_CFA_advance_loc1: 238
  DW_CFA_def_cfa: RSP +8
  DW_CFA_nop:
  DW_CFA_nop:

  0xef7c0: CFA=RSP+8: RIP=[CFA-8]
  0xef7c1: CFA=RSP+16: RBP=[CFA-16], RIP=[CFA-8]
  0xef7c4: CFA=RBP+16: RBP=[CFA-16], RIP=[CFA-8]
  0xef8b2: CFA=RSP+8: RBP=[CFA-16], RIP=[CFA-8]

000024f0 0000001c 000024f4 FDE cie=00000000 pc=000ef8c0...000ef8f5
  Format:       DWARF32
  DW_CFA_advance_loc: 1
  DW_CFA_def_cfa_offset: +16
  DW_CFA_offset: RBP -16
  DW_CFA_advance_loc: 3
  DW_CFA_def_cfa_register: RBP
  DW_CFA_advance_loc: 48
  DW_CFA_def_cfa: RSP +8
  DW_CFA_nop:
  DW_CFA_nop:
  DW_CFA_nop:

  0xef8c0: CFA=RSP+8: RIP=[CFA-8]
  0xef8c1: CFA=RSP+16: RBP=[CFA-16], RIP=[CFA-8]
  0xef8c4: CFA=RBP+16: RBP=[CFA-16], RIP=[CFA-8]
  0xef8f4: CFA=RSP+8: RBP=[CFA-16], RIP=[CFA-8]

00002510 0000001c 00002514 FDE cie=00000000 pc=000ef900...000ef9cb
  Format:       DWARF32
  DW_CFA_advance_loc: 1
  DW_CFA_def_cfa_offset: +16
  DW_CFA_offset: RBP -16
  DW_CFA_advance_loc: 3
  DW_CFA_def_cfa_register: RBP
  DW_CFA_advance_loc1: 198
  DW_CFA_def_cfa: RSP +8
  DW_CFA_nop:
  DW_CFA_nop:

  0xef900: CFA=RSP+8: RIP=[CFA-8]
  0xef901: CFA=RSP+16: RBP=[CFA-16], RIP=[CFA-8]
  0xef904: CFA=RBP+16: RBP=[CFA-16], RIP=[CFA-8]
  0xef9ca: CFA=RSP+8: RBP=[CFA-16], RIP=[CFA-8]

00002530 0000001c 00002534 FDE cie=00000000 pc=000ef9d0...000efac3
  Format:       DWARF32
  DW_CFA_advance_loc: 1
  DW_CFA_def_cfa_offset: +16
  DW_CFA_offset: RBP -16
  DW_CFA_advance_loc: 3
  DW_CFA_def_cfa_register: RBP
  DW_CFA_advance_loc1: 238
  DW_CFA_def_cfa: RSP +8
  DW_CFA_nop:
  DW_CFA_nop:

  0xef9d0: CFA=RSP+8: RIP=[CFA-8]
  0xef9d1: CFA=RSP+16: RBP=[CFA-16], RIP=[CFA-8]
  0xef9d4: CFA=RBP+16: RBP=[CFA-16], RIP=[CFA-8]
  0xefac2: CFA=RSP+8: RBP=[CFA-16], RIP=[CFA-8]

00002550 0000001c 00002554 FDE cie=00000000 pc=000efad0...000efb05
  Format:       DWARF32
  DW_CFA_advance_loc: 1
  DW_CFA_def_cfa_offset: +16
  DW_CFA_offset: RBP -16
  DW_CFA_advance_loc: 3
  DW_CFA_def_cfa_register: RBP
  DW_CFA_advance_loc: 48
  DW_CFA_def_cfa: RSP +8
  DW_CFA_nop:
  DW_CFA_nop:
  DW_CFA_nop:

  0xefad0: CFA=RSP+8: RIP=[CFA-8]
  0xefad1: CFA=RSP+16: RBP=[CFA-16], RIP=[CFA-8]
  0xefad4: CFA=RBP+16: RBP=[CFA-16], RIP=[CFA-8]
  0xefb04: CFA=RSP+8: RBP=[CFA-16], RIP=[CFA-8]

00002570 0000001c 00002574 FDE cie=00000000 pc=000efb10...000efbdb
  Format:       DWARF32
  DW_CFA_advance_loc: 1
  DW_CFA_def_cfa_offset: +16
  DW_CFA_offset: RBP -16
  DW_CFA_advance_loc: 3
  DW_CFA_def_cfa_register: RBP
  DW_CFA_advance_loc1: 198
  DW_CFA_def_cfa: RSP +8
  DW_CFA_nop:
  DW_CFA_nop:

  0xefb10: CFA=RSP+8: RIP=[CFA-8]
  0xefb11: CFA=RSP+16: RBP=[CFA-16], RIP=[CFA-8]
  0xefb14: CFA=RBP+16: RBP=[CFA-16], RIP=[CFA-8]
  0xefbda: CFA=RSP+8: RBP=[CFA-16], RIP=[CFA-8]

00002590 0000001c 00002594 FDE cie=00000000 pc=000efbe0...000efc43
  Format:       DWARF32
  DW_CFA_advance_loc: 1
  DW_CFA_def_cfa_offset: +16
  DW_CFA_offset: RBP -16
  DW_CFA_advance_loc: 3
  DW_CFA_def_cfa_register: RBP
  DW_CFA_advance_loc1: 94
  DW_CFA_def_cfa: RSP +8
  DW_CFA_nop:
  DW_CFA_nop:

  0xefbe0: CFA=RSP+8: RIP=[CFA-8]
  0xefbe1: CFA=RSP+16: RBP=[CFA-16], RIP=[CFA-8]
  0xefbe4: CFA=RBP+16: RBP=[CFA-16], RIP=[CFA-8]
  0xefc42: CFA=RSP+8: RBP=[CFA-16], RIP=[CFA-8]

000025b0 0000001c 000025b4 FDE cie=00000000 pc=000efc50...000efc85
  Format:       DWARF32
  DW_CFA_advance_loc: 1
  DW_CFA_def_cfa_offset: +16
  DW_CFA_offset: RBP -16
  DW_CFA_advance_loc: 3
  DW_CFA_def_cfa_register: RBP
  DW_CFA_advance_loc: 48
  DW_CFA_def_cfa: RSP +8
  DW_CFA_nop:
  DW_CFA_nop:
  DW_CFA_nop:

  0xefc50: CFA=RSP+8: RIP=[CFA-8]
  0xefc51: CFA=RSP+16: RBP=[CFA-16], RIP=[CFA-8]
  0xefc54: CFA=RBP+16: RBP=[CFA-16], RIP=[CFA-8]
  0xefc84: CFA=RSP+8: RBP=[CFA-16], RIP=[CFA-8]

000025d0 0000001c 000025d4 FDE cie=00000000 pc=000efc90...000efccb
  Format:       DWARF32
  DW_CFA_advance_loc: 1
  DW_CFA_def_cfa_offset: +16
  DW_CFA_offset: RBP -16
  DW_CFA_advance_loc: 3
  DW_CFA_def_cfa_register: RBP
  DW_CFA_advance_loc: 54
  DW_CFA_def_cfa: RSP +8
  DW_CFA_nop:
  DW_CFA_nop:
  DW_CFA_nop:

  0xefc90: CFA=RSP+8: RIP=[CFA-8]
  0xefc91: CFA=RSP+16: RBP=[CFA-16], RIP=[CFA-8]
  0xefc94: CFA=RBP+16: RBP=[CFA-16], RIP=[CFA-8]
  0xefcca: CFA=RSP+8: RBP=[CFA-16], RIP=[CFA-8]

000025f0 0000001c 000025f4 FDE cie=00000000 pc=000efcd0...000efd33
  Format:       DWARF32
  DW_CFA_advance_loc: 1
  DW_CFA_def_cfa_offset: +16
  DW_CFA_offset: RBP -16
  DW_CFA_advance_loc: 3
  DW_CFA_def_cfa_register: RBP
  DW_CFA_advance_loc1: 94
  DW_CFA_def_cfa: RSP +8
  DW_CFA_nop:
  DW_CFA_nop:

  0xefcd0: CFA=RSP+8: RIP=[CFA-8]
  0xefcd1: CFA=RSP+16: RBP=[CFA-16], RIP=[CFA-8]
  0xefcd4: CFA=RBP+16: RBP=[CFA-16], RIP=[CFA-8]
  0xefd32: CFA=RSP+8: RBP=[CFA-16], RIP=[CFA-8]

00002610 0000001c 00002614 FDE cie=00000000 pc=000efd40...000efd75
  Format:       DWARF32
  DW_CFA_advance_loc: 1
  DW_CFA_def_cfa_offset: +16
  DW_CFA_offset: RBP -16
  DW_CFA_advance_loc: 3
  DW_CFA_def_cfa_register: RBP
  DW_CFA_advance_loc: 48
  DW_CFA_def_cfa: RSP +8
  DW_CFA_nop:
  DW_CFA_nop:
  DW_CFA_nop:

  0xefd40: CFA=RSP+8: RIP=[CFA-8]
  0xefd41: CFA=RSP+16: RBP=[CFA-16], RIP=[CFA-8]
  0xefd44: CFA=RBP+16: RBP=[CFA-16], RIP=[CFA-8]
  0xefd74: CFA=RSP+8: RBP=[CFA-16], RIP=[CFA-8]

00002630 0000001c 00002634 FDE cie=00000000 pc=000efd80...000efdbb
  Format:       DWARF32
  DW_CFA_advance_loc: 1
  DW_CFA_def_cfa_offset: +16
  DW_CFA_offset: RBP -16
  DW_CFA_advance_loc: 3
  DW_CFA_def_cfa_register: RBP
  DW_CFA_advance_loc: 54
  DW_CFA_def_cfa: RSP +8
  DW_CFA_nop:
  DW_CFA_nop:
  DW_CFA_nop:

  0xefd80: CFA=RSP+8: RIP=[CFA-8]
  0xefd81: CFA=RSP+16: RBP=[CFA-16], RIP=[CFA-8]
  0xefd84: CFA=RBP+16: RBP=[CFA-16], RIP=[CFA-8]
  0xefdba: CFA=RSP+8: RBP=[CFA-16], RIP=[CFA-8]

00002650 0000001c 00002654 FDE cie=00000000 pc=000efdc0...000efe23
  Format:       DWARF32
  DW_CFA_advance_loc: 1
  DW_CFA_def_cfa_offset: +16
  DW_CFA_offset: RBP -16
  DW_CFA_advance_loc: 3
  DW_CFA_def_cfa_register: RBP
  DW_CFA_advance_loc1: 94
  DW_CFA_def_cfa: RSP +8
  DW_CFA_nop:
  DW_CFA_nop:

  0xefdc0: CFA=RSP+8: RIP=[CFA-8]
  0xefdc1: CFA=RSP+16: RBP=[CFA-16], RIP=[CFA-8]
  0xefdc4: CFA=RBP+16: RBP=[CFA-16], RIP=[CFA-8]
  0xefe22: CFA=RSP+8: RBP=[CFA-16], RIP=[CFA-8]

00002670 0000001c 00002674 FDE cie=00000000 pc=000efe30...000efe65
  Format:       DWARF32
  DW_CFA_advance_loc: 1
  DW_CFA_def_cfa_offset: +16
  DW_CFA_offset: RBP -16
  DW_CFA_advance_loc: 3
  DW_CFA_def_cfa_register: RBP
  DW_CFA_advance_loc: 48
  DW_CFA_def_cfa: RSP +8
  DW_CFA_nop:
  DW_CFA_nop:
  DW_CFA_nop:

  0xefe30: CFA=RSP+8: RIP=[CFA-8]
  0xefe31: CFA=RSP+16: RBP=[CFA-16], RIP=[CFA-8]
  0xefe34: CFA=RBP+16: RBP=[CFA-16], RIP=[CFA-8]
  0xefe64: CFA=RSP+8: RBP=[CFA-16], RIP=[CFA-8]

00002690 0000001c 00002694 FDE cie=00000000 pc=000efe70...000efeab
  Format:       DWARF32
  DW_CFA_advance_loc: 1
  DW_CFA_def_cfa_offset: +16
  DW_CFA_offset: RBP -16
  DW_CFA_advance_loc: 3
  DW_CFA_def_cfa_register: RBP
  DW_CFA_advance_loc: 54
  DW_CFA_def_cfa: RSP +8
  DW_CFA_nop:
  DW_CFA_nop:
  DW_CFA_nop:

  0xefe70: CFA=RSP+8: RIP=[CFA-8]
  0xefe71: CFA=RSP+16: RBP=[CFA-16], RIP=[CFA-8]
  0xefe74: CFA=RBP+16: RBP=[CFA-16], RIP=[CFA-8]
  0xefeaa: CFA=RSP+8: RBP=[CFA-16], RIP=[CFA-8]

000026b0 0000001c 000026b4 FDE cie=00000000 pc=000efeb0...000eff13
  Format:       DWARF32
  DW_CFA_advance_loc: 1
  DW_CFA_def_cfa_offset: +16
  DW_CFA_offset: RBP -16
  DW_CFA_advance_loc: 3
  DW_CFA_def_cfa_register: RBP
  DW_CFA_advance_loc1: 94
  DW_CFA_def_cfa: RSP +8
  DW_CFA_nop:
  DW_CFA_nop:

  0xefeb0: CFA=RSP+8: RIP=[CFA-8]
  0xefeb1: CFA=RSP+16: RBP=[CFA-16], RIP=[CFA-8]
  0xefeb4: CFA=RBP+16: RBP=[CFA-16], RIP=[CFA-8]
  0xeff12: CFA=RSP+8: RBP=[CFA-16], RIP=[CFA-8]

000026d0 0000001c 000026d4 FDE cie=00000000 pc=000eff20...000eff55
  Format:       DWARF32
  DW_CFA_advance_loc: 1
  DW_CFA_def_cfa_offset: +16
  DW_CFA_offset: RBP -16
  DW_CFA_advance_loc: 3
  DW_CFA_def_cfa_register: RBP
  DW_CFA_advance_loc: 48
  DW_CFA_def_cfa: RSP +8
  DW_CFA_nop:
  DW_CFA_nop:
  DW_CFA_nop:

  0xeff20: CFA=RSP+8: RIP=[CFA-8]
  0xeff21: CFA=RSP+16: RBP=[CFA-16], RIP=[CFA-8]
  0xeff24: CFA=RBP+16: RBP=[CFA-16], RIP=[CFA-8]
  0xeff54: CFA=RSP+8: RBP=[CFA-16], RIP=[CFA-8]

000026f0 0000001c 000026f4 FDE cie=00000000 pc=000eff60...000effbf
  Format:       DWARF32
  DW_CFA_advance_loc: 1
  DW_CFA_def_cfa_offset: +16
  DW_CFA_offset: RBP -16
  DW_CFA_advance_loc: 3
  DW_CFA_def_cfa_register: RBP
  DW_CFA_advance_loc1: 90
  DW_CFA_def_cfa: RSP +8
  DW_CFA_nop:
  DW_CFA_nop:

  0xeff60: CFA=RSP+8: RIP=[CFA-8]
  0xeff61: CFA=RSP+16: RBP=[CFA-16], RIP=[CFA-8]
  0xeff64: CFA=RBP+16: RBP=[CFA-16], RIP=[CFA-8]
  0xeffbe: CFA=RSP+8: RBP=[CFA-16], RIP=[CFA-8]

00002710 0000001c 00002714 FDE cie=00000000 pc=000effc0...000f014e
  Format:       DWARF32
  DW_CFA_advance_loc: 1
  DW_CFA_def_cfa_offset: +16
  DW_CFA_offset: RBP -16
  DW_CFA_advance_loc: 3
  DW_CFA_def_cfa_register: RBP
  DW_CFA_advance_loc2: 393
  DW_CFA_def_cfa: RSP +8
  DW_CFA_nop:

  0xeffc0: CFA=RSP+8: RIP=[CFA-8]
  0xeffc1: CFA=RSP+16: RBP=[CFA-16], RIP=[CFA-8]
  0xeffc4: CFA=RBP+16: RBP=[CFA-16], RIP=[CFA-8]
  0xf014d: CFA=RSP+8: RBP=[CFA-16], RIP=[CFA-8]

00002730 0000001c 00002734 FDE cie=00000000 pc=000f0150...000f0185
  Format:       DWARF32
  DW_CFA_advance_loc: 1
  DW_CFA_def_cfa_offset: +16
  DW_CFA_offset: RBP -16
  DW_CFA_advance_loc: 3
  DW_CFA_def_cfa_register: RBP
  DW_CFA_advance_loc: 48
  DW_CFA_def_cfa: RSP +8
  DW_CFA_nop:
  DW_CFA_nop:
  DW_CFA_nop:

  0xf0150: CFA=RSP+8: RIP=[CFA-8]
  0xf0151: CFA=RSP+16: RBP=[CFA-16], RIP=[CFA-8]
  0xf0154: CFA=RBP+16: RBP=[CFA-16], RIP=[CFA-8]
  0xf0184: CFA=RSP+8: RBP=[CFA-16], RIP=[CFA-8]

00002750 0000001c 00002754 FDE cie=00000000 pc=000f0190...000f01c5
  Format:       DWARF32
  DW_CFA_advance_loc: 1
  DW_CFA_def_cfa_offset: +16
  DW_CFA_offset: RBP -16
  DW_CFA_advance_loc: 3
  DW_CFA_def_cfa_register: RBP
  DW_CFA_advance_loc: 48
  DW_CFA_def_cfa: RSP +8
  DW_CFA_nop:
  DW_CFA_nop:
  DW_CFA_nop:

  0xf0190: CFA=RSP+8: RIP=[CFA-8]
  0xf0191: CFA=RSP+16: RBP=[CFA-16], RIP=[CFA-8]
  0xf0194: CFA=RBP+16: RBP=[CFA-16], RIP=[CFA-8]
  0xf01c4: CFA=RSP+8: RBP=[CFA-16], RIP=[CFA-8]

00002770 0000001c 00002774 FDE cie=00000000 pc=000f01d0...000f02dd
  Format:       DWARF32
  DW_CFA_advance_loc: 1
  DW_CFA_def_cfa_offset: +16
  DW_CFA_offset: RBP -16
  DW_CFA_advance_loc: 3
  DW_CFA_def_cfa_register: RBP
  DW_CFA_advance_loc2: 264
  DW_CFA_def_cfa: RSP +8
  DW_CFA_nop:

  0xf01d0: CFA=RSP+8: RIP=[CFA-8]
  0xf01d1: CFA=RSP+16: RBP=[CFA-16], RIP=[CFA-8]
  0xf01d4: CFA=RBP+16: RBP=[CFA-16], RIP=[CFA-8]
  0xf02dc: CFA=RSP+8: RBP=[CFA-16], RIP=[CFA-8]

00002790 0000001c 00002794 FDE cie=00000000 pc=000f02e0...000f0387
  Format:       DWARF32
  DW_CFA_advance_loc: 1
  DW_CFA_def_cfa_offset: +16
  DW_CFA_offset: RBP -16
  DW_CFA_advance_loc: 3
  DW_CFA_def_cfa_register: RBP
  DW_CFA_advance_loc1: 162
  DW_CFA_def_cfa: RSP +8
  DW_CFA_nop:
  DW_CFA_nop:

  0xf02e0: CFA=RSP+8: RIP=[CFA-8]
  0xf02e1: CFA=RSP+16: RBP=[CFA-16], RIP=[CFA-8]
  0xf02e4: CFA=RBP+16: RBP=[CFA-16], RIP=[CFA-8]
  0xf0386: CFA=RSP+8: RBP=[CFA-16], RIP=[CFA-8]

000027b0 0000001c 000027b4 FDE cie=00000000 pc=000f0390...000f0455
  Format:       DWARF32
  DW_CFA_advance_loc: 1
  DW_CFA_def_cfa_offset: +16
  DW_CFA_offset: RBP -16
  DW_CFA_advance_loc: 3
  DW_CFA_def_cfa_register: RBP
  DW_CFA_advance_loc1: 192
  DW_CFA_def_cfa: RSP +8
  DW_CFA_nop:
  DW_CFA_nop:

  0xf0390: CFA=RSP+8: RIP=[CFA-8]
  0xf0391: CFA=RSP+16: RBP=[CFA-16], RIP=[CFA-8]
  0xf0394: CFA=RBP+16: RBP=[CFA-16], RIP=[CFA-8]
  0xf0454: CFA=RSP+8: RBP=[CFA-16], RIP=[CFA-8]

000027d0 0000001c 000027d4 FDE cie=00000000 pc=000f0460...000f06ab
  Format:       DWARF32
  DW_CFA_advance_loc: 1
  DW_CFA_def_cfa_offset: +16
  DW_CFA_offset: RBP -16
  DW_CFA_advance_loc: 3
  DW_CFA_def_cfa_register: RBP
  DW_CFA_advance_loc2: 582
  DW_CFA_def_cfa: RSP +8
  DW_CFA_nop:

  0xf0460: CFA=RSP+8: RIP=[CFA-8]
  0xf0461: CFA=RSP+16: RBP=[CFA-16], RIP=[CFA-8]
  0xf0464: CFA=RBP+16: RBP=[CFA-16], RIP=[CFA-8]
  0xf06aa: CFA=RSP+8: RBP=[CFA-16], RIP=[CFA-8]

000027f0 0000001c 000027f4 FDE cie=00000000 pc=000f06b0...000f0899
  Format:       DWARF32
  DW_CFA_advance_loc: 1
  DW_CFA_def_cfa_offset: +16
  DW_CFA_offset: RBP -16
  DW_CFA_advance_loc: 3
  DW_CFA_def_cfa_register: RBP
  DW_CFA_advance_loc2: 484
  DW_CFA_def_cfa: RSP +8
  DW_CFA_nop:

  0xf06b0: CFA=RSP+8: RIP=[CFA-8]
  0xf06b1: CFA=RSP+16: RBP=[CFA-16], RIP=[CFA-8]
  0xf06b4: CFA=RBP+16: RBP=[CFA-16], RIP=[CFA-8]
  0xf0898: CFA=RSP+8: RBP=[CFA-16], RIP=[CFA-8]

00002810 0000001c 00002814 FDE cie=00000000 pc=000f08a0...000f08d5
  Format:       DWARF32
  DW_CFA_advance_loc: 1
  DW_CFA_def_cfa_offset: +16
  DW_CFA_offset: RBP -16
  DW_CFA_advance_loc: 3
  DW_CFA_def_cfa_register: RBP
  DW_CFA_advance_loc: 48
  DW_CFA_def_cfa: RSP +8
  DW_CFA_nop:
  DW_CFA_nop:
  DW_CFA_nop:

  0xf08a0: CFA=RSP+8: RIP=[CFA-8]
  0xf08a1: CFA=RSP+16: RBP=[CFA-16], RIP=[CFA-8]
  0xf08a4: CFA=RBP+16: RBP=[CFA-16], RIP=[CFA-8]
  0xf08d4: CFA=RSP+8: RBP=[CFA-16], RIP=[CFA-8]

00002830 0000001c 00002834 FDE cie=00000000 pc=000f08e0...000f0930
  Format:       DWARF32
  DW_CFA_advance_loc: 1
  DW_CFA_def_cfa_offset: +16
  DW_CFA_offset: RBP -16
  DW_CFA_advance_loc: 3
  DW_CFA_def_cfa_register: RBP
  DW_CFA_advance_loc1: 75
  DW_CFA_def_cfa: RSP +8
  DW_CFA_nop:
  DW_CFA_nop:

  0xf08e0: CFA=RSP+8: RIP=[CFA-8]
  0xf08e1: CFA=RSP+16: RBP=[CFA-16], RIP=[CFA-8]
  0xf08e4: CFA=RBP+16: RBP=[CFA-16], RIP=[CFA-8]
  0xf092f: CFA=RSP+8: RBP=[CFA-16], RIP=[CFA-8]

00002850 0000001c 00002854 FDE cie=00000000 pc=000f0930...000f098f
  Format:       DWARF32
  DW_CFA_advance_loc: 1
  DW_CFA_def_cfa_offset: +16
  DW_CFA_offset: RBP -16
  DW_CFA_advance_loc: 3
  DW_CFA_def_cfa_register: RBP
  DW_CFA_advance_loc1: 90
  DW_CFA_def_cfa: RSP +8
  DW_CFA_nop:
  DW_CFA_nop:

  0xf0930: CFA=RSP+8: RIP=[CFA-8]
  0xf0931: CFA=RSP+16: RBP=[CFA-16], RIP=[CFA-8]
  0xf0934: CFA=RBP+16: RBP=[CFA-16], RIP=[CFA-8]
  0xf098e: CFA=RSP+8: RBP=[CFA-16], RIP=[CFA-8]

00002870 0000001c 00002874 FDE cie=00000000 pc=000f0990...000f0a1c
  Format:       DWARF32
  DW_CFA_advance_loc: 1
  DW_CFA_def_cfa_offset: +16
  DW_CFA_offset: RBP -16
  DW_CFA_advance_loc: 3
  DW_CFA_def_cfa_register: RBP
  DW_CFA_advance_loc1: 135
  DW_CFA_def_cfa: RSP +8
  DW_CFA_nop:
  DW_CFA_nop:

  0xf0990: CFA=RSP+8: RIP=[CFA-8]
  0xf0991: CFA=RSP+16: RBP=[CFA-16], RIP=[CFA-8]
  0xf0994: CFA=RBP+16: RBP=[CFA-16], RIP=[CFA-8]
  0xf0a1b: CFA=RSP+8: RBP=[CFA-16], RIP=[CFA-8]

00002890 0000001c 00002894 FDE cie=00000000 pc=000f0a20...000f0aeb
  Format:       DWARF32
  DW_CFA_advance_loc: 1
  DW_CFA_def_cfa_offset: +16
  DW_CFA_offset: RBP -16
  DW_CFA_advance_loc: 3
  DW_CFA_def_cfa_register: RBP
  DW_CFA_advance_loc1: 198
  DW_CFA_def_cfa: RSP +8
  DW_CFA_nop:
  DW_CFA_nop:

  0xf0a20: CFA=RSP+8: RIP=[CFA-8]
  0xf0a21: CFA=RSP+16: RBP=[CFA-16], RIP=[CFA-8]
  0xf0a24: CFA=RBP+16: RBP=[CFA-16], RIP=[CFA-8]
  0xf0aea: CFA=RSP+8: RBP=[CFA-16], RIP=[CFA-8]

000028b0 0000001c 000028b4 FDE cie=00000000 pc=000f0af0...000f0ccf
  Format:       DWARF32
  DW_CFA_advance_loc: 1
  DW_CFA_def_cfa_offset: +16
  DW_CFA_offset: RBP -16
  DW_CFA_advance_loc: 3
  DW_CFA_def_cfa_register: RBP
  DW_CFA_advance_loc2: 474
  DW_CFA_def_cfa: RSP +8
  DW_CFA_nop:

  0xf0af0: CFA=RSP+8: RIP=[CFA-8]
  0xf0af1: CFA=RSP+16: RBP=[CFA-16], RIP=[CFA-8]
  0xf0af4: CFA=RBP+16: RBP=[CFA-16], RIP=[CFA-8]
  0xf0cce: CFA=RSP+8: RBP=[CFA-16], RIP=[CFA-8]

000028d0 0000001c 000028d4 FDE cie=00000000 pc=000f0cd0...000f0d53
  Format:       DWARF32
  DW_CFA_advance_loc: 1
  DW_CFA_def_cfa_offset: +16
  DW_CFA_offset: RBP -16
  DW_CFA_advance_loc: 3
  DW_CFA_def_cfa_register: RBP
  DW_CFA_advance_loc1: 126
  DW_CFA_def_cfa: RSP +8
  DW_CFA_nop:
  DW_CFA_nop:

  0xf0cd0: CFA=RSP+8: RIP=[CFA-8]
  0xf0cd1: CFA=RSP+16: RBP=[CFA-16], RIP=[CFA-8]
  0xf0cd4: CFA=RBP+16: RBP=[CFA-16], RIP=[CFA-8]
  0xf0d52: CFA=RSP+8: RBP=[CFA-16], RIP=[CFA-8]

000028f0 0000001c 000028f4 FDE cie=00000000 pc=000f0d60...000f0d72
  Format:       DWARF32
  DW_CFA_advance_loc: 1
  DW_CFA_def_cfa_offset: +16
  DW_CFA_offset: RBP -16
  DW_CFA_advance_loc: 3
  DW_CFA_def_cfa_register: RBP
  DW_CFA_advance_loc: 13
  DW_CFA_def_cfa: RSP +8
  DW_CFA_nop:
  DW_CFA_nop:
  DW_CFA_nop:

  0xf0d60: CFA=RSP+8: RIP=[CFA-8]
  0xf0d61: CFA=RSP+16: RBP=[CFA-16], RIP=[CFA-8]
  0xf0d64: CFA=RBP+16: RBP=[CFA-16], RIP=[CFA-8]
  0xf0d71: CFA=RSP+8: RBP=[CFA-16], RIP=[CFA-8]

00002910 0000001c 00002914 FDE cie=00000000 pc=000f0d80...000f0dd8
  Format:       DWARF32
  DW_CFA_advance_loc: 1
  DW_CFA_def_cfa_offset: +16
  DW_CFA_offset: RBP -16
  DW_CFA_advance_loc: 3
  DW_CFA_def_cfa_register: RBP
  DW_CFA_advance_loc1: 83
  DW_CFA_def_cfa: RSP +8
  DW_CFA_nop:
  DW_CFA_nop:

  0xf0d80: CFA=RSP+8: RIP=[CFA-8]
  0xf0d81: CFA=RSP+16: RBP=[CFA-16], RIP=[CFA-8]
  0xf0d84: CFA=RBP+16: RBP=[CFA-16], RIP=[CFA-8]
  0xf0dd7: CFA=RSP+8: RBP=[CFA-16], RIP=[CFA-8]

00002930 0000001c 00002934 FDE cie=00000000 pc=000f0de0...000f0df5
  Format:       DWARF32
  DW_CFA_advance_loc: 1
  DW_CFA_def_cfa_offset: +16
  DW_CFA_offset: RBP -16
  DW_CFA_advance_loc: 3
  DW_CFA_def_cfa_register: RBP
  DW_CFA_advance_loc: 16
  DW_CFA_def_cfa: RSP +8
  DW_CFA_nop:
  DW_CFA_nop:
  DW_CFA_nop:

  0xf0de0: CFA=RSP+8: RIP=[CFA-8]
  0xf0de1: CFA=RSP+16: RBP=[CFA-16], RIP=[CFA-8]
  0xf0de4: CFA=RBP+16: RBP=[CFA-16], RIP=[CFA-8]
  0xf0df4: CFA=RSP+8: RBP=[CFA-16], RIP=[CFA-8]

00002950 0000001c 00002954 FDE cie=00000000 pc=000f0e00...000f0e58
  Format:       DWARF32
  DW_CFA_advance_loc: 1
  DW_CFA_def_cfa_offset: +16
  DW_CFA_offset: RBP -16
  DW_CFA_advance_loc: 3
  DW_CFA_def_cfa_register: RBP
  DW_CFA_advance_loc1: 83
  DW_CFA_def_cfa: RSP +8
  DW_CFA_nop:
  DW_CFA_nop:

  0xf0e00: CFA=RSP+8: RIP=[CFA-8]
  0xf0e01: CFA=RSP+16: RBP=[CFA-16], RIP=[CFA-8]
  0xf0e04: CFA=RBP+16: RBP=[CFA-16], RIP=[CFA-8]
  0xf0e57: CFA=RSP+8: RBP=[CFA-16], RIP=[CFA-8]

00002970 0000001c 00002974 FDE cie=00000000 pc=000f0e60...000f0e72
  Format:       DWARF32
  DW_CFA_advance_loc: 1
  DW_CFA_def_cfa_offset: +16
  DW_CFA_offset: RBP -16
  DW_CFA_advance_loc: 3
  DW_CFA_def_cfa_register: RBP
  DW_CFA_advance_loc: 13
  DW_CFA_def_cfa: RSP +8
  DW_CFA_nop:
  DW_CFA_nop:
  DW_CFA_nop:

  0xf0e60: CFA=RSP+8: RIP=[CFA-8]
  0xf0e61: CFA=RSP+16: RBP=[CFA-16], RIP=[CFA-8]
  0xf0e64: CFA=RBP+16: RBP=[CFA-16], RIP=[CFA-8]
  0xf0e71: CFA=RSP+8: RBP=[CFA-16], RIP=[CFA-8]

00002990 0000001c 00002994 FDE cie=00000000 pc=000f0e80...000f0ed8
  Format:       DWARF32
  DW_CFA_advance_loc: 1
  DW_CFA_def_cfa_offset: +16
  DW_CFA_offset: RBP -16
  DW_CFA_advance_loc: 3
  DW_CFA_def_cfa_register: RBP
  DW_CFA_advance_loc1: 83
  DW_CFA_def_cfa: RSP +8
  DW_CFA_nop:
  DW_CFA_nop:

  0xf0e80: CFA=RSP+8: RIP=[CFA-8]
  0xf0e81: CFA=RSP+16: RBP=[CFA-16], RIP=[CFA-8]
  0xf0e84: CFA=RBP+16: RBP=[CFA-16], RIP=[CFA-8]
  0xf0ed7: CFA=RSP+8: RBP=[CFA-16], RIP=[CFA-8]

000029b0 0000001c 000029b4 FDE cie=00000000 pc=000f0ee0...000f0ef2
  Format:       DWARF32
  DW_CFA_advance_loc: 1
  DW_CFA_def_cfa_offset: +16
  DW_CFA_offset: RBP -16
  DW_CFA_advance_loc: 3
  DW_CFA_def_cfa_register: RBP
  DW_CFA_advance_loc: 13
  DW_CFA_def_cfa: RSP +8
  DW_CFA_nop:
  DW_CFA_nop:
  DW_CFA_nop:

  0xf0ee0: CFA=RSP+8: RIP=[CFA-8]
  0xf0ee1: CFA=RSP+16: RBP=[CFA-16], RIP=[CFA-8]
  0xf0ee4: CFA=RBP+16: RBP=[CFA-16], RIP=[CFA-8]
  0xf0ef1: CFA=RSP+8: RBP=[CFA-16], RIP=[CFA-8]

000029d0 0000001c 000029d4 FDE cie=00000000 pc=000f0f00...000f0f58
  Format:       DWARF32
  DW_CFA_advance_loc: 1
  DW_CFA_def_cfa_offset: +16
  DW_CFA_offset: RBP -16
  DW_CFA_advance_loc: 3
  DW_CFA_def_cfa_register: RBP
  DW_CFA_advance_loc1: 83
  DW_CFA_def_cfa: RSP +8
  DW_CFA_nop:
  DW_CFA_nop:

  0xf0f00: CFA=RSP+8: RIP=[CFA-8]
  0xf0f01: CFA=RSP+16: RBP=[CFA-16], RIP=[CFA-8]
  0xf0f04: CFA=RBP+16: RBP=[CFA-16], RIP=[CFA-8]
  0xf0f57: CFA=RSP+8: RBP=[CFA-16], RIP=[CFA-8]

000029f0 0000001c 000029f4 FDE cie=00000000 pc=000f0f60...000f0f83
  Format:       DWARF32
  DW_CFA_advance_loc: 1
  DW_CFA_def_cfa_offset: +16
  DW_CFA_offset: RBP -16
  DW_CFA_advance_loc: 3
  DW_CFA_def_cfa_register: RBP
  DW_CFA_advance_loc: 30
  DW_CFA_def_cfa: RSP +8
  DW_CFA_nop:
  DW_CFA_nop:
  DW_CFA_nop:

  0xf0f60: CFA=RSP+8: RIP=[CFA-8]
  0xf0f61: CFA=RSP+16: RBP=[CFA-16], RIP=[CFA-8]
  0xf0f64: CFA=RBP+16: RBP=[CFA-16], RIP=[CFA-8]
  0xf0f82: CFA=RSP+8: RBP=[CFA-16], RIP=[CFA-8]

00002a10 0000001c 00002a14 FDE cie=00000000 pc=000f0f90...000f10b5
  Format:       DWARF32
  DW_CFA_advance_loc: 1
  DW_CFA_def_cfa_offset: +16
  DW_CFA_offset: RBP -16
  DW_CFA_advance_loc: 3
  DW_CFA_def_cfa_register: RBP
  DW_CFA_advance_loc2: 288
  DW_CFA_def_cfa: RSP +8
  DW_CFA_nop:

  0xf0f90: CFA=RSP+8: RIP=[CFA-8]
  0xf0f91: CFA=RSP+16: RBP=[CFA-16], RIP=[CFA-8]
  0xf0f94: CFA=RBP+16: RBP=[CFA-16], RIP=[CFA-8]
  0xf10b4: CFA=RSP+8: RBP=[CFA-16], RIP=[CFA-8]

00002a30 0000001c 00002a34 FDE cie=00000000 pc=000f10c0...000f10e7
  Format:       DWARF32
  DW_CFA_advance_loc: 1
  DW_CFA_def_cfa_offset: +16
  DW_CFA_offset: RBP -16
  DW_CFA_advance_loc: 3
  DW_CFA_def_cfa_register: RBP
  DW_CFA_advance_loc: 34
  DW_CFA_def_cfa: RSP +8
  DW_CFA_nop:
  DW_CFA_nop:
  DW_CFA_nop:

  0xf10c0: CFA=RSP+8: RIP=[CFA-8]
  0xf10c1: CFA=RSP+16: RBP=[CFA-16], RIP=[CFA-8]
  0xf10c4: CFA=RBP+16: RBP=[CFA-16], RIP=[CFA-8]
  0xf10e6: CFA=RSP+8: RBP=[CFA-16], RIP=[CFA-8]

00002a50 0000001c 00002a54 FDE cie=00000000 pc=000f10f0...000f1117
  Format:       DWARF32
  DW_CFA_advance_loc: 1
  DW_CFA_def_cfa_offset: +16
  DW_CFA_offset: RBP -16
  DW_CFA_advance_loc: 3
  DW_CFA_def_cfa_register: RBP
  DW_CFA_advance_loc: 34
  DW_CFA_def_cfa: RSP +8
  DW_CFA_nop:
  DW_CFA_nop:
  DW_CFA_nop:

  0xf10f0: CFA=RSP+8: RIP=[CFA-8]
  0xf10f1: CFA=RSP+16: RBP=[CFA-16], RIP=[CFA-8]
  0xf10f4: CFA=RBP+16: RBP=[CFA-16], RIP=[CFA-8]
  0xf1116: CFA=RSP+8: RBP=[CFA-16], RIP=[CFA-8]

00002a70 0000001c 00002a74 FDE cie=00000000 pc=000f1120...000f1147
  Format:       DWARF32
  DW_CFA_advance_loc: 1
  DW_CFA_def_cfa_offset: +16
  DW_CFA_offset: RBP -16
  DW_CFA_advance_loc: 3
  DW_CFA_def_cfa_register: RBP
  DW_CFA_advance_loc: 34
  DW_CFA_def_cfa: RSP +8
  DW_CFA_nop:
  DW_CFA_nop:
  DW_CFA_nop:

  0xf1120: CFA=RSP+8: RIP=[CFA-8]
  0xf1121: CFA=RSP+16: RBP=[CFA-16], RIP=[CFA-8]
  0xf1124: CFA=RBP+16: RBP=[CFA-16], RIP=[CFA-8]
  0xf1146: CFA=RSP+8: RBP=[CFA-16], RIP=[CFA-8]

00002a90 0000001c 00002a94 FDE cie=00000000 pc=000f1150...000f117b
  Format:       DWARF32
  DW_CFA_advance_loc: 1
  DW_CFA_def_cfa_offset: +16
  DW_CFA_offset: RBP -16
  DW_CFA_advance_loc: 3
  DW_CFA_def_cfa_register: RBP
  DW_CFA_advance_loc: 38
  DW_CFA_def_cfa: RSP +8
  DW_CFA_nop:
  DW_CFA_nop:
  DW_CFA_nop:

  0xf1150: CFA=RSP+8: RIP=[CFA-8]
  0xf1151: CFA=RSP+16: RBP=[CFA-16], RIP=[CFA-8]
  0xf1154: CFA=RBP+16: RBP=[CFA-16], RIP=[CFA-8]
  0xf117a: CFA=RSP+8: RBP=[CFA-16], RIP=[CFA-8]

00002ab0 0000001c 00002ab4 FDE cie=00000000 pc=000f1180...000f119b
  Format:       DWARF32
  DW_CFA_advance_loc: 1
  DW_CFA_def_cfa_offset: +16
  DW_CFA_offset: RBP -16
  DW_CFA_advance_loc: 3
  DW_CFA_def_cfa_register: RBP
  DW_CFA_advance_loc: 22
  DW_CFA_def_cfa: RSP +8
  DW_CFA_nop:
  DW_CFA_nop:
  DW_CFA_nop:

  0xf1180: CFA=RSP+8: RIP=[CFA-8]
  0xf1181: CFA=RSP+16: RBP=[CFA-16], RIP=[CFA-8]
  0xf1184: CFA=RBP+16: RBP=[CFA-16], RIP=[CFA-8]
  0xf119a: CFA=RSP+8: RBP=[CFA-16], RIP=[CFA-8]

00002ad0 00000020 00002ad4 FDE cie=00000000 pc=000f11a0...000f11c7
  Format:       DWARF32
  DW_CFA_advance_loc: 1
  DW_CFA_def_cfa_offset: +16
  DW_CFA_offset: RBP -16
  DW_CFA_advance_loc: 3
  DW_CFA_def_cfa_register: RBP
  DW_CFA_advance_loc: 34
  DW_CFA_def_cfa: RSP +8
  DW_CFA_nop:
  DW_CFA_nop:
  DW_CFA_nop:
  DW_CFA_nop:
  DW_CFA_nop:
  DW_CFA_nop:
  DW_CFA_nop:

  0xf11a0: CFA=RSP+8: RIP=[CFA-8]
  0xf11a1: CFA=RSP+16: RBP=[CFA-16], RIP=[CFA-8]
  0xf11a4: CFA=RBP+16: RBP=[CFA-16], RIP=[CFA-8]
  0xf11c6: CFA=RSP+8: RBP=[CFA-16], RIP=[CFA-8]

00002af4 0000001c 00002af8 FDE cie=00000000 pc=000f11d0...000f11eb
  Format:       DWARF32
  DW_CFA_advance_loc: 1
  DW_CFA_def_cfa_offset: +16
  DW_CFA_offset: RBP -16
  DW_CFA_advance_loc: 3
  DW_CFA_def_cfa_register: RBP
  DW_CFA_advance_loc: 22
  DW_CFA_def_cfa: RSP +8
  DW_CFA_nop:
  DW_CFA_nop:
  DW_CFA_nop:

  0xf11d0: CFA=RSP+8: RIP=[CFA-8]
  0xf11d1: CFA=RSP+16: RBP=[CFA-16], RIP=[CFA-8]
  0xf11d4: CFA=RBP+16: RBP=[CFA-16], RIP=[CFA-8]
  0xf11ea: CFA=RSP+8: RBP=[CFA-16], RIP=[CFA-8]

00002b14 0000001c 00002b18 FDE cie=00000000 pc=000f11f0...000f120b
  Format:       DWARF32
  DW_CFA_advance_loc: 1
  DW_CFA_def_cfa_offset: +16
  DW_CFA_offset: RBP -16
  DW_CFA_advance_loc: 3
  DW_CFA_def_cfa_register: RBP
  DW_CFA_advance_loc: 22
  DW_CFA_def_cfa: RSP +8
  DW_CFA_nop:
  DW_CFA_nop:
  DW_CFA_nop:

  0xf11f0: CFA=RSP+8: RIP=[CFA-8]
  0xf11f1: CFA=RSP+16: RBP=[CFA-16], RIP=[CFA-8]
  0xf11f4: CFA=RBP+16: RBP=[CFA-16], RIP=[CFA-8]
  0xf120a: CFA=RSP+8: RBP=[CFA-16], RIP=[CFA-8]

00002b34 0000001c 00002b38 FDE cie=00000000 pc=000f1210...000f122b
  Format:       DWARF32
  DW_CFA_advance_loc: 1
  DW_CFA_def_cfa_offset: +16
  DW_CFA_offset: RBP -16
  DW_CFA_advance_loc: 3
  DW_CFA_def_cfa_register: RBP
  DW_CFA_advance_loc: 22
  DW_CFA_def_cfa: RSP +8
  DW_CFA_nop:
  DW_CFA_nop:
  DW_CFA_nop:

  0xf1210: CFA=RSP+8: RIP=[CFA-8]
  0xf1211: CFA=RSP+16: RBP=[CFA-16], RIP=[CFA-8]
  0xf1214: CFA=RBP+16: RBP=[CFA-16], RIP=[CFA-8]
  0xf122a: CFA=RSP+8: RBP=[CFA-16], RIP=[CFA-8]

00002b54 00000020 00002b40 FDE cie=00000018 pc=000f1230...000f1305
  Format:       DWARF32
  LSDA Address: 00000000000bc34c
  DW_CFA_advance_loc: 1
  DW_CFA_def_cfa_offset: +16
  DW_CFA_offset: RBP -16
  DW_CFA_advance_loc: 3
  DW_CFA_def_cfa_register: RBP
  DW_CFA_advance_loc1: 208
  DW_CFA_def_cfa: RSP +8
  DW_CFA_nop:
  DW_CFA_nop:

  0xf1230: CFA=RSP+8: RIP=[CFA-8]
  0xf1231: CFA=RSP+16: RBP=[CFA-16], RIP=[CFA-8]
  0xf1234: CFA=RBP+16: RBP=[CFA-16], RIP=[CFA-8]
  0xf1304: CFA=RSP+8: RBP=[CFA-16], RIP=[CFA-8]

00002b78 00000020 00002b64 FDE cie=00000018 pc=000f1310...000f13e5
  Format:       DWARF32
  LSDA Address: 00000000000bc35c
  DW_CFA_advance_loc: 1
  DW_CFA_def_cfa_offset: +16
  DW_CFA_offset: RBP -16
  DW_CFA_advance_loc: 3
  DW_CFA_def_cfa_register: RBP
  DW_CFA_advance_loc1: 208
  DW_CFA_def_cfa: RSP +8
  DW_CFA_nop:
  DW_CFA_nop:

  0xf1310: CFA=RSP+8: RIP=[CFA-8]
  0xf1311: CFA=RSP+16: RBP=[CFA-16], RIP=[CFA-8]
  0xf1314: CFA=RBP+16: RBP=[CFA-16], RIP=[CFA-8]
  0xf13e4: CFA=RSP+8: RBP=[CFA-16], RIP=[CFA-8]

00002b9c 00000020 00002b88 FDE cie=00000018 pc=000f13f0...000f14c5
  Format:       DWARF32
  LSDA Address: 00000000000bc36c
  DW_CFA_advance_loc: 1
  DW_CFA_def_cfa_offset: +16
  DW_CFA_offset: RBP -16
  DW_CFA_advance_loc: 3
  DW_CFA_def_cfa_register: RBP
  DW_CFA_advance_loc1: 208
  DW_CFA_def_cfa: RSP +8
  DW_CFA_nop:
  DW_CFA_nop:

  0xf13f0: CFA=RSP+8: RIP=[CFA-8]
  0xf13f1: CFA=RSP+16: RBP=[CFA-16], RIP=[CFA-8]
  0xf13f4: CFA=RBP+16: RBP=[CFA-16], RIP=[CFA-8]
  0xf14c4: CFA=RSP+8: RBP=[CFA-16], RIP=[CFA-8]

00002bc0 00000024 00002bac FDE cie=00000018 pc=000f14d0...000f15d0
  Format:       DWARF32
  LSDA Address: 00000000000bc37c
  DW_CFA_advance_loc: 1
  DW_CFA_def_cfa_offset: +16
  DW_CFA_offset: RBP -16
  DW_CFA_advance_loc: 3
  DW_CFA_def_cfa_register: RBP
  DW_CFA_advance_loc1: 192
  DW_CFA_def_cfa: RSP +8
  DW_CFA_advance_loc: 1
  DW_CFA_def_cfa: RBP +16
  DW_CFA_nop:
  DW_CFA_nop:

  0xf14d0: CFA=RSP+8: RIP=[CFA-8]
  0xf14d1: CFA=RSP+16: RBP=[CFA-16], RIP=[CFA-8]
  0xf14d4: CFA=RBP+16: RBP=[CFA-16], RIP=[CFA-8]
  0xf1594: CFA=RSP+8: RBP=[CFA-16], RIP=[CFA-8]
  0xf1595: CFA=RBP+16: RBP=[CFA-16], RIP=[CFA-8]

00002be8 00000024 00002bd4 FDE cie=00000018 pc=000f15d0...000f16d0
  Format:       DWARF32
  LSDA Address: 00000000000bc390
  DW_CFA_advance_loc: 1
  DW_CFA_def_cfa_offset: +16
  DW_CFA_offset: RBP -16
  DW_CFA_advance_loc: 3
  DW_CFA_def_cfa_register: RBP
  DW_CFA_advance_loc1: 192
  DW_CFA_def_cfa: RSP +8
  DW_CFA_advance_loc: 1
  DW_CFA_def_cfa: RBP +16
  DW_CFA_nop:
  DW_CFA_nop:

  0xf15d0: CFA=RSP+8: RIP=[CFA-8]
  0xf15d1: CFA=RSP+16: RBP=[CFA-16], RIP=[CFA-8]
  0xf15d4: CFA=RBP+16: RBP=[CFA-16], RIP=[CFA-8]
  0xf1694: CFA=RSP+8: RBP=[CFA-16], RIP=[CFA-8]
  0xf1695: CFA=RBP+16: RBP=[CFA-16], RIP=[CFA-8]

00002c10 00000024 00002bfc FDE cie=00000018 pc=000f16d0...000f17d0
  Format:       DWARF32
  LSDA Address: 00000000000bc3a4
  DW_CFA_advance_loc: 1
  DW_CFA_def_cfa_offset: +16
  DW_CFA_offset: RBP -16
  DW_CFA_advance_loc: 3
  DW_CFA_def_cfa_register: RBP
  DW_CFA_advance_loc1: 192
  DW_CFA_def_cfa: RSP +8
  DW_CFA_advance_loc: 1
  DW_CFA_def_cfa: RBP +16
  DW_CFA_nop:
  DW_CFA_nop:

  0xf16d0: CFA=RSP+8: RIP=[CFA-8]
  0xf16d1: CFA=RSP+16: RBP=[CFA-16], RIP=[CFA-8]
  0xf16d4: CFA=RBP+16: RBP=[CFA-16], RIP=[CFA-8]
  0xf1794: CFA=RSP+8: RBP=[CFA-16], RIP=[CFA-8]
  0xf1795: CFA=RBP+16: RBP=[CFA-16], RIP=[CFA-8]

00002c38 0000001c 00002c3c FDE cie=00000000 pc=000f17d0...000f1803
  Format:       DWARF32
  DW_CFA_advance_loc: 1
  DW_CFA_def_cfa_offset: +16
  DW_CFA_offset: RBP -16
  DW_CFA_advance_loc: 3
  DW_CFA_def_cfa_register: RBP
  DW_CFA_advance_loc: 46
  DW_CFA_def_cfa: RSP +8
  DW_CFA_nop:
  DW_CFA_nop:
  DW_CFA_nop:

  0xf17d0: CFA=RSP+8: RIP=[CFA-8]
  0xf17d1: CFA=RSP+16: RBP=[CFA-16], RIP=[CFA-8]
  0xf17d4: CFA=RBP+16: RBP=[CFA-16], RIP=[CFA-8]
  0xf1802: CFA=RSP+8: RBP=[CFA-16], RIP=[CFA-8]

00002c58 0000001c 00002c5c FDE cie=00000000 pc=000f1810...000f1843
  Format:       DWARF32
  DW_CFA_advance_loc: 1
  DW_CFA_def_cfa_offset: +16
  DW_CFA_offset: RBP -16
  DW_CFA_advance_loc: 3
  DW_CFA_def_cfa_register: RBP
  DW_CFA_advance_loc: 46
  DW_CFA_def_cfa: RSP +8
  DW_CFA_nop:
  DW_CFA_nop:
  DW_CFA_nop:

  0xf1810: CFA=RSP+8: RIP=[CFA-8]
  0xf1811: CFA=RSP+16: RBP=[CFA-16], RIP=[CFA-8]
  0xf1814: CFA=RBP+16: RBP=[CFA-16], RIP=[CFA-8]
  0xf1842: CFA=RSP+8: RBP=[CFA-16], RIP=[CFA-8]

00002c78 0000001c 00002c7c FDE cie=00000000 pc=000f1850...000f1883
  Format:       DWARF32
  DW_CFA_advance_loc: 1
  DW_CFA_def_cfa_offset: +16
  DW_CFA_offset: RBP -16
  DW_CFA_advance_loc: 3
  DW_CFA_def_cfa_register: RBP
  DW_CFA_advance_loc: 46
  DW_CFA_def_cfa: RSP +8
  DW_CFA_nop:
  DW_CFA_nop:
  DW_CFA_nop:

  0xf1850: CFA=RSP+8: RIP=[CFA-8]
  0xf1851: CFA=RSP+16: RBP=[CFA-16], RIP=[CFA-8]
  0xf1854: CFA=RBP+16: RBP=[CFA-16], RIP=[CFA-8]
  0xf1882: CFA=RSP+8: RBP=[CFA-16], RIP=[CFA-8]

00002c98 0000001c 00002c9c FDE cie=00000000 pc=000f1890...000f18c3
  Format:       DWARF32
  DW_CFA_advance_loc: 1
  DW_CFA_def_cfa_offset: +16
  DW_CFA_offset: RBP -16
  DW_CFA_advance_loc: 3
  DW_CFA_def_cfa_register: RBP
  DW_CFA_advance_loc: 46
  DW_CFA_def_cfa: RSP +8
  DW_CFA_nop:
  DW_CFA_nop:
  DW_CFA_nop:

  0xf1890: CFA=RSP+8: RIP=[CFA-8]
  0xf1891: CFA=RSP+16: RBP=[CFA-16], RIP=[CFA-8]
  0xf1894: CFA=RBP+16: RBP=[CFA-16], RIP=[CFA-8]
  0xf18c2: CFA=RSP+8: RBP=[CFA-16], RIP=[CFA-8]

00002cb8 0000001c 00002cbc FDE cie=00000000 pc=000f18d0...000f1903
  Format:       DWARF32
  DW_CFA_advance_loc: 1
  DW_CFA_def_cfa_offset: +16
  DW_CFA_offset: RBP -16
  DW_CFA_advance_loc: 3
  DW_CFA_def_cfa_register: RBP
  DW_CFA_advance_loc: 46
  DW_CFA_def_cfa: RSP +8
  DW_CFA_nop:
  DW_CFA_nop:
  DW_CFA_nop:

  0xf18d0: CFA=RSP+8: RIP=[CFA-8]
  0xf18d1: CFA=RSP+16: RBP=[CFA-16], RIP=[CFA-8]
  0xf18d4: CFA=RBP+16: RBP=[CFA-16], RIP=[CFA-8]
  0xf1902: CFA=RSP+8: RBP=[CFA-16], RIP=[CFA-8]

00002cd8 0000001c 00002cdc FDE cie=00000000 pc=000f1910...000f1943
  Format:       DWARF32
  DW_CFA_advance_loc: 1
  DW_CFA_def_cfa_offset: +16
  DW_CFA_offset: RBP -16
  DW_CFA_advance_loc: 3
  DW_CFA_def_cfa_register: RBP
  DW_CFA_advance_loc: 46
  DW_CFA_def_cfa: RSP +8
  DW_CFA_nop:
  DW_CFA_nop:
  DW_CFA_nop:

  0xf1910: CFA=RSP+8: RIP=[CFA-8]
  0xf1911: CFA=RSP+16: RBP=[CFA-16], RIP=[CFA-8]
  0xf1914: CFA=RBP+16: RBP=[CFA-16], RIP=[CFA-8]
  0xf1942: CFA=RSP+8: RBP=[CFA-16], RIP=[CFA-8]

00002cf8 0000001c 00002cfc FDE cie=00000000 pc=000f1950...000f1983
  Format:       DWARF32
  DW_CFA_advance_loc: 1
  DW_CFA_def_cfa_offset: +16
  DW_CFA_offset: RBP -16
  DW_CFA_advance_loc: 3
  DW_CFA_def_cfa_register: RBP
  DW_CFA_advance_loc: 46
  DW_CFA_def_cfa: RSP +8
  DW_CFA_nop:
  DW_CFA_nop:
  DW_CFA_nop:

  0xf1950: CFA=RSP+8: RIP=[CFA-8]
  0xf1951: CFA=RSP+16: RBP=[CFA-16], RIP=[CFA-8]
  0xf1954: CFA=RBP+16: RBP=[CFA-16], RIP=[CFA-8]
  0xf1982: CFA=RSP+8: RBP=[CFA-16], RIP=[CFA-8]

00002d18 0000001c 00002d1c FDE cie=00000000 pc=000f1990...000f19c3
  Format:       DWARF32
  DW_CFA_advance_loc: 1
  DW_CFA_def_cfa_offset: +16
  DW_CFA_offset: RBP -16
  DW_CFA_advance_loc: 3
  DW_CFA_def_cfa_register: RBP
  DW_CFA_advance_loc: 46
  DW_CFA_def_cfa: RSP +8
  DW_CFA_nop:
  DW_CFA_nop:
  DW_CFA_nop:

  0xf1990: CFA=RSP+8: RIP=[CFA-8]
  0xf1991: CFA=RSP+16: RBP=[CFA-16], RIP=[CFA-8]
  0xf1994: CFA=RBP+16: RBP=[CFA-16], RIP=[CFA-8]
  0xf19c2: CFA=RSP+8: RBP=[CFA-16], RIP=[CFA-8]

00002d38 0000001c 00002d3c FDE cie=00000000 pc=000f19d0...000f1a03
  Format:       DWARF32
  DW_CFA_advance_loc: 1
  DW_CFA_def_cfa_offset: +16
  DW_CFA_offset: RBP -16
  DW_CFA_advance_loc: 3
  DW_CFA_def_cfa_register: RBP
  DW_CFA_advance_loc: 46
  DW_CFA_def_cfa: RSP +8
  DW_CFA_nop:
  DW_CFA_nop:
  DW_CFA_nop:

  0xf19d0: CFA=RSP+8: RIP=[CFA-8]
  0xf19d1: CFA=RSP+16: RBP=[CFA-16], RIP=[CFA-8]
  0xf19d4: CFA=RBP+16: RBP=[CFA-16], RIP=[CFA-8]
  0xf1a02: CFA=RSP+8: RBP=[CFA-16], RIP=[CFA-8]

00002d58 0000001c 00002d5c FDE cie=00000000 pc=000f1a10...000f1a43
  Format:       DWARF32
  DW_CFA_advance_loc: 1
  DW_CFA_def_cfa_offset: +16
  DW_CFA_offset: RBP -16
  DW_CFA_advance_loc: 3
  DW_CFA_def_cfa_register: RBP
  DW_CFA_advance_loc: 46
  DW_CFA_def_cfa: RSP +8
  DW_CFA_nop:
  DW_CFA_nop:
  DW_CFA_nop:

  0xf1a10: CFA=RSP+8: RIP=[CFA-8]
  0xf1a11: CFA=RSP+16: RBP=[CFA-16], RIP=[CFA-8]
  0xf1a14: CFA=RBP+16: RBP=[CFA-16], RIP=[CFA-8]
  0xf1a42: CFA=RSP+8: RBP=[CFA-16], RIP=[CFA-8]

00002d78 0000001c 00002d7c FDE cie=00000000 pc=000f1a50...000f1a83
  Format:       DWARF32
  DW_CFA_advance_loc: 1
  DW_CFA_def_cfa_offset: +16
  DW_CFA_offset: RBP -16
  DW_CFA_advance_loc: 3
  DW_CFA_def_cfa_register: RBP
  DW_CFA_advance_loc: 46
  DW_CFA_def_cfa: RSP +8
  DW_CFA_nop:
  DW_CFA_nop:
  DW_CFA_nop:

  0xf1a50: CFA=RSP+8: RIP=[CFA-8]
  0xf1a51: CFA=RSP+16: RBP=[CFA-16], RIP=[CFA-8]
  0xf1a54: CFA=RBP+16: RBP=[CFA-16], RIP=[CFA-8]
  0xf1a82: CFA=RSP+8: RBP=[CFA-16], RIP=[CFA-8]

00002d98 0000001c 00002d9c FDE cie=00000000 pc=000f1a90...000f1ac3
  Format:       DWARF32
  DW_CFA_advance_loc: 1
  DW_CFA_def_cfa_offset: +16
  DW_CFA_offset: RBP -16
  DW_CFA_advance_loc: 3
  DW_CFA_def_cfa_register: RBP
  DW_CFA_advance_loc: 46
  DW_CFA_def_cfa: RSP +8
  DW_CFA_nop:
  DW_CFA_nop:
  DW_CFA_nop:

  0xf1a90: CFA=RSP+8: RIP=[CFA-8]
  0xf1a91: CFA=RSP+16: RBP=[CFA-16], RIP=[CFA-8]
  0xf1a94: CFA=RBP+16: RBP=[CFA-16], RIP=[CFA-8]
  0xf1ac2: CFA=RSP+8: RBP=[CFA-16], RIP=[CFA-8]

00002db8 0000001c 00002dbc FDE cie=00000000 pc=000f1ad0...000f1b03
  Format:       DWARF32
  DW_CFA_advance_loc: 1
  DW_CFA_def_cfa_offset: +16
  DW_CFA_offset: RBP -16
  DW_CFA_advance_loc: 3
  DW_CFA_def_cfa_register: RBP
  DW_CFA_advance_loc: 46
  DW_CFA_def_cfa: RSP +8
  DW_CFA_nop:
  DW_CFA_nop:
  DW_CFA_nop:

  0xf1ad0: CFA=RSP+8: RIP=[CFA-8]
  0xf1ad1: CFA=RSP+16: RBP=[CFA-16], RIP=[CFA-8]
  0xf1ad4: CFA=RBP+16: RBP=[CFA-16], RIP=[CFA-8]
  0xf1b02: CFA=RSP+8: RBP=[CFA-16], RIP=[CFA-8]

00002dd8 0000001c 00002ddc FDE cie=00000000 pc=000f1b10...000f1b43
  Format:       DWARF32
  DW_CFA_advance_loc: 1
  DW_CFA_def_cfa_offset: +16
  DW_CFA_offset: RBP -16
  DW_CFA_advance_loc: 3
  DW_CFA_def_cfa_register: RBP
  DW_CFA_advance_loc: 46
  DW_CFA_def_cfa: RSP +8
  DW_CFA_nop:
  DW_CFA_nop:
  DW_CFA_nop:

  0xf1b10: CFA=RSP+8: RIP=[CFA-8]
  0xf1b11: CFA=RSP+16: RBP=[CFA-16], RIP=[CFA-8]
  0xf1b14: CFA=RBP+16: RBP=[CFA-16], RIP=[CFA-8]
  0xf1b42: CFA=RSP+8: RBP=[CFA-16], RIP=[CFA-8]

00002df8 0000001c 00002dfc FDE cie=00000000 pc=000f1b50...000f1b83
  Format:       DWARF32
  DW_CFA_advance_loc: 1
  DW_CFA_def_cfa_offset: +16
  DW_CFA_offset: RBP -16
  DW_CFA_advance_loc: 3
  DW_CFA_def_cfa_register: RBP
  DW_CFA_advance_loc: 46
  DW_CFA_def_cfa: RSP +8
  DW_CFA_nop:
  DW_CFA_nop:
  DW_CFA_nop:

  0xf1b50: CFA=RSP+8: RIP=[CFA-8]
  0xf1b51: CFA=RSP+16: RBP=[CFA-16], RIP=[CFA-8]
  0xf1b54: CFA=RBP+16: RBP=[CFA-16], RIP=[CFA-8]
  0xf1b82: CFA=RSP+8: RBP=[CFA-16], RIP=[CFA-8]

00002e18 0000001c 00002e1c FDE cie=00000000 pc=000f1b90...000f1bc3
  Format:       DWARF32
  DW_CFA_advance_loc: 1
  DW_CFA_def_cfa_offset: +16
  DW_CFA_offset: RBP -16
  DW_CFA_advance_loc: 3
  DW_CFA_def_cfa_register: RBP
  DW_CFA_advance_loc: 46
  DW_CFA_def_cfa: RSP +8
  DW_CFA_nop:
  DW_CFA_nop:
  DW_CFA_nop:

  0xf1b90: CFA=RSP+8: RIP=[CFA-8]
  0xf1b91: CFA=RSP+16: RBP=[CFA-16], RIP=[CFA-8]
  0xf1b94: CFA=RBP+16: RBP=[CFA-16], RIP=[CFA-8]
  0xf1bc2: CFA=RSP+8: RBP=[CFA-16], RIP=[CFA-8]

00002e38 0000001c 00002e3c FDE cie=00000000 pc=000f1bd0...000f1c03
  Format:       DWARF32
  DW_CFA_advance_loc: 1
  DW_CFA_def_cfa_offset: +16
  DW_CFA_offset: RBP -16
  DW_CFA_advance_loc: 3
  DW_CFA_def_cfa_register: RBP
  DW_CFA_advance_loc: 46
  DW_CFA_def_cfa: RSP +8
  DW_CFA_nop:
  DW_CFA_nop:
  DW_CFA_nop:

  0xf1bd0: CFA=RSP+8: RIP=[CFA-8]
  0xf1bd1: CFA=RSP+16: RBP=[CFA-16], RIP=[CFA-8]
  0xf1bd4: CFA=RBP+16: RBP=[CFA-16], RIP=[CFA-8]
  0xf1c02: CFA=RSP+8: RBP=[CFA-16], RIP=[CFA-8]

00002e58 0000001c 00002e5c FDE cie=00000000 pc=000f1c10...000f1c43
  Format:       DWARF32
  DW_CFA_advance_loc: 1
  DW_CFA_def_cfa_offset: +16
  DW_CFA_offset: RBP -16
  DW_CFA_advance_loc: 3
  DW_CFA_def_cfa_register: RBP
  DW_CFA_advance_loc: 46
  DW_CFA_def_cfa: RSP +8
  DW_CFA_nop:
  DW_CFA_nop:
  DW_CFA_nop:

  0xf1c10: CFA=RSP+8: RIP=[CFA-8]
  0xf1c11: CFA=RSP+16: RBP=[CFA-16], RIP=[CFA-8]
  0xf1c14: CFA=RBP+16: RBP=[CFA-16], RIP=[CFA-8]
  0xf1c42: CFA=RSP+8: RBP=[CFA-16], RIP=[CFA-8]

00002e78 00000024 00002e64 FDE cie=00000018 pc=000f1c50...000f1dac
  Format:       DWARF32
  LSDA Address: 00000000000bc3b8
  DW_CFA_advance_loc: 1
  DW_CFA_def_cfa_offset: +16
  DW_CFA_offset: RBP -16
  DW_CFA_advance_loc: 3
  DW_CFA_def_cfa_register: RBP
  DW_CFA_advance_loc2: 296
  DW_CFA_def_cfa: RSP +8
  DW_CFA_advance_loc: 1
  DW_CFA_def_cfa: RBP +16
  DW_CFA_nop:

  0xf1c50: CFA=RSP+8: RIP=[CFA-8]
  0xf1c51: CFA=RSP+16: RBP=[CFA-16], RIP=[CFA-8]
  0xf1c54: CFA=RBP+16: RBP=[CFA-16], RIP=[CFA-8]
  0xf1d7c: CFA=RSP+8: RBP=[CFA-16], RIP=[CFA-8]
  0xf1d7d: CFA=RBP+16: RBP=[CFA-16], RIP=[CFA-8]

00002ea0 00000024 00002e8c FDE cie=00000018 pc=000f1db0...000f1f0c
  Format:       DWARF32
  LSDA Address: 00000000000bc3c8
  DW_CFA_advance_loc: 1
  DW_CFA_def_cfa_offset: +16
  DW_CFA_offset: RBP -16
  DW_CFA_advance_loc: 3
  DW_CFA_def_cfa_register: RBP
  DW_CFA_advance_loc2: 296
  DW_CFA_def_cfa: RSP +8
  DW_CFA_advance_loc: 1
  DW_CFA_def_cfa: RBP +16
  DW_CFA_nop:

  0xf1db0: CFA=RSP+8: RIP=[CFA-8]
  0xf1db1: CFA=RSP+16: RBP=[CFA-16], RIP=[CFA-8]
  0xf1db4: CFA=RBP+16: RBP=[CFA-16], RIP=[CFA-8]
  0xf1edc: CFA=RSP+8: RBP=[CFA-16], RIP=[CFA-8]
  0xf1edd: CFA=RBP+16: RBP=[CFA-16], RIP=[CFA-8]

00002ec8 00000024 00002eb4 FDE cie=00000018 pc=000f1f10...000f206c
  Format:       DWARF32
  LSDA Address: 00000000000bc3d8
  DW_CFA_advance_loc: 1
  DW_CFA_def_cfa_offset: +16
  DW_CFA_offset: RBP -16
  DW_CFA_advance_loc: 3
  DW_CFA_def_cfa_register: RBP
  DW_CFA_advance_loc2: 296
  DW_CFA_def_cfa: RSP +8
  DW_CFA_advance_loc: 1
  DW_CFA_def_cfa: RBP +16
  DW_CFA_nop:

  0xf1f10: CFA=RSP+8: RIP=[CFA-8]
  0xf1f11: CFA=RSP+16: RBP=[CFA-16], RIP=[CFA-8]
  0xf1f14: CFA=RBP+16: RBP=[CFA-16], RIP=[CFA-8]
  0xf203c: CFA=RSP+8: RBP=[CFA-16], RIP=[CFA-8]
  0xf203d: CFA=RBP+16: RBP=[CFA-16], RIP=[CFA-8]

00002ef0 00000024 00002edc FDE cie=00000018 pc=000f2070...000f21cc
  Format:       DWARF32
  LSDA Address: 00000000000bc3e8
  DW_CFA_advance_loc: 1
  DW_CFA_def_cfa_offset: +16
  DW_CFA_offset: RBP -16
  DW_CFA_advance_loc: 3
  DW_CFA_def_cfa_register: RBP
  DW_CFA_advance_loc2: 296
  DW_CFA_def_cfa: RSP +8
  DW_CFA_advance_loc: 1
  DW_CFA_def_cfa: RBP +16
  DW_CFA_nop:

  0xf2070: CFA=RSP+8: RIP=[CFA-8]
  0xf2071: CFA=RSP+16: RBP=[CFA-16], RIP=[CFA-8]
  0xf2074: CFA=RBP+16: RBP=[CFA-16], RIP=[CFA-8]
  0xf219c: CFA=RSP+8: RBP=[CFA-16], RIP=[CFA-8]
  0xf219d: CFA=RBP+16: RBP=[CFA-16], RIP=[CFA-8]

00002f18 00000024 00002f04 FDE cie=00000018 pc=000f21d0...000f232c
  Format:       DWARF32
  LSDA Address: 00000000000bc3f8
  DW_CFA_advance_loc: 1
  DW_CFA_def_cfa_offset: +16
  DW_CFA_offset: RBP -16
  DW_CFA_advance_loc: 3
  DW_CFA_def_cfa_register: RBP
  DW_CFA_advance_loc2: 296
  DW_CFA_def_cfa: RSP +8
  DW_CFA_advance_loc: 1
  DW_CFA_def_cfa: RBP +16
  DW_CFA_nop:

  0xf21d0: CFA=RSP+8: RIP=[CFA-8]
  0xf21d1: CFA=RSP+16: RBP=[CFA-16], RIP=[CFA-8]
  0xf21d4: CFA=RBP+16: RBP=[CFA-16], RIP=[CFA-8]
  0xf22fc: CFA=RSP+8: RBP=[CFA-16], RIP=[CFA-8]
  0xf22fd: CFA=RBP+16: RBP=[CFA-16], RIP=[CFA-8]

00002f40 00000024 00002f2c FDE cie=00000018 pc=000f2330...000f248c
  Format:       DWARF32
  LSDA Address: 00000000000bc408
  DW_CFA_advance_loc: 1
  DW_CFA_def_cfa_offset: +16
  DW_CFA_offset: RBP -16
  DW_CFA_advance_loc: 3
  DW_CFA_def_cfa_register: RBP
  DW_CFA_advance_loc2: 296
  DW_CFA_def_cfa: RSP +8
  DW_CFA_advance_loc: 1
  DW_CFA_def_cfa: RBP +16
  DW_CFA_nop:

  0xf2330: CFA=RSP+8: RIP=[CFA-8]
  0xf2331: CFA=RSP+16: RBP=[CFA-16], RIP=[CFA-8]
  0xf2334: CFA=RBP+16: RBP=[CFA-16], RIP=[CFA-8]
  0xf245c: CFA=RSP+8: RBP=[CFA-16], RIP=[CFA-8]
  0xf245d: CFA=RBP+16: RBP=[CFA-16], RIP=[CFA-8]

00002f68 00000024 00002f54 FDE cie=00000018 pc=000f2490...000f25ec
  Format:       DWARF32
  LSDA Address: 00000000000bc418
  DW_CFA_advance_loc: 1
  DW_CFA_def_cfa_offset: +16
  DW_CFA_offset: RBP -16
  DW_CFA_advance_loc: 3
  DW_CFA_def_cfa_register: RBP
  DW_CFA_advance_loc2: 296
  DW_CFA_def_cfa: RSP +8
  DW_CFA_advance_loc: 1
  DW_CFA_def_cfa: RBP +16
  DW_CFA_nop:

  0xf2490: CFA=RSP+8: RIP=[CFA-8]
  0xf2491: CFA=RSP+16: RBP=[CFA-16], RIP=[CFA-8]
  0xf2494: CFA=RBP+16: RBP=[CFA-16], RIP=[CFA-8]
  0xf25bc: CFA=RSP+8: RBP=[CFA-16], RIP=[CFA-8]
  0xf25bd: CFA=RBP+16: RBP=[CFA-16], RIP=[CFA-8]

00002f90 00000024 00002f7c FDE cie=00000018 pc=000f25f0...000f274c
  Format:       DWARF32
  LSDA Address: 00000000000bc428
  DW_CFA_advance_loc: 1
  DW_CFA_def_cfa_offset: +16
  DW_CFA_offset: RBP -16
  DW_CFA_advance_loc: 3
  DW_CFA_def_cfa_register: RBP
  DW_CFA_advance_loc2: 296
  DW_CFA_def_cfa: RSP +8
  DW_CFA_advance_loc: 1
  DW_CFA_def_cfa: RBP +16
  DW_CFA_nop:

  0xf25f0: CFA=RSP+8: RIP=[CFA-8]
  0xf25f1: CFA=RSP+16: RBP=[CFA-16], RIP=[CFA-8]
  0xf25f4: CFA=RBP+16: RBP=[CFA-16], RIP=[CFA-8]
  0xf271c: CFA=RSP+8: RBP=[CFA-16], RIP=[CFA-8]
  0xf271d: CFA=RBP+16: RBP=[CFA-16], RIP=[CFA-8]

00002fb8 00000024 00002fa4 FDE cie=00000018 pc=000f2750...000f28ac
  Format:       DWARF32
  LSDA Address: 00000000000bc438
  DW_CFA_advance_loc: 1
  DW_CFA_def_cfa_offset: +16
  DW_CFA_offset: RBP -16
  DW_CFA_advance_loc: 3
  DW_CFA_def_cfa_register: RBP
  DW_CFA_advance_loc2: 296
  DW_CFA_def_cfa: RSP +8
  DW_CFA_advance_loc: 1
  DW_CFA_def_cfa: RBP +16
  DW_CFA_nop:

  0xf2750: CFA=RSP+8: RIP=[CFA-8]
  0xf2751: CFA=RSP+16: RBP=[CFA-16], RIP=[CFA-8]
  0xf2754: CFA=RBP+16: RBP=[CFA-16], RIP=[CFA-8]
  0xf287c: CFA=RSP+8: RBP=[CFA-16], RIP=[CFA-8]
  0xf287d: CFA=RBP+16: RBP=[CFA-16], RIP=[CFA-8]

00002fe0 00000024 00002fcc FDE cie=00000018 pc=000f28b0...000f2a0c
  Format:       DWARF32
  LSDA Address: 00000000000bc448
  DW_CFA_advance_loc: 1
  DW_CFA_def_cfa_offset: +16
  DW_CFA_offset: RBP -16
  DW_CFA_advance_loc: 3
  DW_CFA_def_cfa_register: RBP
  DW_CFA_advance_loc2: 296
  DW_CFA_def_cfa: RSP +8
  DW_CFA_advance_loc: 1
  DW_CFA_def_cfa: RBP +16
  DW_CFA_nop:

  0xf28b0: CFA=RSP+8: RIP=[CFA-8]
  0xf28b1: CFA=RSP+16: RBP=[CFA-16], RIP=[CFA-8]
  0xf28b4: CFA=RBP+16: RBP=[CFA-16], RIP=[CFA-8]
  0xf29dc: CFA=RSP+8: RBP=[CFA-16], RIP=[CFA-8]
  0xf29dd: CFA=RBP+16: RBP=[CFA-16], RIP=[CFA-8]

00003008 00000024 00002ff4 FDE cie=00000018 pc=000f2a10...000f2b6c
  Format:       DWARF32
  LSDA Address: 00000000000bc458
  DW_CFA_advance_loc: 1
  DW_CFA_def_cfa_offset: +16
  DW_CFA_offset: RBP -16
  DW_CFA_advance_loc: 3
  DW_CFA_def_cfa_register: RBP
  DW_CFA_advance_loc2: 296
  DW_CFA_def_cfa: RSP +8
  DW_CFA_advance_loc: 1
  DW_CFA_def_cfa: RBP +16
  DW_CFA_nop:

  0xf2a10: CFA=RSP+8: RIP=[CFA-8]
  0xf2a11: CFA=RSP+16: RBP=[CFA-16], RIP=[CFA-8]
  0xf2a14: CFA=RBP+16: RBP=[CFA-16], RIP=[CFA-8]
  0xf2b3c: CFA=RSP+8: RBP=[CFA-16], RIP=[CFA-8]
  0xf2b3d: CFA=RBP+16: RBP=[CFA-16], RIP=[CFA-8]

00003030 00000024 0000301c FDE cie=00000018 pc=000f2b70...000f2ccc
  Format:       DWARF32
  LSDA Address: 00000000000bc468
  DW_CFA_advance_loc: 1
  DW_CFA_def_cfa_offset: +16
  DW_CFA_offset: RBP -16
  DW_CFA_advance_loc: 3
  DW_CFA_def_cfa_register: RBP
  DW_CFA_advance_loc2: 296
  DW_CFA_def_cfa: RSP +8
  DW_CFA_advance_loc: 1
  DW_CFA_def_cfa: RBP +16
  DW_CFA_nop:

  0xf2b70: CFA=RSP+8: RIP=[CFA-8]
  0xf2b71: CFA=RSP+16: RBP=[CFA-16], RIP=[CFA-8]
  0xf2b74: CFA=RBP+16: RBP=[CFA-16], RIP=[CFA-8]
  0xf2c9c: CFA=RSP+8: RBP=[CFA-16], RIP=[CFA-8]
  0xf2c9d: CFA=RBP+16: RBP=[CFA-16], RIP=[CFA-8]

00003058 00000024 00003044 FDE cie=00000018 pc=000f2cd0...000f2e2c
  Format:       DWARF32
  LSDA Address: 00000000000bc478
  DW_CFA_advance_loc: 1
  DW_CFA_def_cfa_offset: +16
  DW_CFA_offset: RBP -16
  DW_CFA_advance_loc: 3
  DW_CFA_def_cfa_register: RBP
  DW_CFA_advance_loc2: 296
  DW_CFA_def_cfa: RSP +8
  DW_CFA_advance_loc: 1
  DW_CFA_def_cfa: RBP +16
  DW_CFA_nop:

  0xf2cd0: CFA=RSP+8: RIP=[CFA-8]
  0xf2cd1: CFA=RSP+16: RBP=[CFA-16], RIP=[CFA-8]
  0xf2cd4: CFA=RBP+16: RBP=[CFA-16], RIP=[CFA-8]
  0xf2dfc: CFA=RSP+8: RBP=[CFA-16], RIP=[CFA-8]
  0xf2dfd: CFA=RBP+16: RBP=[CFA-16], RIP=[CFA-8]

00003080 00000024 0000306c FDE cie=00000018 pc=000f2e30...000f2f8c
  Format:       DWARF32
  LSDA Address: 00000000000bc488
  DW_CFA_advance_loc: 1
  DW_CFA_def_cfa_offset: +16
  DW_CFA_offset: RBP -16
  DW_CFA_advance_loc: 3
  DW_CFA_def_cfa_register: RBP
  DW_CFA_advance_loc2: 296
  DW_CFA_def_cfa: RSP +8
  DW_CFA_advance_loc: 1
  DW_CFA_def_cfa: RBP +16
  DW_CFA_nop:

  0xf2e30: CFA=RSP+8: RIP=[CFA-8]
  0xf2e31: CFA=RSP+16: RBP=[CFA-16], RIP=[CFA-8]
  0xf2e34: CFA=RBP+16: RBP=[CFA-16], RIP=[CFA-8]
  0xf2f5c: CFA=RSP+8: RBP=[CFA-16], RIP=[CFA-8]
  0xf2f5d: CFA=RBP+16: RBP=[CFA-16], RIP=[CFA-8]

000030a8 00000024 00003094 FDE cie=00000018 pc=000f2f90...000f30ec
  Format:       DWARF32
  LSDA Address: 00000000000bc498
  DW_CFA_advance_loc: 1
  DW_CFA_def_cfa_offset: +16
  DW_CFA_offset: RBP -16
  DW_CFA_advance_loc: 3
  DW_CFA_def_cfa_register: RBP
  DW_CFA_advance_loc2: 296
  DW_CFA_def_cfa: RSP +8
  DW_CFA_advance_loc: 1
  DW_CFA_def_cfa: RBP +16
  DW_CFA_nop:

  0xf2f90: CFA=RSP+8: RIP=[CFA-8]
  0xf2f91: CFA=RSP+16: RBP=[CFA-16], RIP=[CFA-8]
  0xf2f94: CFA=RBP+16: RBP=[CFA-16], RIP=[CFA-8]
  0xf30bc: CFA=RSP+8: RBP=[CFA-16], RIP=[CFA-8]
  0xf30bd: CFA=RBP+16: RBP=[CFA-16], RIP=[CFA-8]

000030d0 00000024 000030bc FDE cie=00000018 pc=000f30f0...000f324c
  Format:       DWARF32
  LSDA Address: 00000000000bc4a8
  DW_CFA_advance_loc: 1
  DW_CFA_def_cfa_offset: +16
  DW_CFA_offset: RBP -16
  DW_CFA_advance_loc: 3
  DW_CFA_def_cfa_register: RBP
  DW_CFA_advance_loc2: 296
  DW_CFA_def_cfa: RSP +8
  DW_CFA_advance_loc: 1
  DW_CFA_def_cfa: RBP +16
  DW_CFA_nop:

  0xf30f0: CFA=RSP+8: RIP=[CFA-8]
  0xf30f1: CFA=RSP+16: RBP=[CFA-16], RIP=[CFA-8]
  0xf30f4: CFA=RBP+16: RBP=[CFA-16], RIP=[CFA-8]
  0xf321c: CFA=RSP+8: RBP=[CFA-16], RIP=[CFA-8]
  0xf321d: CFA=RBP+16: RBP=[CFA-16], RIP=[CFA-8]

000030f8 00000024 000030e4 FDE cie=00000018 pc=000f3250...000f33ac
  Format:       DWARF32
  LSDA Address: 00000000000bc4b8
  DW_CFA_advance_loc: 1
  DW_CFA_def_cfa_offset: +16
  DW_CFA_offset: RBP -16
  DW_CFA_advance_loc: 3
  DW_CFA_def_cfa_register: RBP
  DW_CFA_advance_loc2: 296
  DW_CFA_def_cfa: RSP +8
  DW_CFA_advance_loc: 1
  DW_CFA_def_cfa: RBP +16
  DW_CFA_nop:

  0xf3250: CFA=RSP+8: RIP=[CFA-8]
  0xf3251: CFA=RSP+16: RBP=[CFA-16], RIP=[CFA-8]
  0xf3254: CFA=RBP+16: RBP=[CFA-16], RIP=[CFA-8]
  0xf337c: CFA=RSP+8: RBP=[CFA-16], RIP=[CFA-8]
  0xf337d: CFA=RBP+16: RBP=[CFA-16], RIP=[CFA-8]

00003120 00000028 0000310c FDE cie=00000018 pc=000f33b0...000f350c
  Format:       DWARF32
  LSDA Address: 00000000000bc4c8
  DW_CFA_advance_loc: 1
  DW_CFA_def_cfa_offset: +16
  DW_CFA_offset: RBP -16
  DW_CFA_advance_loc: 3
  DW_CFA_def_cfa_register: RBP
  DW_CFA_advance_loc2: 296
  DW_CFA_def_cfa: RSP +8
  DW_CFA_advance_loc: 1
  DW_CFA_def_cfa: RBP +16
  DW_CFA_nop:
  DW_CFA_nop:
  DW_CFA_nop:
  DW_CFA_nop:
  DW_CFA_nop:

  0xf33b0: CFA=RSP+8: RIP=[CFA-8]
  0xf33b1: CFA=RSP+16: RBP=[CFA-16], RIP=[CFA-8]
  0xf33b4: CFA=RBP+16: RBP=[CFA-16], RIP=[CFA-8]
  0xf34dc: CFA=RSP+8: RBP=[CFA-16], RIP=[CFA-8]
  0xf34dd: CFA=RBP+16: RBP=[CFA-16], RIP=[CFA-8]

0000314c 0000001c 00003150 FDE cie=00000000 pc=000f3510...000f3555
  Format:       DWARF32
  DW_CFA_advance_loc: 1
  DW_CFA_def_cfa_offset: +16
  DW_CFA_offset: RBP -16
  DW_CFA_advance_loc: 3
  DW_CFA_def_cfa_register: RBP
  DW_CFA_advance_loc1: 64
  DW_CFA_def_cfa: RSP +8
  DW_CFA_nop:
  DW_CFA_nop:

  0xf3510: CFA=RSP+8: RIP=[CFA-8]
  0xf3511: CFA=RSP+16: RBP=[CFA-16], RIP=[CFA-8]
  0xf3514: CFA=RBP+16: RBP=[CFA-16], RIP=[CFA-8]
  0xf3554: CFA=RSP+8: RBP=[CFA-16], RIP=[CFA-8]

0000316c 0000001c 00003170 FDE cie=00000000 pc=000f3560...000f35a5
  Format:       DWARF32
  DW_CFA_advance_loc: 1
  DW_CFA_def_cfa_offset: +16
  DW_CFA_offset: RBP -16
  DW_CFA_advance_loc: 3
  DW_CFA_def_cfa_register: RBP
  DW_CFA_advance_loc1: 64
  DW_CFA_def_cfa: RSP +8
  DW_CFA_nop:
  DW_CFA_nop:

  0xf3560: CFA=RSP+8: RIP=[CFA-8]
  0xf3561: CFA=RSP+16: RBP=[CFA-16], RIP=[CFA-8]
  0xf3564: CFA=RBP+16: RBP=[CFA-16], RIP=[CFA-8]
  0xf35a4: CFA=RSP+8: RBP=[CFA-16], RIP=[CFA-8]

0000318c 0000001c 00003190 FDE cie=00000000 pc=000f35b0...000f35f5
  Format:       DWARF32
  DW_CFA_advance_loc: 1
  DW_CFA_def_cfa_offset: +16
  DW_CFA_offset: RBP -16
  DW_CFA_advance_loc: 3
  DW_CFA_def_cfa_register: RBP
  DW_CFA_advance_loc1: 64
  DW_CFA_def_cfa: RSP +8
  DW_CFA_nop:
  DW_CFA_nop:

  0xf35b0: CFA=RSP+8: RIP=[CFA-8]
  0xf35b1: CFA=RSP+16: RBP=[CFA-16], RIP=[CFA-8]
  0xf35b4: CFA=RBP+16: RBP=[CFA-16], RIP=[CFA-8]
  0xf35f4: CFA=RSP+8: RBP=[CFA-16], RIP=[CFA-8]

000031ac 0000001c 000031b0 FDE cie=00000000 pc=000f3600...000f3645
  Format:       DWARF32
  DW_CFA_advance_loc: 1
  DW_CFA_def_cfa_offset: +16
  DW_CFA_offset: RBP -16
  DW_CFA_advance_loc: 3
  DW_CFA_def_cfa_register: RBP
  DW_CFA_advance_loc1: 64
  DW_CFA_def_cfa: RSP +8
  DW_CFA_nop:
  DW_CFA_nop:

  0xf3600: CFA=RSP+8: RIP=[CFA-8]
  0xf3601: CFA=RSP+16: RBP=[CFA-16], RIP=[CFA-8]
  0xf3604: CFA=RBP+16: RBP=[CFA-16], RIP=[CFA-8]
  0xf3644: CFA=RSP+8: RBP=[CFA-16], RIP=[CFA-8]

000031cc 0000001c 000031d0 FDE cie=00000000 pc=000f3650...000f3695
  Format:       DWARF32
  DW_CFA_advance_loc: 1
  DW_CFA_def_cfa_offset: +16
  DW_CFA_offset: RBP -16
  DW_CFA_advance_loc: 3
  DW_CFA_def_cfa_register: RBP
  DW_CFA_advance_loc1: 64
  DW_CFA_def_cfa: RSP +8
  DW_CFA_nop:
  DW_CFA_nop:

  0xf3650: CFA=RSP+8: RIP=[CFA-8]
  0xf3651: CFA=RSP+16: RBP=[CFA-16], RIP=[CFA-8]
  0xf3654: CFA=RBP+16: RBP=[CFA-16], RIP=[CFA-8]
  0xf3694: CFA=RSP+8: RBP=[CFA-16], RIP=[CFA-8]

000031ec 0000001c 000031f0 FDE cie=00000000 pc=000f36a0...000f36e5
  Format:       DWARF32
  DW_CFA_advance_loc: 1
  DW_CFA_def_cfa_offset: +16
  DW_CFA_offset: RBP -16
  DW_CFA_advance_loc: 3
  DW_CFA_def_cfa_register: RBP
  DW_CFA_advance_loc1: 64
  DW_CFA_def_cfa: RSP +8
  DW_CFA_nop:
  DW_CFA_nop:

  0xf36a0: CFA=RSP+8: RIP=[CFA-8]
  0xf36a1: CFA=RSP+16: RBP=[CFA-16], RIP=[CFA-8]
  0xf36a4: CFA=RBP+16: RBP=[CFA-16], RIP=[CFA-8]
  0xf36e4: CFA=RSP+8: RBP=[CFA-16], RIP=[CFA-8]

0000320c 0000001c 00003210 FDE cie=00000000 pc=000f36f0...000f3735
  Format:       DWARF32
  DW_CFA_advance_loc: 1
  DW_CFA_def_cfa_offset: +16
  DW_CFA_offset: RBP -16
  DW_CFA_advance_loc: 3
  DW_CFA_def_cfa_register: RBP
  DW_CFA_advance_loc1: 64
  DW_CFA_def_cfa: RSP +8
  DW_CFA_nop:
  DW_CFA_nop:

  0xf36f0: CFA=RSP+8: RIP=[CFA-8]
  0xf36f1: CFA=RSP+16: RBP=[CFA-16], RIP=[CFA-8]
  0xf36f4: CFA=RBP+16: RBP=[CFA-16], RIP=[CFA-8]
  0xf3734: CFA=RSP+8: RBP=[CFA-16], RIP=[CFA-8]

0000322c 0000001c 00003230 FDE cie=00000000 pc=000f3740...000f3785
  Format:       DWARF32
  DW_CFA_advance_loc: 1
  DW_CFA_def_cfa_offset: +16
  DW_CFA_offset: RBP -16
  DW_CFA_advance_loc: 3
  DW_CFA_def_cfa_register: RBP
  DW_CFA_advance_loc1: 64
  DW_CFA_def_cfa: RSP +8
  DW_CFA_nop:
  DW_CFA_nop:

  0xf3740: CFA=RSP+8: RIP=[CFA-8]
  0xf3741: CFA=RSP+16: RBP=[CFA-16], RIP=[CFA-8]
  0xf3744: CFA=RBP+16: RBP=[CFA-16], RIP=[CFA-8]
  0xf3784: CFA=RSP+8: RBP=[CFA-16], RIP=[CFA-8]

0000324c 0000001c 00003250 FDE cie=00000000 pc=000f3790...000f37d5
  Format:       DWARF32
  DW_CFA_advance_loc: 1
  DW_CFA_def_cfa_offset: +16
  DW_CFA_offset: RBP -16
  DW_CFA_advance_loc: 3
  DW_CFA_def_cfa_register: RBP
  DW_CFA_advance_loc1: 64
  DW_CFA_def_cfa: RSP +8
  DW_CFA_nop:
  DW_CFA_nop:

  0xf3790: CFA=RSP+8: RIP=[CFA-8]
  0xf3791: CFA=RSP+16: RBP=[CFA-16], RIP=[CFA-8]
  0xf3794: CFA=RBP+16: RBP=[CFA-16], RIP=[CFA-8]
  0xf37d4: CFA=RSP+8: RBP=[CFA-16], RIP=[CFA-8]

0000326c 0000001c 00003270 FDE cie=00000000 pc=000f37e0...000f3825
  Format:       DWARF32
  DW_CFA_advance_loc: 1
  DW_CFA_def_cfa_offset: +16
  DW_CFA_offset: RBP -16
  DW_CFA_advance_loc: 3
  DW_CFA_def_cfa_register: RBP
  DW_CFA_advance_loc1: 64
  DW_CFA_def_cfa: RSP +8
  DW_CFA_nop:
  DW_CFA_nop:

  0xf37e0: CFA=RSP+8: RIP=[CFA-8]
  0xf37e1: CFA=RSP+16: RBP=[CFA-16], RIP=[CFA-8]
  0xf37e4: CFA=RBP+16: RBP=[CFA-16], RIP=[CFA-8]
  0xf3824: CFA=RSP+8: RBP=[CFA-16], RIP=[CFA-8]

0000328c 0000001c 00003290 FDE cie=00000000 pc=000f3830...000f3875
  Format:       DWARF32
  DW_CFA_advance_loc: 1
  DW_CFA_def_cfa_offset: +16
  DW_CFA_offset: RBP -16
  DW_CFA_advance_loc: 3
  DW_CFA_def_cfa_register: RBP
  DW_CFA_advance_loc1: 64
  DW_CFA_def_cfa: RSP +8
  DW_CFA_nop:
  DW_CFA_nop:

  0xf3830: CFA=RSP+8: RIP=[CFA-8]
  0xf3831: CFA=RSP+16: RBP=[CFA-16], RIP=[CFA-8]
  0xf3834: CFA=RBP+16: RBP=[CFA-16], RIP=[CFA-8]
  0xf3874: CFA=RSP+8: RBP=[CFA-16], RIP=[CFA-8]

000032ac 0000001c 000032b0 FDE cie=00000000 pc=000f3880...000f38c5
  Format:       DWARF32
  DW_CFA_advance_loc: 1
  DW_CFA_def_cfa_offset: +16
  DW_CFA_offset: RBP -16
  DW_CFA_advance_loc: 3
  DW_CFA_def_cfa_register: RBP
  DW_CFA_advance_loc1: 64
  DW_CFA_def_cfa: RSP +8
  DW_CFA_nop:
  DW_CFA_nop:

  0xf3880: CFA=RSP+8: RIP=[CFA-8]
  0xf3881: CFA=RSP+16: RBP=[CFA-16], RIP=[CFA-8]
  0xf3884: CFA=RBP+16: RBP=[CFA-16], RIP=[CFA-8]
  0xf38c4: CFA=RSP+8: RBP=[CFA-16], RIP=[CFA-8]

000032cc 0000001c 000032d0 FDE cie=00000000 pc=000f38d0...000f3915
  Format:       DWARF32
  DW_CFA_advance_loc: 1
  DW_CFA_def_cfa_offset: +16
  DW_CFA_offset: RBP -16
  DW_CFA_advance_loc: 3
  DW_CFA_def_cfa_register: RBP
  DW_CFA_advance_loc1: 64
  DW_CFA_def_cfa: RSP +8
  DW_CFA_nop:
  DW_CFA_nop:

  0xf38d0: CFA=RSP+8: RIP=[CFA-8]
  0xf38d1: CFA=RSP+16: RBP=[CFA-16], RIP=[CFA-8]
  0xf38d4: CFA=RBP+16: RBP=[CFA-16], RIP=[CFA-8]
  0xf3914: CFA=RSP+8: RBP=[CFA-16], RIP=[CFA-8]

000032ec 0000001c 000032f0 FDE cie=00000000 pc=000f3920...000f3965
  Format:       DWARF32
  DW_CFA_advance_loc: 1
  DW_CFA_def_cfa_offset: +16
  DW_CFA_offset: RBP -16
  DW_CFA_advance_loc: 3
  DW_CFA_def_cfa_register: RBP
  DW_CFA_advance_loc1: 64
  DW_CFA_def_cfa: RSP +8
  DW_CFA_nop:
  DW_CFA_nop:

  0xf3920: CFA=RSP+8: RIP=[CFA-8]
  0xf3921: CFA=RSP+16: RBP=[CFA-16], RIP=[CFA-8]
  0xf3924: CFA=RBP+16: RBP=[CFA-16], RIP=[CFA-8]
  0xf3964: CFA=RSP+8: RBP=[CFA-16], RIP=[CFA-8]

0000330c 0000001c 00003310 FDE cie=00000000 pc=000f3970...000f39b5
  Format:       DWARF32
  DW_CFA_advance_loc: 1
  DW_CFA_def_cfa_offset: +16
  DW_CFA_offset: RBP -16
  DW_CFA_advance_loc: 3
  DW_CFA_def_cfa_register: RBP
  DW_CFA_advance_loc1: 64
  DW_CFA_def_cfa: RSP +8
  DW_CFA_nop:
  DW_CFA_nop:

  0xf3970: CFA=RSP+8: RIP=[CFA-8]
  0xf3971: CFA=RSP+16: RBP=[CFA-16], RIP=[CFA-8]
  0xf3974: CFA=RBP+16: RBP=[CFA-16], RIP=[CFA-8]
  0xf39b4: CFA=RSP+8: RBP=[CFA-16], RIP=[CFA-8]

0000332c 0000001c 00003330 FDE cie=00000000 pc=000f39c0...000f3a05
  Format:       DWARF32
  DW_CFA_advance_loc: 1
  DW_CFA_def_cfa_offset: +16
  DW_CFA_offset: RBP -16
  DW_CFA_advance_loc: 3
  DW_CFA_def_cfa_register: RBP
  DW_CFA_advance_loc1: 64
  DW_CFA_def_cfa: RSP +8
  DW_CFA_nop:
  DW_CFA_nop:

  0xf39c0: CFA=RSP+8: RIP=[CFA-8]
  0xf39c1: CFA=RSP+16: RBP=[CFA-16], RIP=[CFA-8]
  0xf39c4: CFA=RBP+16: RBP=[CFA-16], RIP=[CFA-8]
  0xf3a04: CFA=RSP+8: RBP=[CFA-16], RIP=[CFA-8]

0000334c 0000001c 00003350 FDE cie=00000000 pc=000f3a10...000f3a55
  Format:       DWARF32
  DW_CFA_advance_loc: 1
  DW_CFA_def_cfa_offset: +16
  DW_CFA_offset: RBP -16
  DW_CFA_advance_loc: 3
  DW_CFA_def_cfa_register: RBP
  DW_CFA_advance_loc1: 64
  DW_CFA_def_cfa: RSP +8
  DW_CFA_nop:
  DW_CFA_nop:

  0xf3a10: CFA=RSP+8: RIP=[CFA-8]
  0xf3a11: CFA=RSP+16: RBP=[CFA-16], RIP=[CFA-8]
  0xf3a14: CFA=RBP+16: RBP=[CFA-16], RIP=[CFA-8]
  0xf3a54: CFA=RSP+8: RBP=[CFA-16], RIP=[CFA-8]

0000336c 0000001c 00003370 FDE cie=00000000 pc=000f3a60...000f3aa5
  Format:       DWARF32
  DW_CFA_advance_loc: 1
  DW_CFA_def_cfa_offset: +16
  DW_CFA_offset: RBP -16
  DW_CFA_advance_loc: 3
  DW_CFA_def_cfa_register: RBP
  DW_CFA_advance_loc1: 64
  DW_CFA_def_cfa: RSP +8
  DW_CFA_nop:
  DW_CFA_nop:

  0xf3a60: CFA=RSP+8: RIP=[CFA-8]
  0xf3a61: CFA=RSP+16: RBP=[CFA-16], RIP=[CFA-8]
  0xf3a64: CFA=RBP+16: RBP=[CFA-16], RIP=[CFA-8]
  0xf3aa4: CFA=RSP+8: RBP=[CFA-16], RIP=[CFA-8]

0000338c 0000001c 00003390 FDE cie=00000000 pc=000f3ab0...000f3af5
  Format:       DWARF32
  DW_CFA_advance_loc: 1
  DW_CFA_def_cfa_offset: +16
  DW_CFA_offset: RBP -16
  DW_CFA_advance_loc: 3
  DW_CFA_def_cfa_register: RBP
  DW_CFA_advance_loc1: 64
  DW_CFA_def_cfa: RSP +8
  DW_CFA_nop:
  DW_CFA_nop:

  0xf3ab0: CFA=RSP+8: RIP=[CFA-8]
  0xf3ab1: CFA=RSP+16: RBP=[CFA-16], RIP=[CFA-8]
  0xf3ab4: CFA=RBP+16: RBP=[CFA-16], RIP=[CFA-8]
  0xf3af4: CFA=RSP+8: RBP=[CFA-16], RIP=[CFA-8]

000033ac 0000001c 000033b0 FDE cie=00000000 pc=000f3b00...000f3b1a
  Format:       DWARF32
  DW_CFA_advance_loc: 1
  DW_CFA_def_cfa_offset: +16
  DW_CFA_offset: RBP -16
  DW_CFA_advance_loc: 3
  DW_CFA_def_cfa_register: RBP
  DW_CFA_advance_loc: 21
  DW_CFA_def_cfa: RSP +8
  DW_CFA_nop:
  DW_CFA_nop:
  DW_CFA_nop:

  0xf3b00: CFA=RSP+8: RIP=[CFA-8]
  0xf3b01: CFA=RSP+16: RBP=[CFA-16], RIP=[CFA-8]
  0xf3b04: CFA=RBP+16: RBP=[CFA-16], RIP=[CFA-8]
  0xf3b19: CFA=RSP+8: RBP=[CFA-16], RIP=[CFA-8]

000033cc 0000001c 000033d0 FDE cie=00000000 pc=000f3b20...000f3b3a
  Format:       DWARF32
  DW_CFA_advance_loc: 1
  DW_CFA_def_cfa_offset: +16
  DW_CFA_offset: RBP -16
  DW_CFA_advance_loc: 3
  DW_CFA_def_cfa_register: RBP
  DW_CFA_advance_loc: 21
  DW_CFA_def_cfa: RSP +8
  DW_CFA_nop:
  DW_CFA_nop:
  DW_CFA_nop:

  0xf3b20: CFA=RSP+8: RIP=[CFA-8]
  0xf3b21: CFA=RSP+16: RBP=[CFA-16], RIP=[CFA-8]
  0xf3b24: CFA=RBP+16: RBP=[CFA-16], RIP=[CFA-8]
  0xf3b39: CFA=RSP+8: RBP=[CFA-16], RIP=[CFA-8]

000033ec 0000001c 000033f0 FDE cie=00000000 pc=000f3b40...000f3b5a
  Format:       DWARF32
  DW_CFA_advance_loc: 1
  DW_CFA_def_cfa_offset: +16
  DW_CFA_offset: RBP -16
  DW_CFA_advance_loc: 3
  DW_CFA_def_cfa_register: RBP
  DW_CFA_advance_loc: 21
  DW_CFA_def_cfa: RSP +8
  DW_CFA_nop:
  DW_CFA_nop:
  DW_CFA_nop:

  0xf3b40: CFA=RSP+8: RIP=[CFA-8]
  0xf3b41: CFA=RSP+16: RBP=[CFA-16], RIP=[CFA-8]
  0xf3b44: CFA=RBP+16: RBP=[CFA-16], RIP=[CFA-8]
  0xf3b59: CFA=RSP+8: RBP=[CFA-16], RIP=[CFA-8]

0000340c 0000001c 00003410 FDE cie=00000000 pc=000f3b60...000f3b75
  Format:       DWARF32
  DW_CFA_advance_loc: 1
  DW_CFA_def_cfa_offset: +16
  DW_CFA_offset: RBP -16
  DW_CFA_advance_loc: 3
  DW_CFA_def_cfa_register: RBP
  DW_CFA_advance_loc: 16
  DW_CFA_def_cfa: RSP +8
  DW_CFA_nop:
  DW_CFA_nop:
  DW_CFA_nop:

  0xf3b60: CFA=RSP+8: RIP=[CFA-8]
  0xf3b61: CFA=RSP+16: RBP=[CFA-16], RIP=[CFA-8]
  0xf3b64: CFA=RBP+16: RBP=[CFA-16], RIP=[CFA-8]
  0xf3b74: CFA=RSP+8: RBP=[CFA-16], RIP=[CFA-8]

0000342c 0000001c 00003430 FDE cie=00000000 pc=000f3b80...000f3ba6
  Format:       DWARF32
  DW_CFA_advance_loc: 1
  DW_CFA_def_cfa_offset: +16
  DW_CFA_offset: RBP -16
  DW_CFA_advance_loc: 3
  DW_CFA_def_cfa_register: RBP
  DW_CFA_advance_loc: 33
  DW_CFA_def_cfa: RSP +8
  DW_CFA_nop:
  DW_CFA_nop:
  DW_CFA_nop:

  0xf3b80: CFA=RSP+8: RIP=[CFA-8]
  0xf3b81: CFA=RSP+16: RBP=[CFA-16], RIP=[CFA-8]
  0xf3b84: CFA=RBP+16: RBP=[CFA-16], RIP=[CFA-8]
  0xf3ba5: CFA=RSP+8: RBP=[CFA-16], RIP=[CFA-8]

0000344c 0000001c 00003450 FDE cie=00000000 pc=000f3bb0...000f3bd6
  Format:       DWARF32
  DW_CFA_advance_loc: 1
  DW_CFA_def_cfa_offset: +16
  DW_CFA_offset: RBP -16
  DW_CFA_advance_loc: 3
  DW_CFA_def_cfa_register: RBP
  DW_CFA_advance_loc: 33
  DW_CFA_def_cfa: RSP +8
  DW_CFA_nop:
  DW_CFA_nop:
  DW_CFA_nop:

  0xf3bb0: CFA=RSP+8: RIP=[CFA-8]
  0xf3bb1: CFA=RSP+16: RBP=[CFA-16], RIP=[CFA-8]
  0xf3bb4: CFA=RBP+16: RBP=[CFA-16], RIP=[CFA-8]
  0xf3bd5: CFA=RSP+8: RBP=[CFA-16], RIP=[CFA-8]

0000346c 0000001c 00003470 FDE cie=00000000 pc=000f3be0...000f3c06
  Format:       DWARF32
  DW_CFA_advance_loc: 1
  DW_CFA_def_cfa_offset: +16
  DW_CFA_offset: RBP -16
  DW_CFA_advance_loc: 3
  DW_CFA_def_cfa_register: RBP
  DW_CFA_advance_loc: 33
  DW_CFA_def_cfa: RSP +8
  DW_CFA_nop:
  DW_CFA_nop:
  DW_CFA_nop:

  0xf3be0: CFA=RSP+8: RIP=[CFA-8]
  0xf3be1: CFA=RSP+16: RBP=[CFA-16], RIP=[CFA-8]
  0xf3be4: CFA=RBP+16: RBP=[CFA-16], RIP=[CFA-8]
  0xf3c05: CFA=RSP+8: RBP=[CFA-16], RIP=[CFA-8]

0000348c 0000001c 00003490 FDE cie=00000000 pc=000f3c10...000f3c31
  Format:       DWARF32
  DW_CFA_advance_loc: 1
  DW_CFA_def_cfa_offset: +16
  DW_CFA_offset: RBP -16
  DW_CFA_advance_loc: 3
  DW_CFA_def_cfa_register: RBP
  DW_CFA_advance_loc: 28
  DW_CFA_def_cfa: RSP +8
  DW_CFA_nop:
  DW_CFA_nop:
  DW_CFA_nop:

  0xf3c10: CFA=RSP+8: RIP=[CFA-8]
  0xf3c11: CFA=RSP+16: RBP=[CFA-16], RIP=[CFA-8]
  0xf3c14: CFA=RBP+16: RBP=[CFA-16], RIP=[CFA-8]
  0xf3c30: CFA=RSP+8: RBP=[CFA-16], RIP=[CFA-8]

000034ac 0000001c 000034b0 FDE cie=00000000 pc=000f3c40...000f3c61
  Format:       DWARF32
  DW_CFA_advance_loc: 1
  DW_CFA_def_cfa_offset: +16
  DW_CFA_offset: RBP -16
  DW_CFA_advance_loc: 3
  DW_CFA_def_cfa_register: RBP
  DW_CFA_advance_loc: 28
  DW_CFA_def_cfa: RSP +8
  DW_CFA_nop:
  DW_CFA_nop:
  DW_CFA_nop:

  0xf3c40: CFA=RSP+8: RIP=[CFA-8]
  0xf3c41: CFA=RSP+16: RBP=[CFA-16], RIP=[CFA-8]
  0xf3c44: CFA=RBP+16: RBP=[CFA-16], RIP=[CFA-8]
  0xf3c60: CFA=RSP+8: RBP=[CFA-16], RIP=[CFA-8]

000034cc 0000001c 000034d0 FDE cie=00000000 pc=000f3c70...000f3c91
  Format:       DWARF32
  DW_CFA_advance_loc: 1
  DW_CFA_def_cfa_offset: +16
  DW_CFA_offset: RBP -16
  DW_CFA_advance_loc: 3
  DW_CFA_def_cfa_register: RBP
  DW_CFA_advance_loc: 28
  DW_CFA_def_cfa: RSP +8
  DW_CFA_nop:
  DW_CFA_nop:
  DW_CFA_nop:

  0xf3c70: CFA=RSP+8: RIP=[CFA-8]
  0xf3c71: CFA=RSP+16: RBP=[CFA-16], RIP=[CFA-8]
  0xf3c74: CFA=RBP+16: RBP=[CFA-16], RIP=[CFA-8]
  0xf3c90: CFA=RSP+8: RBP=[CFA-16], RIP=[CFA-8]

000034ec 0000001c 000034f0 FDE cie=00000000 pc=000f3ca0...000f3cc1
  Format:       DWARF32
  DW_CFA_advance_loc: 1
  DW_CFA_def_cfa_offset: +16
  DW_CFA_offset: RBP -16
  DW_CFA_advance_loc: 3
  DW_CFA_def_cfa_register: RBP
  DW_CFA_advance_loc: 28
  DW_CFA_def_cfa: RSP +8
  DW_CFA_nop:
  DW_CFA_nop:
  DW_CFA_nop:

  0xf3ca0: CFA=RSP+8: RIP=[CFA-8]
  0xf3ca1: CFA=RSP+16: RBP=[CFA-16], RIP=[CFA-8]
  0xf3ca4: CFA=RBP+16: RBP=[CFA-16], RIP=[CFA-8]
  0xf3cc0: CFA=RSP+8: RBP=[CFA-16], RIP=[CFA-8]

0000350c 0000001c 00003510 FDE cie=00000000 pc=000f3cd0...000f3cf1
  Format:       DWARF32
  DW_CFA_advance_loc: 1
  DW_CFA_def_cfa_offset: +16
  DW_CFA_offset: RBP -16
  DW_CFA_advance_loc: 3
  DW_CFA_def_cfa_register: RBP
  DW_CFA_advance_loc: 28
  DW_CFA_def_cfa: RSP +8
  DW_CFA_nop:
  DW_CFA_nop:
  DW_CFA_nop:

  0xf3cd0: CFA=RSP+8: RIP=[CFA-8]
  0xf3cd1: CFA=RSP+16: RBP=[CFA-16], RIP=[CFA-8]
  0xf3cd4: CFA=RBP+16: RBP=[CFA-16], RIP=[CFA-8]
  0xf3cf0: CFA=RSP+8: RBP=[CFA-16], RIP=[CFA-8]

0000352c 0000001c 00003530 FDE cie=00000000 pc=000f3d00...000f3d21
  Format:       DWARF32
  DW_CFA_advance_loc: 1
  DW_CFA_def_cfa_offset: +16
  DW_CFA_offset: RBP -16
  DW_CFA_advance_loc: 3
  DW_CFA_def_cfa_register: RBP
  DW_CFA_advance_loc: 28
  DW_CFA_def_cfa: RSP +8
  DW_CFA_nop:
  DW_CFA_nop:
  DW_CFA_nop:

  0xf3d00: CFA=RSP+8: RIP=[CFA-8]
  0xf3d01: CFA=RSP+16: RBP=[CFA-16], RIP=[CFA-8]
  0xf3d04: CFA=RBP+16: RBP=[CFA-16], RIP=[CFA-8]
  0xf3d20: CFA=RSP+8: RBP=[CFA-16], RIP=[CFA-8]

0000354c 0000001c 00003550 FDE cie=00000000 pc=000f3d30...000f3d51
  Format:       DWARF32
  DW_CFA_advance_loc: 1
  DW_CFA_def_cfa_offset: +16
  DW_CFA_offset: RBP -16
  DW_CFA_advance_loc: 3
  DW_CFA_def_cfa_register: RBP
  DW_CFA_advance_loc: 28
  DW_CFA_def_cfa: RSP +8
  DW_CFA_nop:
  DW_CFA_nop:
  DW_CFA_nop:

  0xf3d30: CFA=RSP+8: RIP=[CFA-8]
  0xf3d31: CFA=RSP+16: RBP=[CFA-16], RIP=[CFA-8]
  0xf3d34: CFA=RBP+16: RBP=[CFA-16], RIP=[CFA-8]
  0xf3d50: CFA=RSP+8: RBP=[CFA-16], RIP=[CFA-8]

0000356c 0000001c 00003570 FDE cie=00000000 pc=000f3d60...000f3d81
  Format:       DWARF32
  DW_CFA_advance_loc: 1
  DW_CFA_def_cfa_offset: +16
  DW_CFA_offset: RBP -16
  DW_CFA_advance_loc: 3
  DW_CFA_def_cfa_register: RBP
  DW_CFA_advance_loc: 28
  DW_CFA_def_cfa: RSP +8
  DW_CFA_nop:
  DW_CFA_nop:
  DW_CFA_nop:

  0xf3d60: CFA=RSP+8: RIP=[CFA-8]
  0xf3d61: CFA=RSP+16: RBP=[CFA-16], RIP=[CFA-8]
  0xf3d64: CFA=RBP+16: RBP=[CFA-16], RIP=[CFA-8]
  0xf3d80: CFA=RSP+8: RBP=[CFA-16], RIP=[CFA-8]

0000358c 0000001c 00003590 FDE cie=00000000 pc=000f3d90...000f3db1
  Format:       DWARF32
  DW_CFA_advance_loc: 1
  DW_CFA_def_cfa_offset: +16
  DW_CFA_offset: RBP -16
  DW_CFA_advance_loc: 3
  DW_CFA_def_cfa_register: RBP
  DW_CFA_advance_loc: 28
  DW_CFA_def_cfa: RSP +8
  DW_CFA_nop:
  DW_CFA_nop:
  DW_CFA_nop:

  0xf3d90: CFA=RSP+8: RIP=[CFA-8]
  0xf3d91: CFA=RSP+16: RBP=[CFA-16], RIP=[CFA-8]
  0xf3d94: CFA=RBP+16: RBP=[CFA-16], RIP=[CFA-8]
  0xf3db0: CFA=RSP+8: RBP=[CFA-16], RIP=[CFA-8]

000035ac 0000001c 000035b0 FDE cie=00000000 pc=000f3dc0...000f3e00
  Format:       DWARF32
  DW_CFA_advance_loc: 1
  DW_CFA_def_cfa_offset: +16
  DW_CFA_offset: RBP -16
  DW_CFA_advance_loc: 3
  DW_CFA_def_cfa_register: RBP
  DW_CFA_advance_loc: 59
  DW_CFA_def_cfa: RSP +8
  DW_CFA_nop:
  DW_CFA_nop:
  DW_CFA_nop:

  0xf3dc0: CFA=RSP+8: RIP=[CFA-8]
  0xf3dc1: CFA=RSP+16: RBP=[CFA-16], RIP=[CFA-8]
  0xf3dc4: CFA=RBP+16: RBP=[CFA-16], RIP=[CFA-8]
  0xf3dff: CFA=RSP+8: RBP=[CFA-16], RIP=[CFA-8]

000035cc 0000001c 000035d0 FDE cie=00000000 pc=000f3e00...000f3e1f
  Format:       DWARF32
  DW_CFA_advance_loc: 1
  DW_CFA_def_cfa_offset: +16
  DW_CFA_offset: RBP -16
  DW_CFA_advance_loc: 3
  DW_CFA_def_cfa_register: RBP
  DW_CFA_advance_loc: 26
  DW_CFA_def_cfa: RSP +8
  DW_CFA_nop:
  DW_CFA_nop:
  DW_CFA_nop:

  0xf3e00: CFA=RSP+8: RIP=[CFA-8]
  0xf3e01: CFA=RSP+16: RBP=[CFA-16], RIP=[CFA-8]
  0xf3e04: CFA=RBP+16: RBP=[CFA-16], RIP=[CFA-8]
  0xf3e1e: CFA=RSP+8: RBP=[CFA-16], RIP=[CFA-8]

000035ec 0000001c 000035f0 FDE cie=00000000 pc=000f3e20...000f3e3f
  Format:       DWARF32
  DW_CFA_advance_loc: 1
  DW_CFA_def_cfa_offset: +16
  DW_CFA_offset: RBP -16
  DW_CFA_advance_loc: 3
  DW_CFA_def_cfa_register: RBP
  DW_CFA_advance_loc: 26
  DW_CFA_def_cfa: RSP +8
  DW_CFA_nop:
  DW_CFA_nop:
  DW_CFA_nop:

  0xf3e20: CFA=RSP+8: RIP=[CFA-8]
  0xf3e21: CFA=RSP+16: RBP=[CFA-16], RIP=[CFA-8]
  0xf3e24: CFA=RBP+16: RBP=[CFA-16], RIP=[CFA-8]
  0xf3e3e: CFA=RSP+8: RBP=[CFA-16], RIP=[CFA-8]

0000360c 0000001c 00003610 FDE cie=00000000 pc=000f3e40...000f3e5f
  Format:       DWARF32
  DW_CFA_advance_loc: 1
  DW_CFA_def_cfa_offset: +16
  DW_CFA_offset: RBP -16
  DW_CFA_advance_loc: 3
  DW_CFA_def_cfa_register: RBP
  DW_CFA_advance_loc: 26
  DW_CFA_def_cfa: RSP +8
  DW_CFA_nop:
  DW_CFA_nop:
  DW_CFA_nop:

  0xf3e40: CFA=RSP+8: RIP=[CFA-8]
  0xf3e41: CFA=RSP+16: RBP=[CFA-16], RIP=[CFA-8]
  0xf3e44: CFA=RBP+16: RBP=[CFA-16], RIP=[CFA-8]
  0xf3e5e: CFA=RSP+8: RBP=[CFA-16], RIP=[CFA-8]

0000362c 0000001c 00003630 FDE cie=00000000 pc=000f3e60...000f3e97
  Format:       DWARF32
  DW_CFA_advance_loc: 1
  DW_CFA_def_cfa_offset: +16
  DW_CFA_offset: RBP -16
  DW_CFA_advance_loc: 3
  DW_CFA_def_cfa_register: RBP
  DW_CFA_advance_loc: 50
  DW_CFA_def_cfa: RSP +8
  DW_CFA_nop:
  DW_CFA_nop:
  DW_CFA_nop:

  0xf3e60: CFA=RSP+8: RIP=[CFA-8]
  0xf3e61: CFA=RSP+16: RBP=[CFA-16], RIP=[CFA-8]
  0xf3e64: CFA=RBP+16: RBP=[CFA-16], RIP=[CFA-8]
  0xf3e96: CFA=RSP+8: RBP=[CFA-16], RIP=[CFA-8]

0000364c 0000001c 00003650 FDE cie=00000000 pc=000f3ea0...000f3ed7
  Format:       DWARF32
  DW_CFA_advance_loc: 1
  DW_CFA_def_cfa_offset: +16
  DW_CFA_offset: RBP -16
  DW_CFA_advance_loc: 3
  DW_CFA_def_cfa_register: RBP
  DW_CFA_advance_loc: 50
  DW_CFA_def_cfa: RSP +8
  DW_CFA_nop:
  DW_CFA_nop:
  DW_CFA_nop:

  0xf3ea0: CFA=RSP+8: RIP=[CFA-8]
  0xf3ea1: CFA=RSP+16: RBP=[CFA-16], RIP=[CFA-8]
  0xf3ea4: CFA=RBP+16: RBP=[CFA-16], RIP=[CFA-8]
  0xf3ed6: CFA=RSP+8: RBP=[CFA-16], RIP=[CFA-8]

0000366c 0000001c 00003670 FDE cie=00000000 pc=000f3ee0...000f3f17
  Format:       DWARF32
  DW_CFA_advance_loc: 1
  DW_CFA_def_cfa_offset: +16
  DW_CFA_offset: RBP -16
  DW_CFA_advance_loc: 3
  DW_CFA_def_cfa_register: RBP
  DW_CFA_advance_loc: 50
  DW_CFA_def_cfa: RSP +8
  DW_CFA_nop:
  DW_CFA_nop:
  DW_CFA_nop:

  0xf3ee0: CFA=RSP+8: RIP=[CFA-8]
  0xf3ee1: CFA=RSP+16: RBP=[CFA-16], RIP=[CFA-8]
  0xf3ee4: CFA=RBP+16: RBP=[CFA-16], RIP=[CFA-8]
  0xf3f16: CFA=RSP+8: RBP=[CFA-16], RIP=[CFA-8]

0000368c 0000001c 00003690 FDE cie=00000000 pc=000f3f20...000f3f57
  Format:       DWARF32
  DW_CFA_advance_loc: 1
  DW_CFA_def_cfa_offset: +16
  DW_CFA_offset: RBP -16
  DW_CFA_advance_loc: 3
  DW_CFA_def_cfa_register: RBP
  DW_CFA_advance_loc: 50
  DW_CFA_def_cfa: RSP +8
  DW_CFA_nop:
  DW_CFA_nop:
  DW_CFA_nop:

  0xf3f20: CFA=RSP+8: RIP=[CFA-8]
  0xf3f21: CFA=RSP+16: RBP=[CFA-16], RIP=[CFA-8]
  0xf3f24: CFA=RBP+16: RBP=[CFA-16], RIP=[CFA-8]
  0xf3f56: CFA=RSP+8: RBP=[CFA-16], RIP=[CFA-8]

000036ac 0000001c 000036b0 FDE cie=00000000 pc=000f3f60...000f3f97
  Format:       DWARF32
  DW_CFA_advance_loc: 1
  DW_CFA_def_cfa_offset: +16
  DW_CFA_offset: RBP -16
  DW_CFA_advance_loc: 3
  DW_CFA_def_cfa_register: RBP
  DW_CFA_advance_loc: 50
  DW_CFA_def_cfa: RSP +8
  DW_CFA_nop:
  DW_CFA_nop:
  DW_CFA_nop:

  0xf3f60: CFA=RSP+8: RIP=[CFA-8]
  0xf3f61: CFA=RSP+16: RBP=[CFA-16], RIP=[CFA-8]
  0xf3f64: CFA=RBP+16: RBP=[CFA-16], RIP=[CFA-8]
  0xf3f96: CFA=RSP+8: RBP=[CFA-16], RIP=[CFA-8]

000036cc 0000001c 000036d0 FDE cie=00000000 pc=000f3fa0...000f3fc2
  Format:       DWARF32
  DW_CFA_advance_loc: 1
  DW_CFA_def_cfa_offset: +16
  DW_CFA_offset: RBP -16
  DW_CFA_advance_loc: 3
  DW_CFA_def_cfa_register: RBP
  DW_CFA_advance_loc: 29
  DW_CFA_def_cfa: RSP +8
  DW_CFA_nop:
  DW_CFA_nop:
  DW_CFA_nop:

  0xf3fa0: CFA=RSP+8: RIP=[CFA-8]
  0xf3fa1: CFA=RSP+16: RBP=[CFA-16], RIP=[CFA-8]
  0xf3fa4: CFA=RBP+16: RBP=[CFA-16], RIP=[CFA-8]
  0xf3fc1: CFA=RSP+8: RBP=[CFA-16], RIP=[CFA-8]

000036ec 0000001c 000036f0 FDE cie=00000000 pc=000f3fd0...000f4007
  Format:       DWARF32
  DW_CFA_advance_loc: 1
  DW_CFA_def_cfa_offset: +16
  DW_CFA_offset: RBP -16
  DW_CFA_advance_loc: 3
  DW_CFA_def_cfa_register: RBP
  DW_CFA_advance_loc: 50
  DW_CFA_def_cfa: RSP +8
  DW_CFA_nop:
  DW_CFA_nop:
  DW_CFA_nop:

  0xf3fd0: CFA=RSP+8: RIP=[CFA-8]
  0xf3fd1: CFA=RSP+16: RBP=[CFA-16], RIP=[CFA-8]
  0xf3fd4: CFA=RBP+16: RBP=[CFA-16], RIP=[CFA-8]
  0xf4006: CFA=RSP+8: RBP=[CFA-16], RIP=[CFA-8]

0000370c 0000001c 00003710 FDE cie=00000000 pc=000f4010...000f404b
  Format:       DWARF32
  DW_CFA_advance_loc: 1
  DW_CFA_def_cfa_offset: +16
  DW_CFA_offset: RBP -16
  DW_CFA_advance_loc: 3
  DW_CFA_def_cfa_register: RBP
  DW_CFA_advance_loc: 51
  DW_CFA_def_cfa: RSP +8
  DW_CFA_nop:
  DW_CFA_nop:
  DW_CFA_nop:

  0xf4010: CFA=RSP+8: RIP=[CFA-8]
  0xf4011: CFA=RSP+16: RBP=[CFA-16], RIP=[CFA-8]
  0xf4014: CFA=RBP+16: RBP=[CFA-16], RIP=[CFA-8]
  0xf4047: CFA=RSP+8: RBP=[CFA-16], RIP=[CFA-8]

0000372c 0000001c 00003730 FDE cie=00000000 pc=000f4050...000f407f
  Format:       DWARF32
  DW_CFA_advance_loc: 1
  DW_CFA_def_cfa_offset: +16
  DW_CFA_offset: RBP -16
  DW_CFA_advance_loc: 3
  DW_CFA_def_cfa_register: RBP
  DW_CFA_advance_loc: 42
  DW_CFA_def_cfa: RSP +8
  DW_CFA_nop:
  DW_CFA_nop:
  DW_CFA_nop:

  0xf4050: CFA=RSP+8: RIP=[CFA-8]
  0xf4051: CFA=RSP+16: RBP=[CFA-16], RIP=[CFA-8]
  0xf4054: CFA=RBP+16: RBP=[CFA-16], RIP=[CFA-8]
  0xf407e: CFA=RSP+8: RBP=[CFA-16], RIP=[CFA-8]

0000374c 0000001c 00003750 FDE cie=00000000 pc=000f4080...000f4097
  Format:       DWARF32
  DW_CFA_advance_loc: 1
  DW_CFA_def_cfa_offset: +16
  DW_CFA_offset: RBP -16
  DW_CFA_advance_loc: 3
  DW_CFA_def_cfa_register: RBP
  DW_CFA_advance_loc: 18
  DW_CFA_def_cfa: RSP +8
  DW_CFA_nop:
  DW_CFA_nop:
  DW_CFA_nop:

  0xf4080: CFA=RSP+8: RIP=[CFA-8]
  0xf4081: CFA=RSP+16: RBP=[CFA-16], RIP=[CFA-8]
  0xf4084: CFA=RBP+16: RBP=[CFA-16], RIP=[CFA-8]
  0xf4096: CFA=RSP+8: RBP=[CFA-16], RIP=[CFA-8]

0000376c 0000001c 00003770 FDE cie=00000000 pc=000f40a0...000f40b7
  Format:       DWARF32
  DW_CFA_advance_loc: 1
  DW_CFA_def_cfa_offset: +16
  DW_CFA_offset: RBP -16
  DW_CFA_advance_loc: 3
  DW_CFA_def_cfa_register: RBP
  DW_CFA_advance_loc: 18
  DW_CFA_def_cfa: RSP +8
  DW_CFA_nop:
  DW_CFA_nop:
  DW_CFA_nop:

  0xf40a0: CFA=RSP+8: RIP=[CFA-8]
  0xf40a1: CFA=RSP+16: RBP=[CFA-16], RIP=[CFA-8]
  0xf40a4: CFA=RBP+16: RBP=[CFA-16], RIP=[CFA-8]
  0xf40b6: CFA=RSP+8: RBP=[CFA-16], RIP=[CFA-8]

0000378c 0000001c 00003790 FDE cie=00000000 pc=000f40c0...000f40d7
  Format:       DWARF32
  DW_CFA_advance_loc: 1
  DW_CFA_def_cfa_offset: +16
  DW_CFA_offset: RBP -16
  DW_CFA_advance_loc: 3
  DW_CFA_def_cfa_register: RBP
  DW_CFA_advance_loc: 18
  DW_CFA_def_cfa: RSP +8
  DW_CFA_nop:
  DW_CFA_nop:
  DW_CFA_nop:

  0xf40c0: CFA=RSP+8: RIP=[CFA-8]
  0xf40c1: CFA=RSP+16: RBP=[CFA-16], RIP=[CFA-8]
  0xf40c4: CFA=RBP+16: RBP=[CFA-16], RIP=[CFA-8]
  0xf40d6: CFA=RSP+8: RBP=[CFA-16], RIP=[CFA-8]

000037ac 0000001c 000037b0 FDE cie=00000000 pc=000f40e0...000f410b
  Format:       DWARF32
  DW_CFA_advance_loc: 1
  DW_CFA_def_cfa_offset: +16
  DW_CFA_offset: RBP -16
  DW_CFA_advance_loc: 3
  DW_CFA_def_cfa_register: RBP
  DW_CFA_advance_loc: 38
  DW_CFA_def_cfa: RSP +8
  DW_CFA_nop:
  DW_CFA_nop:
  DW_CFA_nop:

  0xf40e0: CFA=RSP+8: RIP=[CFA-8]
  0xf40e1: CFA=RSP+16: RBP=[CFA-16], RIP=[CFA-8]
  0xf40e4: CFA=RBP+16: RBP=[CFA-16], RIP=[CFA-8]
  0xf410a: CFA=RSP+8: RBP=[CFA-16], RIP=[CFA-8]

000037cc 0000001c 000037d0 FDE cie=00000000 pc=000f4110...000f4137
  Format:       DWARF32
  DW_CFA_advance_loc: 1
  DW_CFA_def_cfa_offset: +16
  DW_CFA_offset: RBP -16
  DW_CFA_advance_loc: 3
  DW_CFA_def_cfa_register: RBP
  DW_CFA_advance_loc: 34
  DW_CFA_def_cfa: RSP +8
  DW_CFA_nop:
  DW_CFA_nop:
  DW_CFA_nop:

  0xf4110: CFA=RSP+8: RIP=[CFA-8]
  0xf4111: CFA=RSP+16: RBP=[CFA-16], RIP=[CFA-8]
  0xf4114: CFA=RBP+16: RBP=[CFA-16], RIP=[CFA-8]
  0xf4136: CFA=RSP+8: RBP=[CFA-16], RIP=[CFA-8]

000037ec 00000024 000037f0 FDE cie=00000000 pc=000f4140...000f42e8
  Format:       DWARF32
  DW_CFA_advance_loc: 1
  DW_CFA_def_cfa_offset: +16
  DW_CFA_offset: RBP -16
  DW_CFA_advance_loc: 3
  DW_CFA_def_cfa_register: RBP
  DW_CFA_advance_loc: 12
  DW_CFA_offset: RBX -40
  DW_CFA_offset: R14 -32
  DW_CFA_offset: R15 -24
  DW_CFA_advance_loc2: 407
  DW_CFA_def_cfa: RSP +8
  DW_CFA_nop:
  DW_CFA_nop:

  0xf4140: CFA=RSP+8: RIP=[CFA-8]
  0xf4141: CFA=RSP+16: RBP=[CFA-16], RIP=[CFA-8]
  0xf4144: CFA=RBP+16: RBP=[CFA-16], RIP=[CFA-8]
  0xf4150: CFA=RBP+16: RBX=[CFA-40], RBP=[CFA-16], R14=[CFA-32], R15=[CFA-24], RIP=[CFA-8]
  0xf42e7: CFA=RSP+8: RBX=[CFA-40], RBP=[CFA-16], R14=[CFA-32], R15=[CFA-24], RIP=[CFA-8]

00003814 0000001c 00003818 FDE cie=00000000 pc=000f42f0...000f431b
  Format:       DWARF32
  DW_CFA_advance_loc: 1
  DW_CFA_def_cfa_offset: +16
  DW_CFA_offset: RBP -16
  DW_CFA_advance_loc: 3
  DW_CFA_def_cfa_register: RBP
  DW_CFA_advance_loc: 38
  DW_CFA_def_cfa: RSP +8
  DW_CFA_nop:
  DW_CFA_nop:
  DW_CFA_nop:

  0xf42f0: CFA=RSP+8: RIP=[CFA-8]
  0xf42f1: CFA=RSP+16: RBP=[CFA-16], RIP=[CFA-8]
  0xf42f4: CFA=RBP+16: RBP=[CFA-16], RIP=[CFA-8]
  0xf431a: CFA=RSP+8: RBP=[CFA-16], RIP=[CFA-8]

00003834 0000001c 00003838 FDE cie=00000000 pc=000f4320...000f4378
  Format:       DWARF32
  DW_CFA_advance_loc: 1
  DW_CFA_def_cfa_offset: +16
  DW_CFA_offset: RBP -16
  DW_CFA_advance_loc: 3
  DW_CFA_def_cfa_register: RBP
  DW_CFA_advance_loc1: 83
  DW_CFA_def_cfa: RSP +8
  DW_CFA_nop:
  DW_CFA_nop:

  0xf4320: CFA=RSP+8: RIP=[CFA-8]
  0xf4321: CFA=RSP+16: RBP=[CFA-16], RIP=[CFA-8]
  0xf4324: CFA=RBP+16: RBP=[CFA-16], RIP=[CFA-8]
  0xf4377: CFA=RSP+8: RBP=[CFA-16], RIP=[CFA-8]

00003854 0000001c 00003858 FDE cie=00000000 pc=000f4380...000f43a7
  Format:       DWARF32
  DW_CFA_advance_loc: 1
  DW_CFA_def_cfa_offset: +16
  DW_CFA_offset: RBP -16
  DW_CFA_advance_loc: 3
  DW_CFA_def_cfa_register: RBP
  DW_CFA_advance_loc: 34
  DW_CFA_def_cfa: RSP +8
  DW_CFA_nop:
  DW_CFA_nop:
  DW_CFA_nop:

  0xf4380: CFA=RSP+8: RIP=[CFA-8]
  0xf4381: CFA=RSP+16: RBP=[CFA-16], RIP=[CFA-8]
  0xf4384: CFA=RBP+16: RBP=[CFA-16], RIP=[CFA-8]
  0xf43a6: CFA=RSP+8: RBP=[CFA-16], RIP=[CFA-8]

00003874 0000001c 00003878 FDE cie=00000000 pc=000f43b0...000f44ef
  Format:       DWARF32
  DW_CFA_advance_loc: 1
  DW_CFA_def_cfa_offset: +16
  DW_CFA_offset: RBP -16
  DW_CFA_advance_loc: 3
  DW_CFA_def_cfa_register: RBP
  DW_CFA_advance_loc2: 314
  DW_CFA_def_cfa: RSP +8
  DW_CFA_nop:

  0xf43b0: CFA=RSP+8: RIP=[CFA-8]
  0xf43b1: CFA=RSP+16: RBP=[CFA-16], RIP=[CFA-8]
  0xf43b4: CFA=RBP+16: RBP=[CFA-16], RIP=[CFA-8]
  0xf44ee: CFA=RSP+8: RBP=[CFA-16], RIP=[CFA-8]

00003894 0000001c 00003898 FDE cie=00000000 pc=000f44f0...000f4513
  Format:       DWARF32
  DW_CFA_advance_loc: 1
  DW_CFA_def_cfa_offset: +16
  DW_CFA_offset: RBP -16
  DW_CFA_advance_loc: 3
  DW_CFA_def_cfa_register: RBP
  DW_CFA_advance_loc: 30
  DW_CFA_def_cfa: RSP +8
  DW_CFA_nop:
  DW_CFA_nop:
  DW_CFA_nop:

  0xf44f0: CFA=RSP+8: RIP=[CFA-8]
  0xf44f1: CFA=RSP+16: RBP=[CFA-16], RIP=[CFA-8]
  0xf44f4: CFA=RBP+16: RBP=[CFA-16], RIP=[CFA-8]
  0xf4512: CFA=RSP+8: RBP=[CFA-16], RIP=[CFA-8]

000038b4 00000024 000038b8 FDE cie=00000000 pc=000f4520...000f45d5
  Format:       DWARF32
  DW_CFA_advance_loc: 1
  DW_CFA_def_cfa_offset: +16
  DW_CFA_offset: RBP -16
  DW_CFA_advance_loc: 3
  DW_CFA_def_cfa_register: RBP
  DW_CFA_advance_loc: 9
  DW_CFA_offset: RBX -40
  DW_CFA_offset: R14 -32
  DW_CFA_offset: R15 -24
  DW_CFA_advance_loc1: 167
  DW_CFA_def_cfa: RSP +8
  DW_CFA_nop:
  DW_CFA_nop:
  DW_CFA_nop:

  0xf4520: CFA=RSP+8: RIP=[CFA-8]
  0xf4521: CFA=RSP+16: RBP=[CFA-16], RIP=[CFA-8]
  0xf4524: CFA=RBP+16: RBP=[CFA-16], RIP=[CFA-8]
  0xf452d: CFA=RBP+16: RBX=[CFA-40], RBP=[CFA-16], R14=[CFA-32], R15=[CFA-24], RIP=[CFA-8]
  0xf45d4: CFA=RSP+8: RBX=[CFA-40], RBP=[CFA-16], R14=[CFA-32], R15=[CFA-24], RIP=[CFA-8]

000038dc 0000001c 000038e0 FDE cie=00000000 pc=000f45e0...000f4645
  Format:       DWARF32
  DW_CFA_advance_loc: 1
  DW_CFA_def_cfa_offset: +16
  DW_CFA_offset: RBP -16
  DW_CFA_advance_loc: 3
  DW_CFA_def_cfa_register: RBP
  DW_CFA_advance_loc1: 96
  DW_CFA_def_cfa: RSP +8
  DW_CFA_nop:
  DW_CFA_nop:

  0xf45e0: CFA=RSP+8: RIP=[CFA-8]
  0xf45e1: CFA=RSP+16: RBP=[CFA-16], RIP=[CFA-8]
  0xf45e4: CFA=RBP+16: RBP=[CFA-16], RIP=[CFA-8]
  0xf4644: CFA=RSP+8: RBP=[CFA-16], RIP=[CFA-8]

000038fc 0000001c 00003900 FDE cie=00000000 pc=000f4650...000f46b5
  Format:       DWARF32
  DW_CFA_advance_loc: 1
  DW_CFA_def_cfa_offset: +16
  DW_CFA_offset: RBP -16
  DW_CFA_advance_loc: 3
  DW_CFA_def_cfa_register: RBP
  DW_CFA_advance_loc1: 96
  DW_CFA_def_cfa: RSP +8
  DW_CFA_nop:
  DW_CFA_nop:

  0xf4650: CFA=RSP+8: RIP=[CFA-8]
  0xf4651: CFA=RSP+16: RBP=[CFA-16], RIP=[CFA-8]
  0xf4654: CFA=RBP+16: RBP=[CFA-16], RIP=[CFA-8]
  0xf46b4: CFA=RSP+8: RBP=[CFA-16], RIP=[CFA-8]

0000391c 0000001c 00003920 FDE cie=00000000 pc=000f46c0...000f4729
  Format:       DWARF32
  DW_CFA_advance_loc: 1
  DW_CFA_def_cfa_offset: +16
  DW_CFA_offset: RBP -16
  DW_CFA_advance_loc: 3
  DW_CFA_def_cfa_register: RBP
  DW_CFA_advance_loc1: 100
  DW_CFA_def_cfa: RSP +8
  DW_CFA_nop:
  DW_CFA_nop:

  0xf46c0: CFA=RSP+8: RIP=[CFA-8]
  0xf46c1: CFA=RSP+16: RBP=[CFA-16], RIP=[CFA-8]
  0xf46c4: CFA=RBP+16: RBP=[CFA-16], RIP=[CFA-8]
  0xf4728: CFA=RSP+8: RBP=[CFA-16], RIP=[CFA-8]

0000393c 0000001c 00003940 FDE cie=00000000 pc=000f4730...000f4757
  Format:       DWARF32
  DW_CFA_advance_loc: 1
  DW_CFA_def_cfa_offset: +16
  DW_CFA_offset: RBP -16
  DW_CFA_advance_loc: 3
  DW_CFA_def_cfa_register: RBP
  DW_CFA_advance_loc: 34
  DW_CFA_def_cfa: RSP +8
  DW_CFA_nop:
  DW_CFA_nop:
  DW_CFA_nop:

  0xf4730: CFA=RSP+8: RIP=[CFA-8]
  0xf4731: CFA=RSP+16: RBP=[CFA-16], RIP=[CFA-8]
  0xf4734: CFA=RBP+16: RBP=[CFA-16], RIP=[CFA-8]
  0xf4756: CFA=RSP+8: RBP=[CFA-16], RIP=[CFA-8]

0000395c 0000001c 00003960 FDE cie=00000000 pc=000f4760...000f47b8
  Format:       DWARF32
  DW_CFA_advance_loc: 1
  DW_CFA_def_cfa_offset: +16
  DW_CFA_offset: RBP -16
  DW_CFA_advance_loc: 3
  DW_CFA_def_cfa_register: RBP
  DW_CFA_advance_loc1: 83
  DW_CFA_def_cfa: RSP +8
  DW_CFA_nop:
  DW_CFA_nop:

  0xf4760: CFA=RSP+8: RIP=[CFA-8]
  0xf4761: CFA=RSP+16: RBP=[CFA-16], RIP=[CFA-8]
  0xf4764: CFA=RBP+16: RBP=[CFA-16], RIP=[CFA-8]
  0xf47b7: CFA=RSP+8: RBP=[CFA-16], RIP=[CFA-8]

0000397c 0000001c 00003980 FDE cie=00000000 pc=000f47c0...000f47e1
  Format:       DWARF32
  DW_CFA_advance_loc: 1
  DW_CFA_def_cfa_offset: +16
  DW_CFA_offset: RBP -16
  DW_CFA_advance_loc: 3
  DW_CFA_def_cfa_register: RBP
  DW_CFA_advance_loc: 28
  DW_CFA_def_cfa: RSP +8
  DW_CFA_nop:
  DW_CFA_nop:
  DW_CFA_nop:

  0xf47c0: CFA=RSP+8: RIP=[CFA-8]
  0xf47c1: CFA=RSP+16: RBP=[CFA-16], RIP=[CFA-8]
  0xf47c4: CFA=RBP+16: RBP=[CFA-16], RIP=[CFA-8]
  0xf47e0: CFA=RSP+8: RBP=[CFA-16], RIP=[CFA-8]

0000399c 0000001c 000039a0 FDE cie=00000000 pc=000f47f0...000f4817
  Format:       DWARF32
  DW_CFA_advance_loc: 1
  DW_CFA_def_cfa_offset: +16
  DW_CFA_offset: RBP -16
  DW_CFA_advance_loc: 3
  DW_CFA_def_cfa_register: RBP
  DW_CFA_advance_loc: 34
  DW_CFA_def_cfa: RSP +8
  DW_CFA_nop:
  DW_CFA_nop:
  DW_CFA_nop:

  0xf47f0: CFA=RSP+8: RIP=[CFA-8]
  0xf47f1: CFA=RSP+16: RBP=[CFA-16], RIP=[CFA-8]
  0xf47f4: CFA=RBP+16: RBP=[CFA-16], RIP=[CFA-8]
  0xf4816: CFA=RSP+8: RBP=[CFA-16], RIP=[CFA-8]

000039bc 00000028 000039c0 FDE cie=00000000 pc=000f4820...000f4a2a
  Format:       DWARF32
  DW_CFA_advance_loc: 1
  DW_CFA_def_cfa_offset: +16
  DW_CFA_offset: RBP -16
  DW_CFA_advance_loc: 3
  DW_CFA_def_cfa_register: RBP
  DW_CFA_advance_loc: 16
  DW_CFA_offset: RBX -56
  DW_CFA_offset: R12 -48
  DW_CFA_offset: R13 -40
  DW_CFA_offset: R14 -32
  DW_CFA_offset: R15 -24
  DW_CFA_advance_loc2: 501
  DW_CFA_def_cfa: RSP +8
  DW_CFA_nop:
  DW_CFA_nop:

  0xf4820: CFA=RSP+8: RIP=[CFA-8]
  0xf4821: CFA=RSP+16: RBP=[CFA-16], RIP=[CFA-8]
  0xf4824: CFA=RBP+16: RBP=[CFA-16], RIP=[CFA-8]
  0xf4834: CFA=RBP+16: RBX=[CFA-56], RBP=[CFA-16], R12=[CFA-48], R13=[CFA-40], R14=[CFA-32], R15=[CFA-24], RIP=[CFA-8]
  0xf4a29: CFA=RSP+8: RBX=[CFA-56], RBP=[CFA-16], R12=[CFA-48], R13=[CFA-40], R14=[CFA-32], R15=[CFA-24], RIP=[CFA-8]

000039e8 0000001c 000039ec FDE cie=00000000 pc=000f4a30...000f4a57
  Format:       DWARF32
  DW_CFA_advance_loc: 1
  DW_CFA_def_cfa_offset: +16
  DW_CFA_offset: RBP -16
  DW_CFA_advance_loc: 3
  DW_CFA_def_cfa_register: RBP
  DW_CFA_advance_loc: 34
  DW_CFA_def_cfa: RSP +8
  DW_CFA_nop:
  DW_CFA_nop:
  DW_CFA_nop:

  0xf4a30: CFA=RSP+8: RIP=[CFA-8]
  0xf4a31: CFA=RSP+16: RBP=[CFA-16], RIP=[CFA-8]
  0xf4a34: CFA=RBP+16: RBP=[CFA-16], RIP=[CFA-8]
  0xf4a56: CFA=RSP+8: RBP=[CFA-16], RIP=[CFA-8]

00003a08 00000024 00003a0c FDE cie=00000000 pc=000f4a60...000f4c08
  Format:       DWARF32
  DW_CFA_advance_loc: 1
  DW_CFA_def_cfa_offset: +16
  DW_CFA_offset: RBP -16
  DW_CFA_advance_loc: 3
  DW_CFA_def_cfa_register: RBP
  DW_CFA_advance_loc: 12
  DW_CFA_offset: RBX -40
  DW_CFA_offset: R14 -32
  DW_CFA_offset: R15 -24
  DW_CFA_advance_loc2: 407
  DW_CFA_def_cfa: RSP +8
  DW_CFA_nop:
  DW_CFA_nop:

  0xf4a60: CFA=RSP+8: RIP=[CFA-8]
  0xf4a61: CFA=RSP+16: RBP=[CFA-16], RIP=[CFA-8]
  0xf4a64: CFA=RBP+16: RBP=[CFA-16], RIP=[CFA-8]
  0xf4a70: CFA=RBP+16: RBX=[CFA-40], RBP=[CFA-16], R14=[CFA-32], R15=[CFA-24], RIP=[CFA-8]
  0xf4c07: CFA=RSP+8: RBX=[CFA-40], RBP=[CFA-16], R14=[CFA-32], R15=[CFA-24], RIP=[CFA-8]

00003a30 0000001c 00003a34 FDE cie=00000000 pc=000f4c10...000f4c37
  Format:       DWARF32
  DW_CFA_advance_loc: 1
  DW_CFA_def_cfa_offset: +16
  DW_CFA_offset: RBP -16
  DW_CFA_advance_loc: 3
  DW_CFA_def_cfa_register: RBP
  DW_CFA_advance_loc: 34
  DW_CFA_def_cfa: RSP +8
  DW_CFA_nop:
  DW_CFA_nop:
  DW_CFA_nop:

  0xf4c10: CFA=RSP+8: RIP=[CFA-8]
  0xf4c11: CFA=RSP+16: RBP=[CFA-16], RIP=[CFA-8]
  0xf4c14: CFA=RBP+16: RBP=[CFA-16], RIP=[CFA-8]
  0xf4c36: CFA=RSP+8: RBP=[CFA-16], RIP=[CFA-8]

00003a50 00000020 00003a54 FDE cie=00000000 pc=000f4c40...000f4d7f
  Format:       DWARF32
  DW_CFA_advance_loc: 1
  DW_CFA_def_cfa_offset: +16
  DW_CFA_offset: RBP -16
  DW_CFA_advance_loc: 3
  DW_CFA_def_cfa_register: RBP
  DW_CFA_advance_loc2: 314
  DW_CFA_def_cfa: RSP +8
  DW_CFA_nop:
  DW_CFA_nop:
  DW_CFA_nop:
  DW_CFA_nop:
  DW_CFA_nop:

  0xf4c40: CFA=RSP+8: RIP=[CFA-8]
  0xf4c41: CFA=RSP+16: RBP=[CFA-16], RIP=[CFA-8]
  0xf4c44: CFA=RBP+16: RBP=[CFA-16], RIP=[CFA-8]
  0xf4d7e: CFA=RSP+8: RBP=[CFA-16], RIP=[CFA-8]

00003a74 0000001c 00003a78 FDE cie=00000000 pc=000f4d80...000f4e0a
  Format:       DWARF32
  DW_CFA_advance_loc: 1
  DW_CFA_def_cfa_offset: +16
  DW_CFA_offset: RBP -16
  DW_CFA_advance_loc: 3
  DW_CFA_def_cfa_register: RBP
  DW_CFA_advance_loc1: 133
  DW_CFA_def_cfa: RSP +8
  DW_CFA_nop:
  DW_CFA_nop:

  0xf4d80: CFA=RSP+8: RIP=[CFA-8]
  0xf4d81: CFA=RSP+16: RBP=[CFA-16], RIP=[CFA-8]
  0xf4d84: CFA=RBP+16: RBP=[CFA-16], RIP=[CFA-8]
  0xf4e09: CFA=RSP+8: RBP=[CFA-16], RIP=[CFA-8]

00003a94 0000001c 00003a98 FDE cie=00000000 pc=000f4e10...000f4e9a
  Format:       DWARF32
  DW_CFA_advance_loc: 1
  DW_CFA_def_cfa_offset: +16
  DW_CFA_offset: RBP -16
  DW_CFA_advance_loc: 3
  DW_CFA_def_cfa_register: RBP
  DW_CFA_advance_loc1: 133
  DW_CFA_def_cfa: RSP +8
  DW_CFA_nop:
  DW_CFA_nop:

  0xf4e10: CFA=RSP+8: RIP=[CFA-8]
  0xf4e11: CFA=RSP+16: RBP=[CFA-16], RIP=[CFA-8]
  0xf4e14: CFA=RBP+16: RBP=[CFA-16], RIP=[CFA-8]
  0xf4e99: CFA=RSP+8: RBP=[CFA-16], RIP=[CFA-8]

00003ab4 0000001c 00003ab8 FDE cie=00000000 pc=000f4ea0...000f4f2a
  Format:       DWARF32
  DW_CFA_advance_loc: 1
  DW_CFA_def_cfa_offset: +16
  DW_CFA_offset: RBP -16
  DW_CFA_advance_loc: 3
  DW_CFA_def_cfa_register: RBP
  DW_CFA_advance_loc1: 133
  DW_CFA_def_cfa: RSP +8
  DW_CFA_nop:
  DW_CFA_nop:

  0xf4ea0: CFA=RSP+8: RIP=[CFA-8]
  0xf4ea1: CFA=RSP+16: RBP=[CFA-16], RIP=[CFA-8]
  0xf4ea4: CFA=RBP+16: RBP=[CFA-16], RIP=[CFA-8]
  0xf4f29: CFA=RSP+8: RBP=[CFA-16], RIP=[CFA-8]

00003ad4 0000001c 00003ad8 FDE cie=00000000 pc=000f4f30...000f4fba
  Format:       DWARF32
  DW_CFA_advance_loc: 1
  DW_CFA_def_cfa_offset: +16
  DW_CFA_offset: RBP -16
  DW_CFA_advance_loc: 3
  DW_CFA_def_cfa_register: RBP
  DW_CFA_advance_loc1: 133
  DW_CFA_def_cfa: RSP +8
  DW_CFA_nop:
  DW_CFA_nop:

  0xf4f30: CFA=RSP+8: RIP=[CFA-8]
  0xf4f31: CFA=RSP+16: RBP=[CFA-16], RIP=[CFA-8]
  0xf4f34: CFA=RBP+16: RBP=[CFA-16], RIP=[CFA-8]
  0xf4fb9: CFA=RSP+8: RBP=[CFA-16], RIP=[CFA-8]

00003af4 0000001c 00003af8 FDE cie=00000000 pc=000f4fc0...000f504a
  Format:       DWARF32
  DW_CFA_advance_loc: 1
  DW_CFA_def_cfa_offset: +16
  DW_CFA_offset: RBP -16
  DW_CFA_advance_loc: 3
  DW_CFA_def_cfa_register: RBP
  DW_CFA_advance_loc1: 133
  DW_CFA_def_cfa: RSP +8
  DW_CFA_nop:
  DW_CFA_nop:

  0xf4fc0: CFA=RSP+8: RIP=[CFA-8]
  0xf4fc1: CFA=RSP+16: RBP=[CFA-16], RIP=[CFA-8]
  0xf4fc4: CFA=RBP+16: RBP=[CFA-16], RIP=[CFA-8]
  0xf5049: CFA=RSP+8: RBP=[CFA-16], RIP=[CFA-8]

00003b14 0000001c 00003b18 FDE cie=00000000 pc=000f5050...000f50da
  Format:       DWARF32
  DW_CFA_advance_loc: 1
  DW_CFA_def_cfa_offset: +16
  DW_CFA_offset: RBP -16
  DW_CFA_advance_loc: 3
  DW_CFA_def_cfa_register: RBP
  DW_CFA_advance_loc1: 133
  DW_CFA_def_cfa: RSP +8
  DW_CFA_nop:
  DW_CFA_nop:

  0xf5050: CFA=RSP+8: RIP=[CFA-8]
  0xf5051: CFA=RSP+16: RBP=[CFA-16], RIP=[CFA-8]
  0xf5054: CFA=RBP+16: RBP=[CFA-16], RIP=[CFA-8]
  0xf50d9: CFA=RSP+8: RBP=[CFA-16], RIP=[CFA-8]

00003b34 0000001c 00003b38 FDE cie=00000000 pc=000f50e0...000f516a
  Format:       DWARF32
  DW_CFA_advance_loc: 1
  DW_CFA_def_cfa_offset: +16
  DW_CFA_offset: RBP -16
  DW_CFA_advance_loc: 3
  DW_CFA_def_cfa_register: RBP
  DW_CFA_advance_loc1: 133
  DW_CFA_def_cfa: RSP +8
  DW_CFA_nop:
  DW_CFA_nop:

  0xf50e0: CFA=RSP+8: RIP=[CFA-8]
  0xf50e1: CFA=RSP+16: RBP=[CFA-16], RIP=[CFA-8]
  0xf50e4: CFA=RBP+16: RBP=[CFA-16], RIP=[CFA-8]
  0xf5169: CFA=RSP+8: RBP=[CFA-16], RIP=[CFA-8]

00003b54 0000001c 00003b58 FDE cie=00000000 pc=000f5170...000f51fa
  Format:       DWARF32
  DW_CFA_advance_loc: 1
  DW_CFA_def_cfa_offset: +16
  DW_CFA_offset: RBP -16
  DW_CFA_advance_loc: 3
  DW_CFA_def_cfa_register: RBP
  DW_CFA_advance_loc1: 133
  DW_CFA_def_cfa: RSP +8
  DW_CFA_nop:
  DW_CFA_nop:

  0xf5170: CFA=RSP+8: RIP=[CFA-8]
  0xf5171: CFA=RSP+16: RBP=[CFA-16], RIP=[CFA-8]
  0xf5174: CFA=RBP+16: RBP=[CFA-16], RIP=[CFA-8]
  0xf51f9: CFA=RSP+8: RBP=[CFA-16], RIP=[CFA-8]

00003b74 0000001c 00003b78 FDE cie=00000000 pc=000f5200...000f528a
  Format:       DWARF32
  DW_CFA_advance_loc: 1
  DW_CFA_def_cfa_offset: +16
  DW_CFA_offset: RBP -16
  DW_CFA_advance_loc: 3
  DW_CFA_def_cfa_register: RBP
  DW_CFA_advance_loc1: 133
  DW_CFA_def_cfa: RSP +8
  DW_CFA_nop:
  DW_CFA_nop:

  0xf5200: CFA=RSP+8: RIP=[CFA-8]
  0xf5201: CFA=RSP+16: RBP=[CFA-16], RIP=[CFA-8]
  0xf5204: CFA=RBP+16: RBP=[CFA-16], RIP=[CFA-8]
  0xf5289: CFA=RSP+8: RBP=[CFA-16], RIP=[CFA-8]

00003b94 0000001c 00003b98 FDE cie=00000000 pc=000f5290...000f531a
  Format:       DWARF32
  DW_CFA_advance_loc: 1
  DW_CFA_def_cfa_offset: +16
  DW_CFA_offset: RBP -16
  DW_CFA_advance_loc: 3
  DW_CFA_def_cfa_register: RBP
  DW_CFA_advance_loc1: 133
  DW_CFA_def_cfa: RSP +8
  DW_CFA_nop:
  DW_CFA_nop:

  0xf5290: CFA=RSP+8: RIP=[CFA-8]
  0xf5291: CFA=RSP+16: RBP=[CFA-16], RIP=[CFA-8]
  0xf5294: CFA=RBP+16: RBP=[CFA-16], RIP=[CFA-8]
  0xf5319: CFA=RSP+8: RBP=[CFA-16], RIP=[CFA-8]

00003bb4 0000001c 00003bb8 FDE cie=00000000 pc=000f5320...000f5332
  Format:       DWARF32
  DW_CFA_advance_loc: 1
  DW_CFA_def_cfa_offset: +16
  DW_CFA_offset: RBP -16
  DW_CFA_advance_loc: 3
  DW_CFA_def_cfa_register: RBP
  DW_CFA_advance_loc: 13
  DW_CFA_def_cfa: RSP +8
  DW_CFA_nop:
  DW_CFA_nop:
  DW_CFA_nop:

  0xf5320: CFA=RSP+8: RIP=[CFA-8]
  0xf5321: CFA=RSP+16: RBP=[CFA-16], RIP=[CFA-8]
  0xf5324: CFA=RBP+16: RBP=[CFA-16], RIP=[CFA-8]
  0xf5331: CFA=RSP+8: RBP=[CFA-16], RIP=[CFA-8]

00003bd4 0000001c 00003bd8 FDE cie=00000000 pc=000f5340...000f5364
  Format:       DWARF32
  DW_CFA_advance_loc: 1
  DW_CFA_def_cfa_offset: +16
  DW_CFA_offset: RBP -16
  DW_CFA_advance_loc: 3
  DW_CFA_def_cfa_register: RBP
  DW_CFA_advance_loc: 31
  DW_CFA_def_cfa: RSP +8
  DW_CFA_nop:
  DW_CFA_nop:
  DW_CFA_nop:

  0xf5340: CFA=RSP+8: RIP=[CFA-8]
  0xf5341: CFA=RSP+16: RBP=[CFA-16], RIP=[CFA-8]
  0xf5344: CFA=RBP+16: RBP=[CFA-16], RIP=[CFA-8]
  0xf5363: CFA=RSP+8: RBP=[CFA-16], RIP=[CFA-8]

00003bf4 0000001c 00003bf8 FDE cie=00000000 pc=000f5370...000f5394
  Format:       DWARF32
  DW_CFA_advance_loc: 1
  DW_CFA_def_cfa_offset: +16
  DW_CFA_offset: RBP -16
  DW_CFA_advance_loc: 3
  DW_CFA_def_cfa_register: RBP
  DW_CFA_advance_loc: 31
  DW_CFA_def_cfa: RSP +8
  DW_CFA_nop:
  DW_CFA_nop:
  DW_CFA_nop:

  0xf5370: CFA=RSP+8: RIP=[CFA-8]
  0xf5371: CFA=RSP+16: RBP=[CFA-16], RIP=[CFA-8]
  0xf5374: CFA=RBP+16: RBP=[CFA-16], RIP=[CFA-8]
  0xf5393: CFA=RSP+8: RBP=[CFA-16], RIP=[CFA-8]

00003c14 00000030 00003c00 FDE cie=00000018 pc=000f53a0...000f5444
  Format:       DWARF32
  LSDA Address: 00000000000bc4d8
  DW_CFA_advance_loc: 1
  DW_CFA_def_cfa_offset: +16
  DW_CFA_offset: RBP -16
  DW_CFA_advance_loc: 3
  DW_CFA_def_cfa_register: RBP
  DW_CFA_advance_loc1: 89
  DW_CFA_def_cfa: RSP +8
  DW_CFA_restore: RBP
  DW_CFA_advance_loc: 2
  DW_CFA_def_cfa: RBP +16
  DW_CFA_offset: RBP -16
  DW_CFA_advance_loc: 47
  DW_CFA_def_cfa: RSP +8
  DW_CFA_advance_loc: 1
  DW_CFA_def_cfa: RBP +16
  DW_CFA_nop:
  DW_CFA_nop:
  DW_CFA_nop:

  0xf53a0: CFA=RSP+8: RIP=[CFA-8]
  0xf53a1: CFA=RSP+16: RBP=[CFA-16], RIP=[CFA-8]
  0xf53a4: CFA=RBP+16: RBP=[CFA-16], RIP=[CFA-8]
  0xf53fd: CFA=RSP+8: RIP=[CFA-8]
  0xf53ff: CFA=RBP+16: RBP=[CFA-16], RIP=[CFA-8]
  0xf542e: CFA=RSP+8: RBP=[CFA-16], RIP=[CFA-8]
  0xf542f: CFA=RBP+16: RBP=[CFA-16], RIP=[CFA-8]

00003c48 0000001c 00003c4c FDE cie=00000000 pc=000f5450...000f5485
  Format:       DWARF32
  DW_CFA_advance_loc: 1
  DW_CFA_def_cfa_offset: +16
  DW_CFA_offset: RBP -16
  DW_CFA_advance_loc: 3
  DW_CFA_def_cfa_register: RBP
  DW_CFA_advance_loc: 48
  DW_CFA_def_cfa: RSP +8
  DW_CFA_nop:
  DW_CFA_nop:
  DW_CFA_nop:

  0xf5450: CFA=RSP+8: RIP=[CFA-8]
  0xf5451: CFA=RSP+16: RBP=[CFA-16], RIP=[CFA-8]
  0xf5454: CFA=RBP+16: RBP=[CFA-16], RIP=[CFA-8]
  0xf5484: CFA=RSP+8: RBP=[CFA-16], RIP=[CFA-8]

00003c68 0000001c 00003c6c FDE cie=00000000 pc=000f5490...000f54c8
  Format:       DWARF32
  DW_CFA_advance_loc: 1
  DW_CFA_def_cfa_offset: +16
  DW_CFA_offset: RBP -16
  DW_CFA_advance_loc: 3
  DW_CFA_def_cfa_register: RBP
  DW_CFA_advance_loc: 51
  DW_CFA_def_cfa: RSP +8
  DW_CFA_nop:
  DW_CFA_nop:
  DW_CFA_nop:

  0xf5490: CFA=RSP+8: RIP=[CFA-8]
  0xf5491: CFA=RSP+16: RBP=[CFA-16], RIP=[CFA-8]
  0xf5494: CFA=RBP+16: RBP=[CFA-16], RIP=[CFA-8]
  0xf54c7: CFA=RSP+8: RBP=[CFA-16], RIP=[CFA-8]

00003c88 0000001c 00003c8c FDE cie=00000000 pc=000f54d0...000f5559
  Format:       DWARF32
  DW_CFA_advance_loc: 1
  DW_CFA_def_cfa_offset: +16
  DW_CFA_offset: RBP -16
  DW_CFA_advance_loc: 3
  DW_CFA_def_cfa_register: RBP
  DW_CFA_advance_loc1: 132
  DW_CFA_def_cfa: RSP +8
  DW_CFA_nop:
  DW_CFA_nop:

  0xf54d0: CFA=RSP+8: RIP=[CFA-8]
  0xf54d1: CFA=RSP+16: RBP=[CFA-16], RIP=[CFA-8]
  0xf54d4: CFA=RBP+16: RBP=[CFA-16], RIP=[CFA-8]
  0xf5558: CFA=RSP+8: RBP=[CFA-16], RIP=[CFA-8]

00003ca8 00000020 00003cac FDE cie=00000000 pc=000f5560...000f5635
  Format:       DWARF32
  DW_CFA_advance_loc: 1
  DW_CFA_def_cfa_offset: +16
  DW_CFA_offset: RBP -16
  DW_CFA_advance_loc: 3
  DW_CFA_def_cfa_register: RBP
  DW_CFA_advance_loc1: 86
  DW_CFA_def_cfa: RSP +8
  DW_CFA_advance_loc: 1
  DW_CFA_def_cfa: RBP +16
  DW_CFA_nop:
  DW_CFA_nop:

  0xf5560: CFA=RSP+8: RIP=[CFA-8]
  0xf5561: CFA=RSP+16: RBP=[CFA-16], RIP=[CFA-8]
  0xf5564: CFA=RBP+16: RBP=[CFA-16], RIP=[CFA-8]
  0xf55ba: CFA=RSP+8: RBP=[CFA-16], RIP=[CFA-8]
  0xf55bb: CFA=RBP+16: RBP=[CFA-16], RIP=[CFA-8]

00003ccc 0000001c 00003cd0 FDE cie=00000000 pc=000f5640...000f5652
  Format:       DWARF32
  DW_CFA_advance_loc: 1
  DW_CFA_def_cfa_offset: +16
  DW_CFA_offset: RBP -16
  DW_CFA_advance_loc: 3
  DW_CFA_def_cfa_register: RBP
  DW_CFA_advance_loc: 13
  DW_CFA_def_cfa: RSP +8
  DW_CFA_nop:
  DW_CFA_nop:
  DW_CFA_nop:

  0xf5640: CFA=RSP+8: RIP=[CFA-8]
  0xf5641: CFA=RSP+16: RBP=[CFA-16], RIP=[CFA-8]
  0xf5644: CFA=RBP+16: RBP=[CFA-16], RIP=[CFA-8]
  0xf5651: CFA=RSP+8: RBP=[CFA-16], RIP=[CFA-8]

00003cec 0000001c 00003cf0 FDE cie=00000000 pc=000f5660...000f568e
  Format:       DWARF32
  DW_CFA_advance_loc: 1
  DW_CFA_def_cfa_offset: +16
  DW_CFA_offset: RBP -16
  DW_CFA_advance_loc: 3
  DW_CFA_def_cfa_register: RBP
  DW_CFA_advance_loc: 41
  DW_CFA_def_cfa: RSP +8
  DW_CFA_nop:
  DW_CFA_nop:
  DW_CFA_nop:

  0xf5660: CFA=RSP+8: RIP=[CFA-8]
  0xf5661: CFA=RSP+16: RBP=[CFA-16], RIP=[CFA-8]
  0xf5664: CFA=RBP+16: RBP=[CFA-16], RIP=[CFA-8]
  0xf568d: CFA=RSP+8: RBP=[CFA-16], RIP=[CFA-8]

00003d0c 0000001c 00003d10 FDE cie=00000000 pc=000f5690...000f56b7
  Format:       DWARF32
  DW_CFA_advance_loc: 1
  DW_CFA_def_cfa_offset: +16
  DW_CFA_offset: RBP -16
  DW_CFA_advance_loc: 3
  DW_CFA_def_cfa_register: RBP
  DW_CFA_advance_loc: 34
  DW_CFA_def_cfa: RSP +8
  DW_CFA_nop:
  DW_CFA_nop:
  DW_CFA_nop:

  0xf5690: CFA=RSP+8: RIP=[CFA-8]
  0xf5691: CFA=RSP+16: RBP=[CFA-16], RIP=[CFA-8]
  0xf5694: CFA=RBP+16: RBP=[CFA-16], RIP=[CFA-8]
  0xf56b6: CFA=RSP+8: RBP=[CFA-16], RIP=[CFA-8]

00003d2c 00000024 00003d30 FDE cie=00000000 pc=000f56c0...000f588b
  Format:       DWARF32
  DW_CFA_advance_loc: 1
  DW_CFA_def_cfa_offset: +16
  DW_CFA_offset: RBP -16
  DW_CFA_advance_loc: 3
  DW_CFA_def_cfa_register: RBP
  DW_CFA_advance_loc: 14
  DW_CFA_offset: RBX -48
  DW_CFA_offset: R12 -40
  DW_CFA_offset: R14 -32
  DW_CFA_offset: R15 -24
  DW_CFA_advance_loc2: 440
  DW_CFA_def_cfa: RSP +8

  0xf56c0: CFA=RSP+8: RIP=[CFA-8]
  0xf56c1: CFA=RSP+16: RBP=[CFA-16], RIP=[CFA-8]
  0xf56c4: CFA=RBP+16: RBP=[CFA-16], RIP=[CFA-8]
  0xf56d2: CFA=RBP+16: RBX=[CFA-48], RBP=[CFA-16], R12=[CFA-40], R14=[CFA-32], R15=[CFA-24], RIP=[CFA-8]
  0xf588a: CFA=RSP+8: RBX=[CFA-48], RBP=[CFA-16], R12=[CFA-40], R14=[CFA-32], R15=[CFA-24], RIP=[CFA-8]

00003d54 0000001c 00003d58 FDE cie=00000000 pc=000f5890...000f58ab
  Format:       DWARF32
  DW_CFA_advance_loc: 1
  DW_CFA_def_cfa_offset: +16
  DW_CFA_offset: RBP -16
  DW_CFA_advance_loc: 3
  DW_CFA_def_cfa_register: RBP
  DW_CFA_advance_loc: 22
  DW_CFA_def_cfa: RSP +8
  DW_CFA_nop:
  DW_CFA_nop:
  DW_CFA_nop:

  0xf5890: CFA=RSP+8: RIP=[CFA-8]
  0xf5891: CFA=RSP+16: RBP=[CFA-16], RIP=[CFA-8]
  0xf5894: CFA=RBP+16: RBP=[CFA-16], RIP=[CFA-8]
  0xf58aa: CFA=RSP+8: RBP=[CFA-16], RIP=[CFA-8]

00003d74 0000001c 00003d78 FDE cie=00000000 pc=000f58b0...000f5908
  Format:       DWARF32
  DW_CFA_advance_loc: 1
  DW_CFA_def_cfa_offset: +16
  DW_CFA_offset: RBP -16
  DW_CFA_advance_loc: 3
  DW_CFA_def_cfa_register: RBP
  DW_CFA_advance_loc1: 83
  DW_CFA_def_cfa: RSP +8
  DW_CFA_nop:
  DW_CFA_nop:

  0xf58b0: CFA=RSP+8: RIP=[CFA-8]
  0xf58b1: CFA=RSP+16: RBP=[CFA-16], RIP=[CFA-8]
  0xf58b4: CFA=RBP+16: RBP=[CFA-16], RIP=[CFA-8]
  0xf5907: CFA=RSP+8: RBP=[CFA-16], RIP=[CFA-8]

00003d94 0000001c 00003d98 FDE cie=00000000 pc=000f5910...000f5933
  Format:       DWARF32
  DW_CFA_advance_loc: 1
  DW_CFA_def_cfa_offset: +16
  DW_CFA_offset: RBP -16
  DW_CFA_advance_loc: 3
  DW_CFA_def_cfa_register: RBP
  DW_CFA_advance_loc: 30
  DW_CFA_def_cfa: RSP +8
  DW_CFA_nop:
  DW_CFA_nop:
  DW_CFA_nop:

  0xf5910: CFA=RSP+8: RIP=[CFA-8]
  0xf5911: CFA=RSP+16: RBP=[CFA-16], RIP=[CFA-8]
  0xf5914: CFA=RBP+16: RBP=[CFA-16], RIP=[CFA-8]
  0xf5932: CFA=RSP+8: RBP=[CFA-16], RIP=[CFA-8]

00003db4 0000001c 00003db8 FDE cie=00000000 pc=000f5940...000f594a
  Format:       DWARF32
  DW_CFA_advance_loc: 1
  DW_CFA_def_cfa_offset: +16
  DW_CFA_offset: RBP -16
  DW_CFA_advance_loc: 3
  DW_CFA_def_cfa_register: RBP
  DW_CFA_advance_loc: 5
  DW_CFA_def_cfa: RSP +8
  DW_CFA_nop:
  DW_CFA_nop:
  DW_CFA_nop:

  0xf5940: CFA=RSP+8: RIP=[CFA-8]
  0xf5941: CFA=RSP+16: RBP=[CFA-16], RIP=[CFA-8]
  0xf5944: CFA=RBP+16: RBP=[CFA-16], RIP=[CFA-8]
  0xf5949: CFA=RSP+8: RBP=[CFA-16], RIP=[CFA-8]

00003dd4 0000001c 00003dd8 FDE cie=00000000 pc=000f5950...000f595a
  Format:       DWARF32
  DW_CFA_advance_loc: 1
  DW_CFA_def_cfa_offset: +16
  DW_CFA_offset: RBP -16
  DW_CFA_advance_loc: 3
  DW_CFA_def_cfa_register: RBP
  DW_CFA_advance_loc: 5
  DW_CFA_def_cfa: RSP +8
  DW_CFA_nop:
  DW_CFA_nop:
  DW_CFA_nop:

  0xf5950: CFA=RSP+8: RIP=[CFA-8]
  0xf5951: CFA=RSP+16: RBP=[CFA-16], RIP=[CFA-8]
  0xf5954: CFA=RBP+16: RBP=[CFA-16], RIP=[CFA-8]
  0xf5959: CFA=RSP+8: RBP=[CFA-16], RIP=[CFA-8]

00003df4 0000001c 00003df8 FDE cie=00000000 pc=000f5960...000f596a
  Format:       DWARF32
  DW_CFA_advance_loc: 1
  DW_CFA_def_cfa_offset: +16
  DW_CFA_offset: RBP -16
  DW_CFA_advance_loc: 3
  DW_CFA_def_cfa_register: RBP
  DW_CFA_advance_loc: 5
  DW_CFA_def_cfa: RSP +8
  DW_CFA_nop:
  DW_CFA_nop:
  DW_CFA_nop:

  0xf5960: CFA=RSP+8: RIP=[CFA-8]
  0xf5961: CFA=RSP+16: RBP=[CFA-16], RIP=[CFA-8]
  0xf5964: CFA=RBP+16: RBP=[CFA-16], RIP=[CFA-8]
  0xf5969: CFA=RSP+8: RBP=[CFA-16], RIP=[CFA-8]

00003e14 0000001c 00003e18 FDE cie=00000000 pc=000f5970...000f597a
  Format:       DWARF32
  DW_CFA_advance_loc: 1
  DW_CFA_def_cfa_offset: +16
  DW_CFA_offset: RBP -16
  DW_CFA_advance_loc: 3
  DW_CFA_def_cfa_register: RBP
  DW_CFA_advance_loc: 5
  DW_CFA_def_cfa: RSP +8
  DW_CFA_nop:
  DW_CFA_nop:
  DW_CFA_nop:

  0xf5970: CFA=RSP+8: RIP=[CFA-8]
  0xf5971: CFA=RSP+16: RBP=[CFA-16], RIP=[CFA-8]
  0xf5974: CFA=RBP+16: RBP=[CFA-16], RIP=[CFA-8]
  0xf5979: CFA=RSP+8: RBP=[CFA-16], RIP=[CFA-8]

00003e34 0000001c 00003e38 FDE cie=00000000 pc=000f5980...000f598a
  Format:       DWARF32
  DW_CFA_advance_loc: 1
  DW_CFA_def_cfa_offset: +16
  DW_CFA_offset: RBP -16
  DW_CFA_advance_loc: 3
  DW_CFA_def_cfa_register: RBP
  DW_CFA_advance_loc: 5
  DW_CFA_def_cfa: RSP +8
  DW_CFA_nop:
  DW_CFA_nop:
  DW_CFA_nop:

  0xf5980: CFA=RSP+8: RIP=[CFA-8]
  0xf5981: CFA=RSP+16: RBP=[CFA-16], RIP=[CFA-8]
  0xf5984: CFA=RBP+16: RBP=[CFA-16], RIP=[CFA-8]
  0xf5989: CFA=RSP+8: RBP=[CFA-16], RIP=[CFA-8]

00003e54 0000001c 00003e58 FDE cie=00000000 pc=000f5990...000f599a
  Format:       DWARF32
  DW_CFA_advance_loc: 1
  DW_CFA_def_cfa_offset: +16
  DW_CFA_offset: RBP -16
  DW_CFA_advance_loc: 3
  DW_CFA_def_cfa_register: RBP
  DW_CFA_advance_loc: 5
  DW_CFA_def_cfa: RSP +8
  DW_CFA_nop:
  DW_CFA_nop:
  DW_CFA_nop:

  0xf5990: CFA=RSP+8: RIP=[CFA-8]
  0xf5991: CFA=RSP+16: RBP=[CFA-16], RIP=[CFA-8]
  0xf5994: CFA=RBP+16: RBP=[CFA-16], RIP=[CFA-8]
  0xf5999: CFA=RSP+8: RBP=[CFA-16], RIP=[CFA-8]

00003e74 0000001c 00003e78 FDE cie=00000000 pc=000f59a0...000f59aa
  Format:       DWARF32
  DW_CFA_advance_loc: 1
  DW_CFA_def_cfa_offset: +16
  DW_CFA_offset: RBP -16
  DW_CFA_advance_loc: 3
  DW_CFA_def_cfa_register: RBP
  DW_CFA_advance_loc: 5
  DW_CFA_def_cfa: RSP +8
  DW_CFA_nop:
  DW_CFA_nop:
  DW_CFA_nop:

  0xf59a0: CFA=RSP+8: RIP=[CFA-8]
  0xf59a1: CFA=RSP+16: RBP=[CFA-16], RIP=[CFA-8]
  0xf59a4: CFA=RBP+16: RBP=[CFA-16], RIP=[CFA-8]
  0xf59a9: CFA=RSP+8: RBP=[CFA-16], RIP=[CFA-8]

00003e94 0000001c 00003e98 FDE cie=00000000 pc=000f59b0...000f59ba
  Format:       DWARF32
  DW_CFA_advance_loc: 1
  DW_CFA_def_cfa_offset: +16
  DW_CFA_offset: RBP -16
  DW_CFA_advance_loc: 3
  DW_CFA_def_cfa_register: RBP
  DW_CFA_advance_loc: 5
  DW_CFA_def_cfa: RSP +8
  DW_CFA_nop:
  DW_CFA_nop:
  DW_CFA_nop:

  0xf59b0: CFA=RSP+8: RIP=[CFA-8]
  0xf59b1: CFA=RSP+16: RBP=[CFA-16], RIP=[CFA-8]
  0xf59b4: CFA=RBP+16: RBP=[CFA-16], RIP=[CFA-8]
  0xf59b9: CFA=RSP+8: RBP=[CFA-16], RIP=[CFA-8]

00003eb4 0000001c 00003eb8 FDE cie=00000000 pc=000f59c0...000f59ca
  Format:       DWARF32
  DW_CFA_advance_loc: 1
  DW_CFA_def_cfa_offset: +16
  DW_CFA_offset: RBP -16
  DW_CFA_advance_loc: 3
  DW_CFA_def_cfa_register: RBP
  DW_CFA_advance_loc: 5
  DW_CFA_def_cfa: RSP +8
  DW_CFA_nop:
  DW_CFA_nop:
  DW_CFA_nop:

  0xf59c0: CFA=RSP+8: RIP=[CFA-8]
  0xf59c1: CFA=RSP+16: RBP=[CFA-16], RIP=[CFA-8]
  0xf59c4: CFA=RBP+16: RBP=[CFA-16], RIP=[CFA-8]
  0xf59c9: CFA=RSP+8: RBP=[CFA-16], RIP=[CFA-8]

00003ed4 0000001c 00003ed8 FDE cie=00000000 pc=000f59d0...000f59da
  Format:       DWARF32
  DW_CFA_advance_loc: 1
  DW_CFA_def_cfa_offset: +16
  DW_CFA_offset: RBP -16
  DW_CFA_advance_loc: 3
  DW_CFA_def_cfa_register: RBP
  DW_CFA_advance_loc: 5
  DW_CFA_def_cfa: RSP +8
  DW_CFA_nop:
  DW_CFA_nop:
  DW_CFA_nop:

  0xf59d0: CFA=RSP+8: RIP=[CFA-8]
  0xf59d1: CFA=RSP+16: RBP=[CFA-16], RIP=[CFA-8]
  0xf59d4: CFA=RBP+16: RBP=[CFA-16], RIP=[CFA-8]
  0xf59d9: CFA=RSP+8: RBP=[CFA-16], RIP=[CFA-8]

00003ef4 0000001c 00003ef8 FDE cie=00000000 pc=000f59e0...000f59ea
  Format:       DWARF32
  DW_CFA_advance_loc: 1
  DW_CFA_def_cfa_offset: +16
  DW_CFA_offset: RBP -16
  DW_CFA_advance_loc: 3
  DW_CFA_def_cfa_register: RBP
  DW_CFA_advance_loc: 5
  DW_CFA_def_cfa: RSP +8
  DW_CFA_nop:
  DW_CFA_nop:
  DW_CFA_nop:

  0xf59e0: CFA=RSP+8: RIP=[CFA-8]
  0xf59e1: CFA=RSP+16: RBP=[CFA-16], RIP=[CFA-8]
  0xf59e4: CFA=RBP+16: RBP=[CFA-16], RIP=[CFA-8]
  0xf59e9: CFA=RSP+8: RBP=[CFA-16], RIP=[CFA-8]

00003f14 0000001c 00003f18 FDE cie=00000000 pc=000f59f0...000f59fa
  Format:       DWARF32
  DW_CFA_advance_loc: 1
  DW_CFA_def_cfa_offset: +16
  DW_CFA_offset: RBP -16
  DW_CFA_advance_loc: 3
  DW_CFA_def_cfa_register: RBP
  DW_CFA_advance_loc: 5
  DW_CFA_def_cfa: RSP +8
  DW_CFA_nop:
  DW_CFA_nop:
  DW_CFA_nop:

  0xf59f0: CFA=RSP+8: RIP=[CFA-8]
  0xf59f1: CFA=RSP+16: RBP=[CFA-16], RIP=[CFA-8]
  0xf59f4: CFA=RBP+16: RBP=[CFA-16], RIP=[CFA-8]
  0xf59f9: CFA=RSP+8: RBP=[CFA-16], RIP=[CFA-8]

00003f34 0000001c 00003f38 FDE cie=00000000 pc=000f5a00...000f5a0a
  Format:       DWARF32
  DW_CFA_advance_loc: 1
  DW_CFA_def_cfa_offset: +16
  DW_CFA_offset: RBP -16
  DW_CFA_advance_loc: 3
  DW_CFA_def_cfa_register: RBP
  DW_CFA_advance_loc: 5
  DW_CFA_def_cfa: RSP +8
  DW_CFA_nop:
  DW_CFA_nop:
  DW_CFA_nop:

  0xf5a00: CFA=RSP+8: RIP=[CFA-8]
  0xf5a01: CFA=RSP+16: RBP=[CFA-16], RIP=[CFA-8]
  0xf5a04: CFA=RBP+16: RBP=[CFA-16], RIP=[CFA-8]
  0xf5a09: CFA=RSP+8: RBP=[CFA-16], RIP=[CFA-8]

00003f54 0000001c 00003f58 FDE cie=00000000 pc=000f5a10...000f5a1a
  Format:       DWARF32
  DW_CFA_advance_loc: 1
  DW_CFA_def_cfa_offset: +16
  DW_CFA_offset: RBP -16
  DW_CFA_advance_loc: 3
  DW_CFA_def_cfa_register: RBP
  DW_CFA_advance_loc: 5
  DW_CFA_def_cfa: RSP +8
  DW_CFA_nop:
  DW_CFA_nop:
  DW_CFA_nop:

  0xf5a10: CFA=RSP+8: RIP=[CFA-8]
  0xf5a11: CFA=RSP+16: RBP=[CFA-16], RIP=[CFA-8]
  0xf5a14: CFA=RBP+16: RBP=[CFA-16], RIP=[CFA-8]
  0xf5a19: CFA=RSP+8: RBP=[CFA-16], RIP=[CFA-8]

00003f74 0000001c 00003f78 FDE cie=00000000 pc=000f5a20...000f5a2a
  Format:       DWARF32
  DW_CFA_advance_loc: 1
  DW_CFA_def_cfa_offset: +16
  DW_CFA_offset: RBP -16
  DW_CFA_advance_loc: 3
  DW_CFA_def_cfa_register: RBP
  DW_CFA_advance_loc: 5
  DW_CFA_def_cfa: RSP +8
  DW_CFA_nop:
  DW_CFA_nop:
  DW_CFA_nop:

  0xf5a20: CFA=RSP+8: RIP=[CFA-8]
  0xf5a21: CFA=RSP+16: RBP=[CFA-16], RIP=[CFA-8]
  0xf5a24: CFA=RBP+16: RBP=[CFA-16], RIP=[CFA-8]
  0xf5a29: CFA=RSP+8: RBP=[CFA-16], RIP=[CFA-8]

00003f94 0000001c 00003f98 FDE cie=00000000 pc=000f5a30...000f5a3a
  Format:       DWARF32
  DW_CFA_advance_loc: 1
  DW_CFA_def_cfa_offset: +16
  DW_CFA_offset: RBP -16
  DW_CFA_advance_loc: 3
  DW_CFA_def_cfa_register: RBP
  DW_CFA_advance_loc: 5
  DW_CFA_def_cfa: RSP +8
  DW_CFA_nop:
  DW_CFA_nop:
  DW_CFA_nop:

  0xf5a30: CFA=RSP+8: RIP=[CFA-8]
  0xf5a31: CFA=RSP+16: RBP=[CFA-16], RIP=[CFA-8]
  0xf5a34: CFA=RBP+16: RBP=[CFA-16], RIP=[CFA-8]
  0xf5a39: CFA=RSP+8: RBP=[CFA-16], RIP=[CFA-8]

00003fb4 0000001c 00003fb8 FDE cie=00000000 pc=000f5a40...000f5a4a
  Format:       DWARF32
  DW_CFA_advance_loc: 1
  DW_CFA_def_cfa_offset: +16
  DW_CFA_offset: RBP -16
  DW_CFA_advance_loc: 3
  DW_CFA_def_cfa_register: RBP
  DW_CFA_advance_loc: 5
  DW_CFA_def_cfa: RSP +8
  DW_CFA_nop:
  DW_CFA_nop:
  DW_CFA_nop:

  0xf5a40: CFA=RSP+8: RIP=[CFA-8]
  0xf5a41: CFA=RSP+16: RBP=[CFA-16], RIP=[CFA-8]
  0xf5a44: CFA=RBP+16: RBP=[CFA-16], RIP=[CFA-8]
  0xf5a49: CFA=RSP+8: RBP=[CFA-16], RIP=[CFA-8]

00003fd4 0000001c 00003fd8 FDE cie=00000000 pc=000f5a50...000f5a5a
  Format:       DWARF32
  DW_CFA_advance_loc: 1
  DW_CFA_def_cfa_offset: +16
  DW_CFA_offset: RBP -16
  DW_CFA_advance_loc: 3
  DW_CFA_def_cfa_register: RBP
  DW_CFA_advance_loc: 5
  DW_CFA_def_cfa: RSP +8
  DW_CFA_nop:
  DW_CFA_nop:
  DW_CFA_nop:

  0xf5a50: CFA=RSP+8: RIP=[CFA-8]
  0xf5a51: CFA=RSP+16: RBP=[CFA-16], RIP=[CFA-8]
  0xf5a54: CFA=RBP+16: RBP=[CFA-16], RIP=[CFA-8]
  0xf5a59: CFA=RSP+8: RBP=[CFA-16], RIP=[CFA-8]

00003ff4 0000001c 00003ff8 FDE cie=00000000 pc=000f5a60...000f5a6a
  Format:       DWARF32
  DW_CFA_advance_loc: 1
  DW_CFA_def_cfa_offset: +16
  DW_CFA_offset: RBP -16
  DW_CFA_advance_loc: 3
  DW_CFA_def_cfa_register: RBP
  DW_CFA_advance_loc: 5
  DW_CFA_def_cfa: RSP +8
  DW_CFA_nop:
  DW_CFA_nop:
  DW_CFA_nop:

  0xf5a60: CFA=RSP+8: RIP=[CFA-8]
  0xf5a61: CFA=RSP+16: RBP=[CFA-16], RIP=[CFA-8]
  0xf5a64: CFA=RBP+16: RBP=[CFA-16], RIP=[CFA-8]
  0xf5a69: CFA=RSP+8: RBP=[CFA-16], RIP=[CFA-8]

00004014 0000001c 00004018 FDE cie=00000000 pc=000f5a70...000f5a7a
  Format:       DWARF32
  DW_CFA_advance_loc: 1
  DW_CFA_def_cfa_offset: +16
  DW_CFA_offset: RBP -16
  DW_CFA_advance_loc: 3
  DW_CFA_def_cfa_register: RBP
  DW_CFA_advance_loc: 5
  DW_CFA_def_cfa: RSP +8
  DW_CFA_nop:
  DW_CFA_nop:
  DW_CFA_nop:

  0xf5a70: CFA=RSP+8: RIP=[CFA-8]
  0xf5a71: CFA=RSP+16: RBP=[CFA-16], RIP=[CFA-8]
  0xf5a74: CFA=RBP+16: RBP=[CFA-16], RIP=[CFA-8]
  0xf5a79: CFA=RSP+8: RBP=[CFA-16], RIP=[CFA-8]

00004034 0000001c 00004038 FDE cie=00000000 pc=000f5a80...000f5a8a
  Format:       DWARF32
  DW_CFA_advance_loc: 1
  DW_CFA_def_cfa_offset: +16
  DW_CFA_offset: RBP -16
  DW_CFA_advance_loc: 3
  DW_CFA_def_cfa_register: RBP
  DW_CFA_advance_loc: 5
  DW_CFA_def_cfa: RSP +8
  DW_CFA_nop:
  DW_CFA_nop:
  DW_CFA_nop:

  0xf5a80: CFA=RSP+8: RIP=[CFA-8]
  0xf5a81: CFA=RSP+16: RBP=[CFA-16], RIP=[CFA-8]
  0xf5a84: CFA=RBP+16: RBP=[CFA-16], RIP=[CFA-8]
  0xf5a89: CFA=RSP+8: RBP=[CFA-16], RIP=[CFA-8]

00004054 0000001c 00004058 FDE cie=00000000 pc=000f5a90...000f5a9a
  Format:       DWARF32
  DW_CFA_advance_loc: 1
  DW_CFA_def_cfa_offset: +16
  DW_CFA_offset: RBP -16
  DW_CFA_advance_loc: 3
  DW_CFA_def_cfa_register: RBP
  DW_CFA_advance_loc: 5
  DW_CFA_def_cfa: RSP +8
  DW_CFA_nop:
  DW_CFA_nop:
  DW_CFA_nop:

  0xf5a90: CFA=RSP+8: RIP=[CFA-8]
  0xf5a91: CFA=RSP+16: RBP=[CFA-16], RIP=[CFA-8]
  0xf5a94: CFA=RBP+16: RBP=[CFA-16], RIP=[CFA-8]
  0xf5a99: CFA=RSP+8: RBP=[CFA-16], RIP=[CFA-8]

00004074 0000001c 00004078 FDE cie=00000000 pc=000f5aa0...000f5aaa
  Format:       DWARF32
  DW_CFA_advance_loc: 1
  DW_CFA_def_cfa_offset: +16
  DW_CFA_offset: RBP -16
  DW_CFA_advance_loc: 3
  DW_CFA_def_cfa_register: RBP
  DW_CFA_advance_loc: 5
  DW_CFA_def_cfa: RSP +8
  DW_CFA_nop:
  DW_CFA_nop:
  DW_CFA_nop:

  0xf5aa0: CFA=RSP+8: RIP=[CFA-8]
  0xf5aa1: CFA=RSP+16: RBP=[CFA-16], RIP=[CFA-8]
  0xf5aa4: CFA=RBP+16: RBP=[CFA-16], RIP=[CFA-8]
  0xf5aa9: CFA=RSP+8: RBP=[CFA-16], RIP=[CFA-8]

00004094 0000001c 00004098 FDE cie=00000000 pc=000f5ab0...000f5aba
  Format:       DWARF32
  DW_CFA_advance_loc: 1
  DW_CFA_def_cfa_offset: +16
  DW_CFA_offset: RBP -16
  DW_CFA_advance_loc: 3
  DW_CFA_def_cfa_register: RBP
  DW_CFA_advance_loc: 5
  DW_CFA_def_cfa: RSP +8
  DW_CFA_nop:
  DW_CFA_nop:
  DW_CFA_nop:

  0xf5ab0: CFA=RSP+8: RIP=[CFA-8]
  0xf5ab1: CFA=RSP+16: RBP=[CFA-16], RIP=[CFA-8]
  0xf5ab4: CFA=RBP+16: RBP=[CFA-16], RIP=[CFA-8]
  0xf5ab9: CFA=RSP+8: RBP=[CFA-16], RIP=[CFA-8]

000040b4 0000001c 000040b8 FDE cie=00000000 pc=000f5ac0...000f5aca
  Format:       DWARF32
  DW_CFA_advance_loc: 1
  DW_CFA_def_cfa_offset: +16
  DW_CFA_offset: RBP -16
  DW_CFA_advance_loc: 3
  DW_CFA_def_cfa_register: RBP
  DW_CFA_advance_loc: 5
  DW_CFA_def_cfa: RSP +8
  DW_CFA_nop:
  DW_CFA_nop:
  DW_CFA_nop:

  0xf5ac0: CFA=RSP+8: RIP=[CFA-8]
  0xf5ac1: CFA=RSP+16: RBP=[CFA-16], RIP=[CFA-8]
  0xf5ac4: CFA=RBP+16: RBP=[CFA-16], RIP=[CFA-8]
  0xf5ac9: CFA=RSP+8: RBP=[CFA-16], RIP=[CFA-8]

000040d4 0000001c 000040d8 FDE cie=00000000 pc=000f5ad0...000f5ada
  Format:       DWARF32
  DW_CFA_advance_loc: 1
  DW_CFA_def_cfa_offset: +16
  DW_CFA_offset: RBP -16
  DW_CFA_advance_loc: 3
  DW_CFA_def_cfa_register: RBP
  DW_CFA_advance_loc: 5
  DW_CFA_def_cfa: RSP +8
  DW_CFA_nop:
  DW_CFA_nop:
  DW_CFA_nop:

  0xf5ad0: CFA=RSP+8: RIP=[CFA-8]
  0xf5ad1: CFA=RSP+16: RBP=[CFA-16], RIP=[CFA-8]
  0xf5ad4: CFA=RBP+16: RBP=[CFA-16], RIP=[CFA-8]
  0xf5ad9: CFA=RSP+8: RBP=[CFA-16], RIP=[CFA-8]

000040f4 0000001c 000040f8 FDE cie=00000000 pc=000f5ae0...000f5aea
  Format:       DWARF32
  DW_CFA_advance_loc: 1
  DW_CFA_def_cfa_offset: +16
  DW_CFA_offset: RBP -16
  DW_CFA_advance_loc: 3
  DW_CFA_def_cfa_register: RBP
  DW_CFA_advance_loc: 5
  DW_CFA_def_cfa: RSP +8
  DW_CFA_nop:
  DW_CFA_nop:
  DW_CFA_nop:

  0xf5ae0: CFA=RSP+8: RIP=[CFA-8]
  0xf5ae1: CFA=RSP+16: RBP=[CFA-16], RIP=[CFA-8]
  0xf5ae4: CFA=RBP+16: RBP=[CFA-16], RIP=[CFA-8]
  0xf5ae9: CFA=RSP+8: RBP=[CFA-16], RIP=[CFA-8]

00004114 0000001c 00004118 FDE cie=00000000 pc=000f5af0...000f5afa
  Format:       DWARF32
  DW_CFA_advance_loc: 1
  DW_CFA_def_cfa_offset: +16
  DW_CFA_offset: RBP -16
  DW_CFA_advance_loc: 3
  DW_CFA_def_cfa_register: RBP
  DW_CFA_advance_loc: 5
  DW_CFA_def_cfa: RSP +8
  DW_CFA_nop:
  DW_CFA_nop:
  DW_CFA_nop:

  0xf5af0: CFA=RSP+8: RIP=[CFA-8]
  0xf5af1: CFA=RSP+16: RBP=[CFA-16], RIP=[CFA-8]
  0xf5af4: CFA=RBP+16: RBP=[CFA-16], RIP=[CFA-8]
  0xf5af9: CFA=RSP+8: RBP=[CFA-16], RIP=[CFA-8]

00004134 0000001c 00004138 FDE cie=00000000 pc=000f5b00...000f5b0a
  Format:       DWARF32
  DW_CFA_advance_loc: 1
  DW_CFA_def_cfa_offset: +16
  DW_CFA_offset: RBP -16
  DW_CFA_advance_loc: 3
  DW_CFA_def_cfa_register: RBP
  DW_CFA_advance_loc: 5
  DW_CFA_def_cfa: RSP +8
  DW_CFA_nop:
  DW_CFA_nop:
  DW_CFA_nop:

  0xf5b00: CFA=RSP+8: RIP=[CFA-8]
  0xf5b01: CFA=RSP+16: RBP=[CFA-16], RIP=[CFA-8]
  0xf5b04: CFA=RBP+16: RBP=[CFA-16], RIP=[CFA-8]
  0xf5b09: CFA=RSP+8: RBP=[CFA-16], RIP=[CFA-8]

00004154 0000001c 00004158 FDE cie=00000000 pc=000f5b10...000f5b1a
  Format:       DWARF32
  DW_CFA_advance_loc: 1
  DW_CFA_def_cfa_offset: +16
  DW_CFA_offset: RBP -16
  DW_CFA_advance_loc: 3
  DW_CFA_def_cfa_register: RBP
  DW_CFA_advance_loc: 5
  DW_CFA_def_cfa: RSP +8
  DW_CFA_nop:
  DW_CFA_nop:
  DW_CFA_nop:

  0xf5b10: CFA=RSP+8: RIP=[CFA-8]
  0xf5b11: CFA=RSP+16: RBP=[CFA-16], RIP=[CFA-8]
  0xf5b14: CFA=RBP+16: RBP=[CFA-16], RIP=[CFA-8]
  0xf5b19: CFA=RSP+8: RBP=[CFA-16], RIP=[CFA-8]

00004174 0000001c 00004178 FDE cie=00000000 pc=000f5b20...000f5b2a
  Format:       DWARF32
  DW_CFA_advance_loc: 1
  DW_CFA_def_cfa_offset: +16
  DW_CFA_offset: RBP -16
  DW_CFA_advance_loc: 3
  DW_CFA_def_cfa_register: RBP
  DW_CFA_advance_loc: 5
  DW_CFA_def_cfa: RSP +8
  DW_CFA_nop:
  DW_CFA_nop:
  DW_CFA_nop:

  0xf5b20: CFA=RSP+8: RIP=[CFA-8]
  0xf5b21: CFA=RSP+16: RBP=[CFA-16], RIP=[CFA-8]
  0xf5b24: CFA=RBP+16: RBP=[CFA-16], RIP=[CFA-8]
  0xf5b29: CFA=RSP+8: RBP=[CFA-16], RIP=[CFA-8]

00004194 0000001c 00004198 FDE cie=00000000 pc=000f5b30...000f5b3a
  Format:       DWARF32
  DW_CFA_advance_loc: 1
  DW_CFA_def_cfa_offset: +16
  DW_CFA_offset: RBP -16
  DW_CFA_advance_loc: 3
  DW_CFA_def_cfa_register: RBP
  DW_CFA_advance_loc: 5
  DW_CFA_def_cfa: RSP +8
  DW_CFA_nop:
  DW_CFA_nop:
  DW_CFA_nop:

  0xf5b30: CFA=RSP+8: RIP=[CFA-8]
  0xf5b31: CFA=RSP+16: RBP=[CFA-16], RIP=[CFA-8]
  0xf5b34: CFA=RBP+16: RBP=[CFA-16], RIP=[CFA-8]
  0xf5b39: CFA=RSP+8: RBP=[CFA-16], RIP=[CFA-8]

000041b4 0000001c 000041b8 FDE cie=00000000 pc=000f5b40...000f5b4a
  Format:       DWARF32
  DW_CFA_advance_loc: 1
  DW_CFA_def_cfa_offset: +16
  DW_CFA_offset: RBP -16
  DW_CFA_advance_loc: 3
  DW_CFA_def_cfa_register: RBP
  DW_CFA_advance_loc: 5
  DW_CFA_def_cfa: RSP +8
  DW_CFA_nop:
  DW_CFA_nop:
  DW_CFA_nop:

  0xf5b40: CFA=RSP+8: RIP=[CFA-8]
  0xf5b41: CFA=RSP+16: RBP=[CFA-16], RIP=[CFA-8]
  0xf5b44: CFA=RBP+16: RBP=[CFA-16], RIP=[CFA-8]
  0xf5b49: CFA=RSP+8: RBP=[CFA-16], RIP=[CFA-8]

000041d4 0000001c 000041d8 FDE cie=00000000 pc=000f5b50...000f5b5a
  Format:       DWARF32
  DW_CFA_advance_loc: 1
  DW_CFA_def_cfa_offset: +16
  DW_CFA_offset: RBP -16
  DW_CFA_advance_loc: 3
  DW_CFA_def_cfa_register: RBP
  DW_CFA_advance_loc: 5
  DW_CFA_def_cfa: RSP +8
  DW_CFA_nop:
  DW_CFA_nop:
  DW_CFA_nop:

  0xf5b50: CFA=RSP+8: RIP=[CFA-8]
  0xf5b51: CFA=RSP+16: RBP=[CFA-16], RIP=[CFA-8]
  0xf5b54: CFA=RBP+16: RBP=[CFA-16], RIP=[CFA-8]
  0xf5b59: CFA=RSP+8: RBP=[CFA-16], RIP=[CFA-8]

000041f4 0000001c 000041f8 FDE cie=00000000 pc=000f5b60...000f5b6a
  Format:       DWARF32
  DW_CFA_advance_loc: 1
  DW_CFA_def_cfa_offset: +16
  DW_CFA_offset: RBP -16
  DW_CFA_advance_loc: 3
  DW_CFA_def_cfa_register: RBP
  DW_CFA_advance_loc: 5
  DW_CFA_def_cfa: RSP +8
  DW_CFA_nop:
  DW_CFA_nop:
  DW_CFA_nop:

  0xf5b60: CFA=RSP+8: RIP=[CFA-8]
  0xf5b61: CFA=RSP+16: RBP=[CFA-16], RIP=[CFA-8]
  0xf5b64: CFA=RBP+16: RBP=[CFA-16], RIP=[CFA-8]
  0xf5b69: CFA=RSP+8: RBP=[CFA-16], RIP=[CFA-8]

00004214 0000001c 00004218 FDE cie=00000000 pc=000f5b70...000f5b7a
  Format:       DWARF32
  DW_CFA_advance_loc: 1
  DW_CFA_def_cfa_offset: +16
  DW_CFA_offset: RBP -16
  DW_CFA_advance_loc: 3
  DW_CFA_def_cfa_register: RBP
  DW_CFA_advance_loc: 5
  DW_CFA_def_cfa: RSP +8
  DW_CFA_nop:
  DW_CFA_nop:
  DW_CFA_nop:

  0xf5b70: CFA=RSP+8: RIP=[CFA-8]
  0xf5b71: CFA=RSP+16: RBP=[CFA-16], RIP=[CFA-8]
  0xf5b74: CFA=RBP+16: RBP=[CFA-16], RIP=[CFA-8]
  0xf5b79: CFA=RSP+8: RBP=[CFA-16], RIP=[CFA-8]

00004234 0000001c 00004238 FDE cie=00000000 pc=000f5b80...000f5b8a
  Format:       DWARF32
  DW_CFA_advance_loc: 1
  DW_CFA_def_cfa_offset: +16
  DW_CFA_offset: RBP -16
  DW_CFA_advance_loc: 3
  DW_CFA_def_cfa_register: RBP
  DW_CFA_advance_loc: 5
  DW_CFA_def_cfa: RSP +8
  DW_CFA_nop:
  DW_CFA_nop:
  DW_CFA_nop:

  0xf5b80: CFA=RSP+8: RIP=[CFA-8]
  0xf5b81: CFA=RSP+16: RBP=[CFA-16], RIP=[CFA-8]
  0xf5b84: CFA=RBP+16: RBP=[CFA-16], RIP=[CFA-8]
  0xf5b89: CFA=RSP+8: RBP=[CFA-16], RIP=[CFA-8]

00004254 0000001c 00004258 FDE cie=00000000 pc=000f5b90...000f5b9a
  Format:       DWARF32
  DW_CFA_advance_loc: 1
  DW_CFA_def_cfa_offset: +16
  DW_CFA_offset: RBP -16
  DW_CFA_advance_loc: 3
  DW_CFA_def_cfa_register: RBP
  DW_CFA_advance_loc: 5
  DW_CFA_def_cfa: RSP +8
  DW_CFA_nop:
  DW_CFA_nop:
  DW_CFA_nop:

  0xf5b90: CFA=RSP+8: RIP=[CFA-8]
  0xf5b91: CFA=RSP+16: RBP=[CFA-16], RIP=[CFA-8]
  0xf5b94: CFA=RBP+16: RBP=[CFA-16], RIP=[CFA-8]
  0xf5b99: CFA=RSP+8: RBP=[CFA-16], RIP=[CFA-8]

00004274 0000001c 00004278 FDE cie=00000000 pc=000f5ba0...000f5baa
  Format:       DWARF32
  DW_CFA_advance_loc: 1
  DW_CFA_def_cfa_offset: +16
  DW_CFA_offset: RBP -16
  DW_CFA_advance_loc: 3
  DW_CFA_def_cfa_register: RBP
  DW_CFA_advance_loc: 5
  DW_CFA_def_cfa: RSP +8
  DW_CFA_nop:
  DW_CFA_nop:
  DW_CFA_nop:

  0xf5ba0: CFA=RSP+8: RIP=[CFA-8]
  0xf5ba1: CFA=RSP+16: RBP=[CFA-16], RIP=[CFA-8]
  0xf5ba4: CFA=RBP+16: RBP=[CFA-16], RIP=[CFA-8]
  0xf5ba9: CFA=RSP+8: RBP=[CFA-16], RIP=[CFA-8]

00004294 0000001c 00004298 FDE cie=00000000 pc=000f5bb0...000f5bba
  Format:       DWARF32
  DW_CFA_advance_loc: 1
  DW_CFA_def_cfa_offset: +16
  DW_CFA_offset: RBP -16
  DW_CFA_advance_loc: 3
  DW_CFA_def_cfa_register: RBP
  DW_CFA_advance_loc: 5
  DW_CFA_def_cfa: RSP +8
  DW_CFA_nop:
  DW_CFA_nop:
  DW_CFA_nop:

  0xf5bb0: CFA=RSP+8: RIP=[CFA-8]
  0xf5bb1: CFA=RSP+16: RBP=[CFA-16], RIP=[CFA-8]
  0xf5bb4: CFA=RBP+16: RBP=[CFA-16], RIP=[CFA-8]
  0xf5bb9: CFA=RSP+8: RBP=[CFA-16], RIP=[CFA-8]

000042b4 0000001c 000042b8 FDE cie=00000000 pc=000f5bc0...000f5bca
  Format:       DWARF32
  DW_CFA_advance_loc: 1
  DW_CFA_def_cfa_offset: +16
  DW_CFA_offset: RBP -16
  DW_CFA_advance_loc: 3
  DW_CFA_def_cfa_register: RBP
  DW_CFA_advance_loc: 5
  DW_CFA_def_cfa: RSP +8
  DW_CFA_nop:
  DW_CFA_nop:
  DW_CFA_nop:

  0xf5bc0: CFA=RSP+8: RIP=[CFA-8]
  0xf5bc1: CFA=RSP+16: RBP=[CFA-16], RIP=[CFA-8]
  0xf5bc4: CFA=RBP+16: RBP=[CFA-16], RIP=[CFA-8]
  0xf5bc9: CFA=RSP+8: RBP=[CFA-16], RIP=[CFA-8]

000042d4 0000001c 000042d8 FDE cie=00000000 pc=000f5bd0...000f5bda
  Format:       DWARF32
  DW_CFA_advance_loc: 1
  DW_CFA_def_cfa_offset: +16
  DW_CFA_offset: RBP -16
  DW_CFA_advance_loc: 3
  DW_CFA_def_cfa_register: RBP
  DW_CFA_advance_loc: 5
  DW_CFA_def_cfa: RSP +8
  DW_CFA_nop:
  DW_CFA_nop:
  DW_CFA_nop:

  0xf5bd0: CFA=RSP+8: RIP=[CFA-8]
  0xf5bd1: CFA=RSP+16: RBP=[CFA-16], RIP=[CFA-8]
  0xf5bd4: CFA=RBP+16: RBP=[CFA-16], RIP=[CFA-8]
  0xf5bd9: CFA=RSP+8: RBP=[CFA-16], RIP=[CFA-8]

000042f4 0000001c 000042f8 FDE cie=00000000 pc=000f5be0...000f5bea
  Format:       DWARF32
  DW_CFA_advance_loc: 1
  DW_CFA_def_cfa_offset: +16
  DW_CFA_offset: RBP -16
  DW_CFA_advance_loc: 3
  DW_CFA_def_cfa_register: RBP
  DW_CFA_advance_loc: 5
  DW_CFA_def_cfa: RSP +8
  DW_CFA_nop:
  DW_CFA_nop:
  DW_CFA_nop:

  0xf5be0: CFA=RSP+8: RIP=[CFA-8]
  0xf5be1: CFA=RSP+16: RBP=[CFA-16], RIP=[CFA-8]
  0xf5be4: CFA=RBP+16: RBP=[CFA-16], RIP=[CFA-8]
  0xf5be9: CFA=RSP+8: RBP=[CFA-16], RIP=[CFA-8]

00004314 0000001c 00004318 FDE cie=00000000 pc=000f5bf0...000f5bfa
  Format:       DWARF32
  DW_CFA_advance_loc: 1
  DW_CFA_def_cfa_offset: +16
  DW_CFA_offset: RBP -16
  DW_CFA_advance_loc: 3
  DW_CFA_def_cfa_register: RBP
  DW_CFA_advance_loc: 5
  DW_CFA_def_cfa: RSP +8
  DW_CFA_nop:
  DW_CFA_nop:
  DW_CFA_nop:

  0xf5bf0: CFA=RSP+8: RIP=[CFA-8]
  0xf5bf1: CFA=RSP+16: RBP=[CFA-16], RIP=[CFA-8]
  0xf5bf4: CFA=RBP+16: RBP=[CFA-16], RIP=[CFA-8]
  0xf5bf9: CFA=RSP+8: RBP=[CFA-16], RIP=[CFA-8]

00004334 0000001c 00004338 FDE cie=00000000 pc=000f5c00...000f5c0a
  Format:       DWARF32
  DW_CFA_advance_loc: 1
  DW_CFA_def_cfa_offset: +16
  DW_CFA_offset: RBP -16
  DW_CFA_advance_loc: 3
  DW_CFA_def_cfa_register: RBP
  DW_CFA_advance_loc: 5
  DW_CFA_def_cfa: RSP +8
  DW_CFA_nop:
  DW_CFA_nop:
  DW_CFA_nop:

  0xf5c00: CFA=RSP+8: RIP=[CFA-8]
  0xf5c01: CFA=RSP+16: RBP=[CFA-16], RIP=[CFA-8]
  0xf5c04: CFA=RBP+16: RBP=[CFA-16], RIP=[CFA-8]
  0xf5c09: CFA=RSP+8: RBP=[CFA-16], RIP=[CFA-8]

00004354 0000001c 00004358 FDE cie=00000000 pc=000f5c10...000f5c1a
  Format:       DWARF32
  DW_CFA_advance_loc: 1
  DW_CFA_def_cfa_offset: +16
  DW_CFA_offset: RBP -16
  DW_CFA_advance_loc: 3
  DW_CFA_def_cfa_register: RBP
  DW_CFA_advance_loc: 5
  DW_CFA_def_cfa: RSP +8
  DW_CFA_nop:
  DW_CFA_nop:
  DW_CFA_nop:

  0xf5c10: CFA=RSP+8: RIP=[CFA-8]
  0xf5c11: CFA=RSP+16: RBP=[CFA-16], RIP=[CFA-8]
  0xf5c14: CFA=RBP+16: RBP=[CFA-16], RIP=[CFA-8]
  0xf5c19: CFA=RSP+8: RBP=[CFA-16], RIP=[CFA-8]

00004374 0000001c 00004378 FDE cie=00000000 pc=000f5c20...000f5c2a
  Format:       DWARF32
  DW_CFA_advance_loc: 1
  DW_CFA_def_cfa_offset: +16
  DW_CFA_offset: RBP -16
  DW_CFA_advance_loc: 3
  DW_CFA_def_cfa_register: RBP
  DW_CFA_advance_loc: 5
  DW_CFA_def_cfa: RSP +8
  DW_CFA_nop:
  DW_CFA_nop:
  DW_CFA_nop:

  0xf5c20: CFA=RSP+8: RIP=[CFA-8]
  0xf5c21: CFA=RSP+16: RBP=[CFA-16], RIP=[CFA-8]
  0xf5c24: CFA=RBP+16: RBP=[CFA-16], RIP=[CFA-8]
  0xf5c29: CFA=RSP+8: RBP=[CFA-16], RIP=[CFA-8]

00004394 0000001c 00004398 FDE cie=00000000 pc=000f5c30...000f5c3a
  Format:       DWARF32
  DW_CFA_advance_loc: 1
  DW_CFA_def_cfa_offset: +16
  DW_CFA_offset: RBP -16
  DW_CFA_advance_loc: 3
  DW_CFA_def_cfa_register: RBP
  DW_CFA_advance_loc: 5
  DW_CFA_def_cfa: RSP +8
  DW_CFA_nop:
  DW_CFA_nop:
  DW_CFA_nop:

  0xf5c30: CFA=RSP+8: RIP=[CFA-8]
  0xf5c31: CFA=RSP+16: RBP=[CFA-16], RIP=[CFA-8]
  0xf5c34: CFA=RBP+16: RBP=[CFA-16], RIP=[CFA-8]
  0xf5c39: CFA=RSP+8: RBP=[CFA-16], RIP=[CFA-8]

000043b4 0000001c 000043b8 FDE cie=00000000 pc=000f5c40...000f5c4a
  Format:       DWARF32
  DW_CFA_advance_loc: 1
  DW_CFA_def_cfa_offset: +16
  DW_CFA_offset: RBP -16
  DW_CFA_advance_loc: 3
  DW_CFA_def_cfa_register: RBP
  DW_CFA_advance_loc: 5
  DW_CFA_def_cfa: RSP +8
  DW_CFA_nop:
  DW_CFA_nop:
  DW_CFA_nop:

  0xf5c40: CFA=RSP+8: RIP=[CFA-8]
  0xf5c41: CFA=RSP+16: RBP=[CFA-16], RIP=[CFA-8]
  0xf5c44: CFA=RBP+16: RBP=[CFA-16], RIP=[CFA-8]
  0xf5c49: CFA=RSP+8: RBP=[CFA-16], RIP=[CFA-8]

000043d4 0000001c 000043d8 FDE cie=00000000 pc=000f5c50...000f5c5a
  Format:       DWARF32
  DW_CFA_advance_loc: 1
  DW_CFA_def_cfa_offset: +16
  DW_CFA_offset: RBP -16
  DW_CFA_advance_loc: 3
  DW_CFA_def_cfa_register: RBP
  DW_CFA_advance_loc: 5
  DW_CFA_def_cfa: RSP +8
  DW_CFA_nop:
  DW_CFA_nop:
  DW_CFA_nop:

  0xf5c50: CFA=RSP+8: RIP=[CFA-8]
  0xf5c51: CFA=RSP+16: RBP=[CFA-16], RIP=[CFA-8]
  0xf5c54: CFA=RBP+16: RBP=[CFA-16], RIP=[CFA-8]
  0xf5c59: CFA=RSP+8: RBP=[CFA-16], RIP=[CFA-8]

000043f4 0000001c 000043f8 FDE cie=00000000 pc=000f5c60...000f5c6a
  Format:       DWARF32
  DW_CFA_advance_loc: 1
  DW_CFA_def_cfa_offset: +16
  DW_CFA_offset: RBP -16
  DW_CFA_advance_loc: 3
  DW_CFA_def_cfa_register: RBP
  DW_CFA_advance_loc: 5
  DW_CFA_def_cfa: RSP +8
  DW_CFA_nop:
  DW_CFA_nop:
  DW_CFA_nop:

  0xf5c60: CFA=RSP+8: RIP=[CFA-8]
  0xf5c61: CFA=RSP+16: RBP=[CFA-16], RIP=[CFA-8]
  0xf5c64: CFA=RBP+16: RBP=[CFA-16], RIP=[CFA-8]
  0xf5c69: CFA=RSP+8: RBP=[CFA-16], RIP=[CFA-8]

00004414 0000001c 00004418 FDE cie=00000000 pc=000f5c70...000f5c7a
  Format:       DWARF32
  DW_CFA_advance_loc: 1
  DW_CFA_def_cfa_offset: +16
  DW_CFA_offset: RBP -16
  DW_CFA_advance_loc: 3
  DW_CFA_def_cfa_register: RBP
  DW_CFA_advance_loc: 5
  DW_CFA_def_cfa: RSP +8
  DW_CFA_nop:
  DW_CFA_nop:
  DW_CFA_nop:

  0xf5c70: CFA=RSP+8: RIP=[CFA-8]
  0xf5c71: CFA=RSP+16: RBP=[CFA-16], RIP=[CFA-8]
  0xf5c74: CFA=RBP+16: RBP=[CFA-16], RIP=[CFA-8]
  0xf5c79: CFA=RSP+8: RBP=[CFA-16], RIP=[CFA-8]

00004434 0000001c 00004438 FDE cie=00000000 pc=000f5c80...000f5c8a
  Format:       DWARF32
  DW_CFA_advance_loc: 1
  DW_CFA_def_cfa_offset: +16
  DW_CFA_offset: RBP -16
  DW_CFA_advance_loc: 3
  DW_CFA_def_cfa_register: RBP
  DW_CFA_advance_loc: 5
  DW_CFA_def_cfa: RSP +8
  DW_CFA_nop:
  DW_CFA_nop:
  DW_CFA_nop:

  0xf5c80: CFA=RSP+8: RIP=[CFA-8]
  0xf5c81: CFA=RSP+16: RBP=[CFA-16], RIP=[CFA-8]
  0xf5c84: CFA=RBP+16: RBP=[CFA-16], RIP=[CFA-8]
  0xf5c89: CFA=RSP+8: RBP=[CFA-16], RIP=[CFA-8]

00004454 0000001c 00004458 FDE cie=00000000 pc=000f5c90...000f5c9a
  Format:       DWARF32
  DW_CFA_advance_loc: 1
  DW_CFA_def_cfa_offset: +16
  DW_CFA_offset: RBP -16
  DW_CFA_advance_loc: 3
  DW_CFA_def_cfa_register: RBP
  DW_CFA_advance_loc: 5
  DW_CFA_def_cfa: RSP +8
  DW_CFA_nop:
  DW_CFA_nop:
  DW_CFA_nop:

  0xf5c90: CFA=RSP+8: RIP=[CFA-8]
  0xf5c91: CFA=RSP+16: RBP=[CFA-16], RIP=[CFA-8]
  0xf5c94: CFA=RBP+16: RBP=[CFA-16], RIP=[CFA-8]
  0xf5c99: CFA=RSP+8: RBP=[CFA-16], RIP=[CFA-8]

00004474 0000001c 00004478 FDE cie=00000000 pc=000f5ca0...000f5caa
  Format:       DWARF32
  DW_CFA_advance_loc: 1
  DW_CFA_def_cfa_offset: +16
  DW_CFA_offset: RBP -16
  DW_CFA_advance_loc: 3
  DW_CFA_def_cfa_register: RBP
  DW_CFA_advance_loc: 5
  DW_CFA_def_cfa: RSP +8
  DW_CFA_nop:
  DW_CFA_nop:
  DW_CFA_nop:

  0xf5ca0: CFA=RSP+8: RIP=[CFA-8]
  0xf5ca1: CFA=RSP+16: RBP=[CFA-16], RIP=[CFA-8]
  0xf5ca4: CFA=RBP+16: RBP=[CFA-16], RIP=[CFA-8]
  0xf5ca9: CFA=RSP+8: RBP=[CFA-16], RIP=[CFA-8]

00004494 0000001c 00004498 FDE cie=00000000 pc=000f5cb0...000f5cba
  Format:       DWARF32
  DW_CFA_advance_loc: 1
  DW_CFA_def_cfa_offset: +16
  DW_CFA_offset: RBP -16
  DW_CFA_advance_loc: 3
  DW_CFA_def_cfa_register: RBP
  DW_CFA_advance_loc: 5
  DW_CFA_def_cfa: RSP +8
  DW_CFA_nop:
  DW_CFA_nop:
  DW_CFA_nop:

  0xf5cb0: CFA=RSP+8: RIP=[CFA-8]
  0xf5cb1: CFA=RSP+16: RBP=[CFA-16], RIP=[CFA-8]
  0xf5cb4: CFA=RBP+16: RBP=[CFA-16], RIP=[CFA-8]
  0xf5cb9: CFA=RSP+8: RBP=[CFA-16], RIP=[CFA-8]

000044b4 0000001c 000044b8 FDE cie=00000000 pc=000f5cc0...000f5cca
  Format:       DWARF32
  DW_CFA_advance_loc: 1
  DW_CFA_def_cfa_offset: +16
  DW_CFA_offset: RBP -16
  DW_CFA_advance_loc: 3
  DW_CFA_def_cfa_register: RBP
  DW_CFA_advance_loc: 5
  DW_CFA_def_cfa: RSP +8
  DW_CFA_nop:
  DW_CFA_nop:
  DW_CFA_nop:

  0xf5cc0: CFA=RSP+8: RIP=[CFA-8]
  0xf5cc1: CFA=RSP+16: RBP=[CFA-16], RIP=[CFA-8]
  0xf5cc4: CFA=RBP+16: RBP=[CFA-16], RIP=[CFA-8]
  0xf5cc9: CFA=RSP+8: RBP=[CFA-16], RIP=[CFA-8]

000044d4 0000001c 000044d8 FDE cie=00000000 pc=000f5cd0...000f5cda
  Format:       DWARF32
  DW_CFA_advance_loc: 1
  DW_CFA_def_cfa_offset: +16
  DW_CFA_offset: RBP -16
  DW_CFA_advance_loc: 3
  DW_CFA_def_cfa_register: RBP
  DW_CFA_advance_loc: 5
  DW_CFA_def_cfa: RSP +8
  DW_CFA_nop:
  DW_CFA_nop:
  DW_CFA_nop:

  0xf5cd0: CFA=RSP+8: RIP=[CFA-8]
  0xf5cd1: CFA=RSP+16: RBP=[CFA-16], RIP=[CFA-8]
  0xf5cd4: CFA=RBP+16: RBP=[CFA-16], RIP=[CFA-8]
  0xf5cd9: CFA=RSP+8: RBP=[CFA-16], RIP=[CFA-8]

000044f4 0000001c 000044f8 FDE cie=00000000 pc=000f5ce0...000f5cea
  Format:       DWARF32
  DW_CFA_advance_loc: 1
  DW_CFA_def_cfa_offset: +16
  DW_CFA_offset: RBP -16
  DW_CFA_advance_loc: 3
  DW_CFA_def_cfa_register: RBP
  DW_CFA_advance_loc: 5
  DW_CFA_def_cfa: RSP +8
  DW_CFA_nop:
  DW_CFA_nop:
  DW_CFA_nop:

  0xf5ce0: CFA=RSP+8: RIP=[CFA-8]
  0xf5ce1: CFA=RSP+16: RBP=[CFA-16], RIP=[CFA-8]
  0xf5ce4: CFA=RBP+16: RBP=[CFA-16], RIP=[CFA-8]
  0xf5ce9: CFA=RSP+8: RBP=[CFA-16], RIP=[CFA-8]

00004514 0000001c 00004518 FDE cie=00000000 pc=000f5cf0...000f5cfa
  Format:       DWARF32
  DW_CFA_advance_loc: 1
  DW_CFA_def_cfa_offset: +16
  DW_CFA_offset: RBP -16
  DW_CFA_advance_loc: 3
  DW_CFA_def_cfa_register: RBP
  DW_CFA_advance_loc: 5
  DW_CFA_def_cfa: RSP +8
  DW_CFA_nop:
  DW_CFA_nop:
  DW_CFA_nop:

  0xf5cf0: CFA=RSP+8: RIP=[CFA-8]
  0xf5cf1: CFA=RSP+16: RBP=[CFA-16], RIP=[CFA-8]
  0xf5cf4: CFA=RBP+16: RBP=[CFA-16], RIP=[CFA-8]
  0xf5cf9: CFA=RSP+8: RBP=[CFA-16], RIP=[CFA-8]

00004534 0000001c 00004538 FDE cie=00000000 pc=000f5d00...000f5d0a
  Format:       DWARF32
  DW_CFA_advance_loc: 1
  DW_CFA_def_cfa_offset: +16
  DW_CFA_offset: RBP -16
  DW_CFA_advance_loc: 3
  DW_CFA_def_cfa_register: RBP
  DW_CFA_advance_loc: 5
  DW_CFA_def_cfa: RSP +8
  DW_CFA_nop:
  DW_CFA_nop:
  DW_CFA_nop:

  0xf5d00: CFA=RSP+8: RIP=[CFA-8]
  0xf5d01: CFA=RSP+16: RBP=[CFA-16], RIP=[CFA-8]
  0xf5d04: CFA=RBP+16: RBP=[CFA-16], RIP=[CFA-8]
  0xf5d09: CFA=RSP+8: RBP=[CFA-16], RIP=[CFA-8]

00004554 0000001c 00004558 FDE cie=00000000 pc=000f5d10...000f5d1a
  Format:       DWARF32
  DW_CFA_advance_loc: 1
  DW_CFA_def_cfa_offset: +16
  DW_CFA_offset: RBP -16
  DW_CFA_advance_loc: 3
  DW_CFA_def_cfa_register: RBP
  DW_CFA_advance_loc: 5
  DW_CFA_def_cfa: RSP +8
  DW_CFA_nop:
  DW_CFA_nop:
  DW_CFA_nop:

  0xf5d10: CFA=RSP+8: RIP=[CFA-8]
  0xf5d11: CFA=RSP+16: RBP=[CFA-16], RIP=[CFA-8]
  0xf5d14: CFA=RBP+16: RBP=[CFA-16], RIP=[CFA-8]
  0xf5d19: CFA=RSP+8: RBP=[CFA-16], RIP=[CFA-8]

00004574 0000001c 00004578 FDE cie=00000000 pc=000f5d20...000f5d2a
  Format:       DWARF32
  DW_CFA_advance_loc: 1
  DW_CFA_def_cfa_offset: +16
  DW_CFA_offset: RBP -16
  DW_CFA_advance_loc: 3
  DW_CFA_def_cfa_register: RBP
  DW_CFA_advance_loc: 5
  DW_CFA_def_cfa: RSP +8
  DW_CFA_nop:
  DW_CFA_nop:
  DW_CFA_nop:

  0xf5d20: CFA=RSP+8: RIP=[CFA-8]
  0xf5d21: CFA=RSP+16: RBP=[CFA-16], RIP=[CFA-8]
  0xf5d24: CFA=RBP+16: RBP=[CFA-16], RIP=[CFA-8]
  0xf5d29: CFA=RSP+8: RBP=[CFA-16], RIP=[CFA-8]

00004594 0000001c 00004598 FDE cie=00000000 pc=000f5d30...000f5d3a
  Format:       DWARF32
  DW_CFA_advance_loc: 1
  DW_CFA_def_cfa_offset: +16
  DW_CFA_offset: RBP -16
  DW_CFA_advance_loc: 3
  DW_CFA_def_cfa_register: RBP
  DW_CFA_advance_loc: 5
  DW_CFA_def_cfa: RSP +8
  DW_CFA_nop:
  DW_CFA_nop:
  DW_CFA_nop:

  0xf5d30: CFA=RSP+8: RIP=[CFA-8]
  0xf5d31: CFA=RSP+16: RBP=[CFA-16], RIP=[CFA-8]
  0xf5d34: CFA=RBP+16: RBP=[CFA-16], RIP=[CFA-8]
  0xf5d39: CFA=RSP+8: RBP=[CFA-16], RIP=[CFA-8]

000045b4 0000001c 000045b8 FDE cie=00000000 pc=000f5d40...000f5d4a
  Format:       DWARF32
  DW_CFA_advance_loc: 1
  DW_CFA_def_cfa_offset: +16
  DW_CFA_offset: RBP -16
  DW_CFA_advance_loc: 3
  DW_CFA_def_cfa_register: RBP
  DW_CFA_advance_loc: 5
  DW_CFA_def_cfa: RSP +8
  DW_CFA_nop:
  DW_CFA_nop:
  DW_CFA_nop:

  0xf5d40: CFA=RSP+8: RIP=[CFA-8]
  0xf5d41: CFA=RSP+16: RBP=[CFA-16], RIP=[CFA-8]
  0xf5d44: CFA=RBP+16: RBP=[CFA-16], RIP=[CFA-8]
  0xf5d49: CFA=RSP+8: RBP=[CFA-16], RIP=[CFA-8]

000045d4 0000001c 000045d8 FDE cie=00000000 pc=000f5d50...000f5d5a
  Format:       DWARF32
  DW_CFA_advance_loc: 1
  DW_CFA_def_cfa_offset: +16
  DW_CFA_offset: RBP -16
  DW_CFA_advance_loc: 3
  DW_CFA_def_cfa_register: RBP
  DW_CFA_advance_loc: 5
  DW_CFA_def_cfa: RSP +8
  DW_CFA_nop:
  DW_CFA_nop:
  DW_CFA_nop:

  0xf5d50: CFA=RSP+8: RIP=[CFA-8]
  0xf5d51: CFA=RSP+16: RBP=[CFA-16], RIP=[CFA-8]
  0xf5d54: CFA=RBP+16: RBP=[CFA-16], RIP=[CFA-8]
  0xf5d59: CFA=RSP+8: RBP=[CFA-16], RIP=[CFA-8]

000045f4 0000001c 000045f8 FDE cie=00000000 pc=000f5d60...000f5d6a
  Format:       DWARF32
  DW_CFA_advance_loc: 1
  DW_CFA_def_cfa_offset: +16
  DW_CFA_offset: RBP -16
  DW_CFA_advance_loc: 3
  DW_CFA_def_cfa_register: RBP
  DW_CFA_advance_loc: 5
  DW_CFA_def_cfa: RSP +8
  DW_CFA_nop:
  DW_CFA_nop:
  DW_CFA_nop:

  0xf5d60: CFA=RSP+8: RIP=[CFA-8]
  0xf5d61: CFA=RSP+16: RBP=[CFA-16], RIP=[CFA-8]
  0xf5d64: CFA=RBP+16: RBP=[CFA-16], RIP=[CFA-8]
  0xf5d69: CFA=RSP+8: RBP=[CFA-16], RIP=[CFA-8]

00004614 0000001c 00004618 FDE cie=00000000 pc=000f5d70...000f5d7a
  Format:       DWARF32
  DW_CFA_advance_loc: 1
  DW_CFA_def_cfa_offset: +16
  DW_CFA_offset: RBP -16
  DW_CFA_advance_loc: 3
  DW_CFA_def_cfa_register: RBP
  DW_CFA_advance_loc: 5
  DW_CFA_def_cfa: RSP +8
  DW_CFA_nop:
  DW_CFA_nop:
  DW_CFA_nop:

  0xf5d70: CFA=RSP+8: RIP=[CFA-8]
  0xf5d71: CFA=RSP+16: RBP=[CFA-16], RIP=[CFA-8]
  0xf5d74: CFA=RBP+16: RBP=[CFA-16], RIP=[CFA-8]
  0xf5d79: CFA=RSP+8: RBP=[CFA-16], RIP=[CFA-8]

00004634 0000001c 00004638 FDE cie=00000000 pc=000f5d80...000f5d8a
  Format:       DWARF32
  DW_CFA_advance_loc: 1
  DW_CFA_def_cfa_offset: +16
  DW_CFA_offset: RBP -16
  DW_CFA_advance_loc: 3
  DW_CFA_def_cfa_register: RBP
  DW_CFA_advance_loc: 5
  DW_CFA_def_cfa: RSP +8
  DW_CFA_nop:
  DW_CFA_nop:
  DW_CFA_nop:

  0xf5d80: CFA=RSP+8: RIP=[CFA-8]
  0xf5d81: CFA=RSP+16: RBP=[CFA-16], RIP=[CFA-8]
  0xf5d84: CFA=RBP+16: RBP=[CFA-16], RIP=[CFA-8]
  0xf5d89: CFA=RSP+8: RBP=[CFA-16], RIP=[CFA-8]

00004654 0000001c 00004658 FDE cie=00000000 pc=000f5d90...000f5d9a
  Format:       DWARF32
  DW_CFA_advance_loc: 1
  DW_CFA_def_cfa_offset: +16
  DW_CFA_offset: RBP -16
  DW_CFA_advance_loc: 3
  DW_CFA_def_cfa_register: RBP
  DW_CFA_advance_loc: 5
  DW_CFA_def_cfa: RSP +8
  DW_CFA_nop:
  DW_CFA_nop:
  DW_CFA_nop:

  0xf5d90: CFA=RSP+8: RIP=[CFA-8]
  0xf5d91: CFA=RSP+16: RBP=[CFA-16], RIP=[CFA-8]
  0xf5d94: CFA=RBP+16: RBP=[CFA-16], RIP=[CFA-8]
  0xf5d99: CFA=RSP+8: RBP=[CFA-16], RIP=[CFA-8]

00004674 0000001c 00004678 FDE cie=00000000 pc=000f5da0...000f5daa
  Format:       DWARF32
  DW_CFA_advance_loc: 1
  DW_CFA_def_cfa_offset: +16
  DW_CFA_offset: RBP -16
  DW_CFA_advance_loc: 3
  DW_CFA_def_cfa_register: RBP
  DW_CFA_advance_loc: 5
  DW_CFA_def_cfa: RSP +8
  DW_CFA_nop:
  DW_CFA_nop:
  DW_CFA_nop:

  0xf5da0: CFA=RSP+8: RIP=[CFA-8]
  0xf5da1: CFA=RSP+16: RBP=[CFA-16], RIP=[CFA-8]
  0xf5da4: CFA=RBP+16: RBP=[CFA-16], RIP=[CFA-8]
  0xf5da9: CFA=RSP+8: RBP=[CFA-16], RIP=[CFA-8]

00004694 0000001c 00004698 FDE cie=00000000 pc=000f5db0...000f5dba
  Format:       DWARF32
  DW_CFA_advance_loc: 1
  DW_CFA_def_cfa_offset: +16
  DW_CFA_offset: RBP -16
  DW_CFA_advance_loc: 3
  DW_CFA_def_cfa_register: RBP
  DW_CFA_advance_loc: 5
  DW_CFA_def_cfa: RSP +8
  DW_CFA_nop:
  DW_CFA_nop:
  DW_CFA_nop:

  0xf5db0: CFA=RSP+8: RIP=[CFA-8]
  0xf5db1: CFA=RSP+16: RBP=[CFA-16], RIP=[CFA-8]
  0xf5db4: CFA=RBP+16: RBP=[CFA-16], RIP=[CFA-8]
  0xf5db9: CFA=RSP+8: RBP=[CFA-16], RIP=[CFA-8]

000046b4 0000001c 000046b8 FDE cie=00000000 pc=000f5dc0...000f5dca
  Format:       DWARF32
  DW_CFA_advance_loc: 1
  DW_CFA_def_cfa_offset: +16
  DW_CFA_offset: RBP -16
  DW_CFA_advance_loc: 3
  DW_CFA_def_cfa_register: RBP
  DW_CFA_advance_loc: 5
  DW_CFA_def_cfa: RSP +8
  DW_CFA_nop:
  DW_CFA_nop:
  DW_CFA_nop:

  0xf5dc0: CFA=RSP+8: RIP=[CFA-8]
  0xf5dc1: CFA=RSP+16: RBP=[CFA-16], RIP=[CFA-8]
  0xf5dc4: CFA=RBP+16: RBP=[CFA-16], RIP=[CFA-8]
  0xf5dc9: CFA=RSP+8: RBP=[CFA-16], RIP=[CFA-8]

000046d4 0000001c 000046d8 FDE cie=00000000 pc=000f5dd0...000f5dda
  Format:       DWARF32
  DW_CFA_advance_loc: 1
  DW_CFA_def_cfa_offset: +16
  DW_CFA_offset: RBP -16
  DW_CFA_advance_loc: 3
  DW_CFA_def_cfa_register: RBP
  DW_CFA_advance_loc: 5
  DW_CFA_def_cfa: RSP +8
  DW_CFA_nop:
  DW_CFA_nop:
  DW_CFA_nop:

  0xf5dd0: CFA=RSP+8: RIP=[CFA-8]
  0xf5dd1: CFA=RSP+16: RBP=[CFA-16], RIP=[CFA-8]
  0xf5dd4: CFA=RBP+16: RBP=[CFA-16], RIP=[CFA-8]
  0xf5dd9: CFA=RSP+8: RBP=[CFA-16], RIP=[CFA-8]

000046f4 0000001c 000046f8 FDE cie=00000000 pc=000f5de0...000f5dea
  Format:       DWARF32
  DW_CFA_advance_loc: 1
  DW_CFA_def_cfa_offset: +16
  DW_CFA_offset: RBP -16
  DW_CFA_advance_loc: 3
  DW_CFA_def_cfa_register: RBP
  DW_CFA_advance_loc: 5
  DW_CFA_def_cfa: RSP +8
  DW_CFA_nop:
  DW_CFA_nop:
  DW_CFA_nop:

  0xf5de0: CFA=RSP+8: RIP=[CFA-8]
  0xf5de1: CFA=RSP+16: RBP=[CFA-16], RIP=[CFA-8]
  0xf5de4: CFA=RBP+16: RBP=[CFA-16], RIP=[CFA-8]
  0xf5de9: CFA=RSP+8: RBP=[CFA-16], RIP=[CFA-8]

00004714 0000001c 00004718 FDE cie=00000000 pc=000f5df0...000f5dfa
  Format:       DWARF32
  DW_CFA_advance_loc: 1
  DW_CFA_def_cfa_offset: +16
  DW_CFA_offset: RBP -16
  DW_CFA_advance_loc: 3
  DW_CFA_def_cfa_register: RBP
  DW_CFA_advance_loc: 5
  DW_CFA_def_cfa: RSP +8
  DW_CFA_nop:
  DW_CFA_nop:
  DW_CFA_nop:

  0xf5df0: CFA=RSP+8: RIP=[CFA-8]
  0xf5df1: CFA=RSP+16: RBP=[CFA-16], RIP=[CFA-8]
  0xf5df4: CFA=RBP+16: RBP=[CFA-16], RIP=[CFA-8]
  0xf5df9: CFA=RSP+8: RBP=[CFA-16], RIP=[CFA-8]

00004734 0000001c 00004738 FDE cie=00000000 pc=000f5e00...000f5e0a
  Format:       DWARF32
  DW_CFA_advance_loc: 1
  DW_CFA_def_cfa_offset: +16
  DW_CFA_offset: RBP -16
  DW_CFA_advance_loc: 3
  DW_CFA_def_cfa_register: RBP
  DW_CFA_advance_loc: 5
  DW_CFA_def_cfa: RSP +8
  DW_CFA_nop:
  DW_CFA_nop:
  DW_CFA_nop:

  0xf5e00: CFA=RSP+8: RIP=[CFA-8]
  0xf5e01: CFA=RSP+16: RBP=[CFA-16], RIP=[CFA-8]
  0xf5e04: CFA=RBP+16: RBP=[CFA-16], RIP=[CFA-8]
  0xf5e09: CFA=RSP+8: RBP=[CFA-16], RIP=[CFA-8]

00004754 0000001c 00004758 FDE cie=00000000 pc=000f5e10...000f5e1a
  Format:       DWARF32
  DW_CFA_advance_loc: 1
  DW_CFA_def_cfa_offset: +16
  DW_CFA_offset: RBP -16
  DW_CFA_advance_loc: 3
  DW_CFA_def_cfa_register: RBP
  DW_CFA_advance_loc: 5
  DW_CFA_def_cfa: RSP +8
  DW_CFA_nop:
  DW_CFA_nop:
  DW_CFA_nop:

  0xf5e10: CFA=RSP+8: RIP=[CFA-8]
  0xf5e11: CFA=RSP+16: RBP=[CFA-16], RIP=[CFA-8]
  0xf5e14: CFA=RBP+16: RBP=[CFA-16], RIP=[CFA-8]
  0xf5e19: CFA=RSP+8: RBP=[CFA-16], RIP=[CFA-8]

00004774 0000001c 00004778 FDE cie=00000000 pc=000f5e20...000f5e2a
  Format:       DWARF32
  DW_CFA_advance_loc: 1
  DW_CFA_def_cfa_offset: +16
  DW_CFA_offset: RBP -16
  DW_CFA_advance_loc: 3
  DW_CFA_def_cfa_register: RBP
  DW_CFA_advance_loc: 5
  DW_CFA_def_cfa: RSP +8
  DW_CFA_nop:
  DW_CFA_nop:
  DW_CFA_nop:

  0xf5e20: CFA=RSP+8: RIP=[CFA-8]
  0xf5e21: CFA=RSP+16: RBP=[CFA-16], RIP=[CFA-8]
  0xf5e24: CFA=RBP+16: RBP=[CFA-16], RIP=[CFA-8]
  0xf5e29: CFA=RSP+8: RBP=[CFA-16], RIP=[CFA-8]

00004794 0000001c 00004798 FDE cie=00000000 pc=000f5e30...000f5e3a
  Format:       DWARF32
  DW_CFA_advance_loc: 1
  DW_CFA_def_cfa_offset: +16
  DW_CFA_offset: RBP -16
  DW_CFA_advance_loc: 3
  DW_CFA_def_cfa_register: RBP
  DW_CFA_advance_loc: 5
  DW_CFA_def_cfa: RSP +8
  DW_CFA_nop:
  DW_CFA_nop:
  DW_CFA_nop:

  0xf5e30: CFA=RSP+8: RIP=[CFA-8]
  0xf5e31: CFA=RSP+16: RBP=[CFA-16], RIP=[CFA-8]
  0xf5e34: CFA=RBP+16: RBP=[CFA-16], RIP=[CFA-8]
  0xf5e39: CFA=RSP+8: RBP=[CFA-16], RIP=[CFA-8]

000047b4 0000001c 000047b8 FDE cie=00000000 pc=000f5e40...000f5e4a
  Format:       DWARF32
  DW_CFA_advance_loc: 1
  DW_CFA_def_cfa_offset: +16
  DW_CFA_offset: RBP -16
  DW_CFA_advance_loc: 3
  DW_CFA_def_cfa_register: RBP
  DW_CFA_advance_loc: 5
  DW_CFA_def_cfa: RSP +8
  DW_CFA_nop:
  DW_CFA_nop:
  DW_CFA_nop:

  0xf5e40: CFA=RSP+8: RIP=[CFA-8]
  0xf5e41: CFA=RSP+16: RBP=[CFA-16], RIP=[CFA-8]
  0xf5e44: CFA=RBP+16: RBP=[CFA-16], RIP=[CFA-8]
  0xf5e49: CFA=RSP+8: RBP=[CFA-16], RIP=[CFA-8]

000047d4 0000001c 000047d8 FDE cie=00000000 pc=000f5e50...000f5e5a
  Format:       DWARF32
  DW_CFA_advance_loc: 1
  DW_CFA_def_cfa_offset: +16
  DW_CFA_offset: RBP -16
  DW_CFA_advance_loc: 3
  DW_CFA_def_cfa_register: RBP
  DW_CFA_advance_loc: 5
  DW_CFA_def_cfa: RSP +8
  DW_CFA_nop:
  DW_CFA_nop:
  DW_CFA_nop:

  0xf5e50: CFA=RSP+8: RIP=[CFA-8]
  0xf5e51: CFA=RSP+16: RBP=[CFA-16], RIP=[CFA-8]
  0xf5e54: CFA=RBP+16: RBP=[CFA-16], RIP=[CFA-8]
  0xf5e59: CFA=RSP+8: RBP=[CFA-16], RIP=[CFA-8]

000047f4 0000001c 000047f8 FDE cie=00000000 pc=000f5e60...000f5e6a
  Format:       DWARF32
  DW_CFA_advance_loc: 1
  DW_CFA_def_cfa_offset: +16
  DW_CFA_offset: RBP -16
  DW_CFA_advance_loc: 3
  DW_CFA_def_cfa_register: RBP
  DW_CFA_advance_loc: 5
  DW_CFA_def_cfa: RSP +8
  DW_CFA_nop:
  DW_CFA_nop:
  DW_CFA_nop:

  0xf5e60: CFA=RSP+8: RIP=[CFA-8]
  0xf5e61: CFA=RSP+16: RBP=[CFA-16], RIP=[CFA-8]
  0xf5e64: CFA=RBP+16: RBP=[CFA-16], RIP=[CFA-8]
  0xf5e69: CFA=RSP+8: RBP=[CFA-16], RIP=[CFA-8]

00004814 0000001c 00004818 FDE cie=00000000 pc=000f5e70...000f5e7a
  Format:       DWARF32
  DW_CFA_advance_loc: 1
  DW_CFA_def_cfa_offset: +16
  DW_CFA_offset: RBP -16
  DW_CFA_advance_loc: 3
  DW_CFA_def_cfa_register: RBP
  DW_CFA_advance_loc: 5
  DW_CFA_def_cfa: RSP +8
  DW_CFA_nop:
  DW_CFA_nop:
  DW_CFA_nop:

  0xf5e70: CFA=RSP+8: RIP=[CFA-8]
  0xf5e71: CFA=RSP+16: RBP=[CFA-16], RIP=[CFA-8]
  0xf5e74: CFA=RBP+16: RBP=[CFA-16], RIP=[CFA-8]
  0xf5e79: CFA=RSP+8: RBP=[CFA-16], RIP=[CFA-8]

00004834 0000001c 00004838 FDE cie=00000000 pc=000f5e80...000f5e8a
  Format:       DWARF32
  DW_CFA_advance_loc: 1
  DW_CFA_def_cfa_offset: +16
  DW_CFA_offset: RBP -16
  DW_CFA_advance_loc: 3
  DW_CFA_def_cfa_register: RBP
  DW_CFA_advance_loc: 5
  DW_CFA_def_cfa: RSP +8
  DW_CFA_nop:
  DW_CFA_nop:
  DW_CFA_nop:

  0xf5e80: CFA=RSP+8: RIP=[CFA-8]
  0xf5e81: CFA=RSP+16: RBP=[CFA-16], RIP=[CFA-8]
  0xf5e84: CFA=RBP+16: RBP=[CFA-16], RIP=[CFA-8]
  0xf5e89: CFA=RSP+8: RBP=[CFA-16], RIP=[CFA-8]

00004854 0000001c 00004858 FDE cie=00000000 pc=000f5e90...000f5e9a
  Format:       DWARF32
  DW_CFA_advance_loc: 1
  DW_CFA_def_cfa_offset: +16
  DW_CFA_offset: RBP -16
  DW_CFA_advance_loc: 3
  DW_CFA_def_cfa_register: RBP
  DW_CFA_advance_loc: 5
  DW_CFA_def_cfa: RSP +8
  DW_CFA_nop:
  DW_CFA_nop:
  DW_CFA_nop:

  0xf5e90: CFA=RSP+8: RIP=[CFA-8]
  0xf5e91: CFA=RSP+16: RBP=[CFA-16], RIP=[CFA-8]
  0xf5e94: CFA=RBP+16: RBP=[CFA-16], RIP=[CFA-8]
  0xf5e99: CFA=RSP+8: RBP=[CFA-16], RIP=[CFA-8]

00004874 0000001c 00004878 FDE cie=00000000 pc=000f5ea0...000f5eaa
  Format:       DWARF32
  DW_CFA_advance_loc: 1
  DW_CFA_def_cfa_offset: +16
  DW_CFA_offset: RBP -16
  DW_CFA_advance_loc: 3
  DW_CFA_def_cfa_register: RBP
  DW_CFA_advance_loc: 5
  DW_CFA_def_cfa: RSP +8
  DW_CFA_nop:
  DW_CFA_nop:
  DW_CFA_nop:

  0xf5ea0: CFA=RSP+8: RIP=[CFA-8]
  0xf5ea1: CFA=RSP+16: RBP=[CFA-16], RIP=[CFA-8]
  0xf5ea4: CFA=RBP+16: RBP=[CFA-16], RIP=[CFA-8]
  0xf5ea9: CFA=RSP+8: RBP=[CFA-16], RIP=[CFA-8]

00004894 0000001c 00004898 FDE cie=00000000 pc=000f5eb0...000f5eba
  Format:       DWARF32
  DW_CFA_advance_loc: 1
  DW_CFA_def_cfa_offset: +16
  DW_CFA_offset: RBP -16
  DW_CFA_advance_loc: 3
  DW_CFA_def_cfa_register: RBP
  DW_CFA_advance_loc: 5
  DW_CFA_def_cfa: RSP +8
  DW_CFA_nop:
  DW_CFA_nop:
  DW_CFA_nop:

  0xf5eb0: CFA=RSP+8: RIP=[CFA-8]
  0xf5eb1: CFA=RSP+16: RBP=[CFA-16], RIP=[CFA-8]
  0xf5eb4: CFA=RBP+16: RBP=[CFA-16], RIP=[CFA-8]
  0xf5eb9: CFA=RSP+8: RBP=[CFA-16], RIP=[CFA-8]

000048b4 0000001c 000048b8 FDE cie=00000000 pc=000f5ec0...000f5eca
  Format:       DWARF32
  DW_CFA_advance_loc: 1
  DW_CFA_def_cfa_offset: +16
  DW_CFA_offset: RBP -16
  DW_CFA_advance_loc: 3
  DW_CFA_def_cfa_register: RBP
  DW_CFA_advance_loc: 5
  DW_CFA_def_cfa: RSP +8
  DW_CFA_nop:
  DW_CFA_nop:
  DW_CFA_nop:

  0xf5ec0: CFA=RSP+8: RIP=[CFA-8]
  0xf5ec1: CFA=RSP+16: RBP=[CFA-16], RIP=[CFA-8]
  0xf5ec4: CFA=RBP+16: RBP=[CFA-16], RIP=[CFA-8]
  0xf5ec9: CFA=RSP+8: RBP=[CFA-16], RIP=[CFA-8]

000048d4 0000001c 000048d8 FDE cie=00000000 pc=000f5ed0...000f5eda
  Format:       DWARF32
  DW_CFA_advance_loc: 1
  DW_CFA_def_cfa_offset: +16
  DW_CFA_offset: RBP -16
  DW_CFA_advance_loc: 3
  DW_CFA_def_cfa_register: RBP
  DW_CFA_advance_loc: 5
  DW_CFA_def_cfa: RSP +8
  DW_CFA_nop:
  DW_CFA_nop:
  DW_CFA_nop:

  0xf5ed0: CFA=RSP+8: RIP=[CFA-8]
  0xf5ed1: CFA=RSP+16: RBP=[CFA-16], RIP=[CFA-8]
  0xf5ed4: CFA=RBP+16: RBP=[CFA-16], RIP=[CFA-8]
  0xf5ed9: CFA=RSP+8: RBP=[CFA-16], RIP=[CFA-8]

000048f4 0000001c 000048f8 FDE cie=00000000 pc=000f5ee0...000f5eea
  Format:       DWARF32
  DW_CFA_advance_loc: 1
  DW_CFA_def_cfa_offset: +16
  DW_CFA_offset: RBP -16
  DW_CFA_advance_loc: 3
  DW_CFA_def_cfa_register: RBP
  DW_CFA_advance_loc: 5
  DW_CFA_def_cfa: RSP +8
  DW_CFA_nop:
  DW_CFA_nop:
  DW_CFA_nop:

  0xf5ee0: CFA=RSP+8: RIP=[CFA-8]
  0xf5ee1: CFA=RSP+16: RBP=[CFA-16], RIP=[CFA-8]
  0xf5ee4: CFA=RBP+16: RBP=[CFA-16], RIP=[CFA-8]
  0xf5ee9: CFA=RSP+8: RBP=[CFA-16], RIP=[CFA-8]

00004914 0000001c 00004918 FDE cie=00000000 pc=000f5ef0...000f5efa
  Format:       DWARF32
  DW_CFA_advance_loc: 1
  DW_CFA_def_cfa_offset: +16
  DW_CFA_offset: RBP -16
  DW_CFA_advance_loc: 3
  DW_CFA_def_cfa_register: RBP
  DW_CFA_advance_loc: 5
  DW_CFA_def_cfa: RSP +8
  DW_CFA_nop:
  DW_CFA_nop:
  DW_CFA_nop:

  0xf5ef0: CFA=RSP+8: RIP=[CFA-8]
  0xf5ef1: CFA=RSP+16: RBP=[CFA-16], RIP=[CFA-8]
  0xf5ef4: CFA=RBP+16: RBP=[CFA-16], RIP=[CFA-8]
  0xf5ef9: CFA=RSP+8: RBP=[CFA-16], RIP=[CFA-8]

00004934 0000001c 00004938 FDE cie=00000000 pc=000f5f00...000f5f0a
  Format:       DWARF32
  DW_CFA_advance_loc: 1
  DW_CFA_def_cfa_offset: +16
  DW_CFA_offset: RBP -16
  DW_CFA_advance_loc: 3
  DW_CFA_def_cfa_register: RBP
  DW_CFA_advance_loc: 5
  DW_CFA_def_cfa: RSP +8
  DW_CFA_nop:
  DW_CFA_nop:
  DW_CFA_nop:

  0xf5f00: CFA=RSP+8: RIP=[CFA-8]
  0xf5f01: CFA=RSP+16: RBP=[CFA-16], RIP=[CFA-8]
  0xf5f04: CFA=RBP+16: RBP=[CFA-16], RIP=[CFA-8]
  0xf5f09: CFA=RSP+8: RBP=[CFA-16], RIP=[CFA-8]

00004954 0000001c 00004958 FDE cie=00000000 pc=000f5f10...000f5f1a
  Format:       DWARF32
  DW_CFA_advance_loc: 1
  DW_CFA_def_cfa_offset: +16
  DW_CFA_offset: RBP -16
  DW_CFA_advance_loc: 3
  DW_CFA_def_cfa_register: RBP
  DW_CFA_advance_loc: 5
  DW_CFA_def_cfa: RSP +8
  DW_CFA_nop:
  DW_CFA_nop:
  DW_CFA_nop:

  0xf5f10: CFA=RSP+8: RIP=[CFA-8]
  0xf5f11: CFA=RSP+16: RBP=[CFA-16], RIP=[CFA-8]
  0xf5f14: CFA=RBP+16: RBP=[CFA-16], RIP=[CFA-8]
  0xf5f19: CFA=RSP+8: RBP=[CFA-16], RIP=[CFA-8]

00004974 0000001c 00004978 FDE cie=00000000 pc=000f5f20...000f5f2a
  Format:       DWARF32
  DW_CFA_advance_loc: 1
  DW_CFA_def_cfa_offset: +16
  DW_CFA_offset: RBP -16
  DW_CFA_advance_loc: 3
  DW_CFA_def_cfa_register: RBP
  DW_CFA_advance_loc: 5
  DW_CFA_def_cfa: RSP +8
  DW_CFA_nop:
  DW_CFA_nop:
  DW_CFA_nop:

  0xf5f20: CFA=RSP+8: RIP=[CFA-8]
  0xf5f21: CFA=RSP+16: RBP=[CFA-16], RIP=[CFA-8]
  0xf5f24: CFA=RBP+16: RBP=[CFA-16], RIP=[CFA-8]
  0xf5f29: CFA=RSP+8: RBP=[CFA-16], RIP=[CFA-8]

00004994 0000001c 00004998 FDE cie=00000000 pc=000f5f30...000f5f3a
  Format:       DWARF32
  DW_CFA_advance_loc: 1
  DW_CFA_def_cfa_offset: +16
  DW_CFA_offset: RBP -16
  DW_CFA_advance_loc: 3
  DW_CFA_def_cfa_register: RBP
  DW_CFA_advance_loc: 5
  DW_CFA_def_cfa: RSP +8
  DW_CFA_nop:
  DW_CFA_nop:
  DW_CFA_nop:

  0xf5f30: CFA=RSP+8: RIP=[CFA-8]
  0xf5f31: CFA=RSP+16: RBP=[CFA-16], RIP=[CFA-8]
  0xf5f34: CFA=RBP+16: RBP=[CFA-16], RIP=[CFA-8]
  0xf5f39: CFA=RSP+8: RBP=[CFA-16], RIP=[CFA-8]

000049b4 0000001c 000049b8 FDE cie=00000000 pc=000f5f40...000f5f4a
  Format:       DWARF32
  DW_CFA_advance_loc: 1
  DW_CFA_def_cfa_offset: +16
  DW_CFA_offset: RBP -16
  DW_CFA_advance_loc: 3
  DW_CFA_def_cfa_register: RBP
  DW_CFA_advance_loc: 5
  DW_CFA_def_cfa: RSP +8
  DW_CFA_nop:
  DW_CFA_nop:
  DW_CFA_nop:

  0xf5f40: CFA=RSP+8: RIP=[CFA-8]
  0xf5f41: CFA=RSP+16: RBP=[CFA-16], RIP=[CFA-8]
  0xf5f44: CFA=RBP+16: RBP=[CFA-16], RIP=[CFA-8]
  0xf5f49: CFA=RSP+8: RBP=[CFA-16], RIP=[CFA-8]

000049d4 0000001c 000049d8 FDE cie=00000000 pc=000f5f50...000f5f5a
  Format:       DWARF32
  DW_CFA_advance_loc: 1
  DW_CFA_def_cfa_offset: +16
  DW_CFA_offset: RBP -16
  DW_CFA_advance_loc: 3
  DW_CFA_def_cfa_register: RBP
  DW_CFA_advance_loc: 5
  DW_CFA_def_cfa: RSP +8
  DW_CFA_nop:
  DW_CFA_nop:
  DW_CFA_nop:

  0xf5f50: CFA=RSP+8: RIP=[CFA-8]
  0xf5f51: CFA=RSP+16: RBP=[CFA-16], RIP=[CFA-8]
  0xf5f54: CFA=RBP+16: RBP=[CFA-16], RIP=[CFA-8]
  0xf5f59: CFA=RSP+8: RBP=[CFA-16], RIP=[CFA-8]

000049f4 0000001c 000049f8 FDE cie=00000000 pc=000f5f60...000f5f6a
  Format:       DWARF32
  DW_CFA_advance_loc: 1
  DW_CFA_def_cfa_offset: +16
  DW_CFA_offset: RBP -16
  DW_CFA_advance_loc: 3
  DW_CFA_def_cfa_register: RBP
  DW_CFA_advance_loc: 5
  DW_CFA_def_cfa: RSP +8
  DW_CFA_nop:
  DW_CFA_nop:
  DW_CFA_nop:

  0xf5f60: CFA=RSP+8: RIP=[CFA-8]
  0xf5f61: CFA=RSP+16: RBP=[CFA-16], RIP=[CFA-8]
  0xf5f64: CFA=RBP+16: RBP=[CFA-16], RIP=[CFA-8]
  0xf5f69: CFA=RSP+8: RBP=[CFA-16], RIP=[CFA-8]

00004a14 0000001c 00004a18 FDE cie=00000000 pc=000f5f70...000f5f7a
  Format:       DWARF32
  DW_CFA_advance_loc: 1
  DW_CFA_def_cfa_offset: +16
  DW_CFA_offset: RBP -16
  DW_CFA_advance_loc: 3
  DW_CFA_def_cfa_register: RBP
  DW_CFA_advance_loc: 5
  DW_CFA_def_cfa: RSP +8
  DW_CFA_nop:
  DW_CFA_nop:
  DW_CFA_nop:

  0xf5f70: CFA=RSP+8: RIP=[CFA-8]
  0xf5f71: CFA=RSP+16: RBP=[CFA-16], RIP=[CFA-8]
  0xf5f74: CFA=RBP+16: RBP=[CFA-16], RIP=[CFA-8]
  0xf5f79: CFA=RSP+8: RBP=[CFA-16], RIP=[CFA-8]

00004a34 0000001c 00004a38 FDE cie=00000000 pc=000f5f80...000f5f8a
  Format:       DWARF32
  DW_CFA_advance_loc: 1
  DW_CFA_def_cfa_offset: +16
  DW_CFA_offset: RBP -16
  DW_CFA_advance_loc: 3
  DW_CFA_def_cfa_register: RBP
  DW_CFA_advance_loc: 5
  DW_CFA_def_cfa: RSP +8
  DW_CFA_nop:
  DW_CFA_nop:
  DW_CFA_nop:

  0xf5f80: CFA=RSP+8: RIP=[CFA-8]
  0xf5f81: CFA=RSP+16: RBP=[CFA-16], RIP=[CFA-8]
  0xf5f84: CFA=RBP+16: RBP=[CFA-16], RIP=[CFA-8]
  0xf5f89: CFA=RSP+8: RBP=[CFA-16], RIP=[CFA-8]

00004a54 0000001c 00004a58 FDE cie=00000000 pc=000f5f90...000f5f9a
  Format:       DWARF32
  DW_CFA_advance_loc: 1
  DW_CFA_def_cfa_offset: +16
  DW_CFA_offset: RBP -16
  DW_CFA_advance_loc: 3
  DW_CFA_def_cfa_register: RBP
  DW_CFA_advance_loc: 5
  DW_CFA_def_cfa: RSP +8
  DW_CFA_nop:
  DW_CFA_nop:
  DW_CFA_nop:

  0xf5f90: CFA=RSP+8: RIP=[CFA-8]
  0xf5f91: CFA=RSP+16: RBP=[CFA-16], RIP=[CFA-8]
  0xf5f94: CFA=RBP+16: RBP=[CFA-16], RIP=[CFA-8]
  0xf5f99: CFA=RSP+8: RBP=[CFA-16], RIP=[CFA-8]

00004a74 0000001c 00004a78 FDE cie=00000000 pc=000f5fa0...000f5faa
  Format:       DWARF32
  DW_CFA_advance_loc: 1
  DW_CFA_def_cfa_offset: +16
  DW_CFA_offset: RBP -16
  DW_CFA_advance_loc: 3
  DW_CFA_def_cfa_register: RBP
  DW_CFA_advance_loc: 5
  DW_CFA_def_cfa: RSP +8
  DW_CFA_nop:
  DW_CFA_nop:
  DW_CFA_nop:

  0xf5fa0: CFA=RSP+8: RIP=[CFA-8]
  0xf5fa1: CFA=RSP+16: RBP=[CFA-16], RIP=[CFA-8]
  0xf5fa4: CFA=RBP+16: RBP=[CFA-16], RIP=[CFA-8]
  0xf5fa9: CFA=RSP+8: RBP=[CFA-16], RIP=[CFA-8]

00004a94 0000001c 00004a98 FDE cie=00000000 pc=000f5fb0...000f5fba
  Format:       DWARF32
  DW_CFA_advance_loc: 1
  DW_CFA_def_cfa_offset: +16
  DW_CFA_offset: RBP -16
  DW_CFA_advance_loc: 3
  DW_CFA_def_cfa_register: RBP
  DW_CFA_advance_loc: 5
  DW_CFA_def_cfa: RSP +8
  DW_CFA_nop:
  DW_CFA_nop:
  DW_CFA_nop:

  0xf5fb0: CFA=RSP+8: RIP=[CFA-8]
  0xf5fb1: CFA=RSP+16: RBP=[CFA-16], RIP=[CFA-8]
  0xf5fb4: CFA=RBP+16: RBP=[CFA-16], RIP=[CFA-8]
  0xf5fb9: CFA=RSP+8: RBP=[CFA-16], RIP=[CFA-8]

00004ab4 0000001c 00004ab8 FDE cie=00000000 pc=000f5fc0...000f5fca
  Format:       DWARF32
  DW_CFA_advance_loc: 1
  DW_CFA_def_cfa_offset: +16
  DW_CFA_offset: RBP -16
  DW_CFA_advance_loc: 3
  DW_CFA_def_cfa_register: RBP
  DW_CFA_advance_loc: 5
  DW_CFA_def_cfa: RSP +8
  DW_CFA_nop:
  DW_CFA_nop:
  DW_CFA_nop:

  0xf5fc0: CFA=RSP+8: RIP=[CFA-8]
  0xf5fc1: CFA=RSP+16: RBP=[CFA-16], RIP=[CFA-8]
  0xf5fc4: CFA=RBP+16: RBP=[CFA-16], RIP=[CFA-8]
  0xf5fc9: CFA=RSP+8: RBP=[CFA-16], RIP=[CFA-8]

00004ad4 0000001c 00004ad8 FDE cie=00000000 pc=000f5fd0...000f5fda
  Format:       DWARF32
  DW_CFA_advance_loc: 1
  DW_CFA_def_cfa_offset: +16
  DW_CFA_offset: RBP -16
  DW_CFA_advance_loc: 3
  DW_CFA_def_cfa_register: RBP
  DW_CFA_advance_loc: 5
  DW_CFA_def_cfa: RSP +8
  DW_CFA_nop:
  DW_CFA_nop:
  DW_CFA_nop:

  0xf5fd0: CFA=RSP+8: RIP=[CFA-8]
  0xf5fd1: CFA=RSP+16: RBP=[CFA-16], RIP=[CFA-8]
  0xf5fd4: CFA=RBP+16: RBP=[CFA-16], RIP=[CFA-8]
  0xf5fd9: CFA=RSP+8: RBP=[CFA-16], RIP=[CFA-8]

00004af4 0000001c 00004af8 FDE cie=00000000 pc=000f5fe0...000f5fea
  Format:       DWARF32
  DW_CFA_advance_loc: 1
  DW_CFA_def_cfa_offset: +16
  DW_CFA_offset: RBP -16
  DW_CFA_advance_loc: 3
  DW_CFA_def_cfa_register: RBP
  DW_CFA_advance_loc: 5
  DW_CFA_def_cfa: RSP +8
  DW_CFA_nop:
  DW_CFA_nop:
  DW_CFA_nop:

  0xf5fe0: CFA=RSP+8: RIP=[CFA-8]
  0xf5fe1: CFA=RSP+16: RBP=[CFA-16], RIP=[CFA-8]
  0xf5fe4: CFA=RBP+16: RBP=[CFA-16], RIP=[CFA-8]
  0xf5fe9: CFA=RSP+8: RBP=[CFA-16], RIP=[CFA-8]

00004b14 0000001c 00004b18 FDE cie=00000000 pc=000f5ff0...000f5ffa
  Format:       DWARF32
  DW_CFA_advance_loc: 1
  DW_CFA_def_cfa_offset: +16
  DW_CFA_offset: RBP -16
  DW_CFA_advance_loc: 3
  DW_CFA_def_cfa_register: RBP
  DW_CFA_advance_loc: 5
  DW_CFA_def_cfa: RSP +8
  DW_CFA_nop:
  DW_CFA_nop:
  DW_CFA_nop:

  0xf5ff0: CFA=RSP+8: RIP=[CFA-8]
  0xf5ff1: CFA=RSP+16: RBP=[CFA-16], RIP=[CFA-8]
  0xf5ff4: CFA=RBP+16: RBP=[CFA-16], RIP=[CFA-8]
  0xf5ff9: CFA=RSP+8: RBP=[CFA-16], RIP=[CFA-8]

00004b34 0000001c 00004b38 FDE cie=00000000 pc=000f6000...000f600a
  Format:       DWARF32
  DW_CFA_advance_loc: 1
  DW_CFA_def_cfa_offset: +16
  DW_CFA_offset: RBP -16
  DW_CFA_advance_loc: 3
  DW_CFA_def_cfa_register: RBP
  DW_CFA_advance_loc: 5
  DW_CFA_def_cfa: RSP +8
  DW_CFA_nop:
  DW_CFA_nop:
  DW_CFA_nop:

  0xf6000: CFA=RSP+8: RIP=[CFA-8]
  0xf6001: CFA=RSP+16: RBP=[CFA-16], RIP=[CFA-8]
  0xf6004: CFA=RBP+16: RBP=[CFA-16], RIP=[CFA-8]
  0xf6009: CFA=RSP+8: RBP=[CFA-16], RIP=[CFA-8]

00004b54 0000001c 00004b58 FDE cie=00000000 pc=000f6010...000f601a
  Format:       DWARF32
  DW_CFA_advance_loc: 1
  DW_CFA_def_cfa_offset: +16
  DW_CFA_offset: RBP -16
  DW_CFA_advance_loc: 3
  DW_CFA_def_cfa_register: RBP
  DW_CFA_advance_loc: 5
  DW_CFA_def_cfa: RSP +8
  DW_CFA_nop:
  DW_CFA_nop:
  DW_CFA_nop:

  0xf6010: CFA=RSP+8: RIP=[CFA-8]
  0xf6011: CFA=RSP+16: RBP=[CFA-16], RIP=[CFA-8]
  0xf6014: CFA=RBP+16: RBP=[CFA-16], RIP=[CFA-8]
  0xf6019: CFA=RSP+8: RBP=[CFA-16], RIP=[CFA-8]

00004b74 0000001c 00004b78 FDE cie=00000000 pc=000f6020...000f602a
  Format:       DWARF32
  DW_CFA_advance_loc: 1
  DW_CFA_def_cfa_offset: +16
  DW_CFA_offset: RBP -16
  DW_CFA_advance_loc: 3
  DW_CFA_def_cfa_register: RBP
  DW_CFA_advance_loc: 5
  DW_CFA_def_cfa: RSP +8
  DW_CFA_nop:
  DW_CFA_nop:
  DW_CFA_nop:

  0xf6020: CFA=RSP+8: RIP=[CFA-8]
  0xf6021: CFA=RSP+16: RBP=[CFA-16], RIP=[CFA-8]
  0xf6024: CFA=RBP+16: RBP=[CFA-16], RIP=[CFA-8]
  0xf6029: CFA=RSP+8: RBP=[CFA-16], RIP=[CFA-8]

00004b94 0000001c 00004b98 FDE cie=00000000 pc=000f6030...000f603a
  Format:       DWARF32
  DW_CFA_advance_loc: 1
  DW_CFA_def_cfa_offset: +16
  DW_CFA_offset: RBP -16
  DW_CFA_advance_loc: 3
  DW_CFA_def_cfa_register: RBP
  DW_CFA_advance_loc: 5
  DW_CFA_def_cfa: RSP +8
  DW_CFA_nop:
  DW_CFA_nop:
  DW_CFA_nop:

  0xf6030: CFA=RSP+8: RIP=[CFA-8]
  0xf6031: CFA=RSP+16: RBP=[CFA-16], RIP=[CFA-8]
  0xf6034: CFA=RBP+16: RBP=[CFA-16], RIP=[CFA-8]
  0xf6039: CFA=RSP+8: RBP=[CFA-16], RIP=[CFA-8]

00004bb4 0000001c 00004bb8 FDE cie=00000000 pc=000f6040...000f604a
  Format:       DWARF32
  DW_CFA_advance_loc: 1
  DW_CFA_def_cfa_offset: +16
  DW_CFA_offset: RBP -16
  DW_CFA_advance_loc: 3
  DW_CFA_def_cfa_register: RBP
  DW_CFA_advance_loc: 5
  DW_CFA_def_cfa: RSP +8
  DW_CFA_nop:
  DW_CFA_nop:
  DW_CFA_nop:

  0xf6040: CFA=RSP+8: RIP=[CFA-8]
  0xf6041: CFA=RSP+16: RBP=[CFA-16], RIP=[CFA-8]
  0xf6044: CFA=RBP+16: RBP=[CFA-16], RIP=[CFA-8]
  0xf6049: CFA=RSP+8: RBP=[CFA-16], RIP=[CFA-8]

00004bd4 0000001c 00004bd8 FDE cie=00000000 pc=000f6050...000f605a
  Format:       DWARF32
  DW_CFA_advance_loc: 1
  DW_CFA_def_cfa_offset: +16
  DW_CFA_offset: RBP -16
  DW_CFA_advance_loc: 3
  DW_CFA_def_cfa_register: RBP
  DW_CFA_advance_loc: 5
  DW_CFA_def_cfa: RSP +8
  DW_CFA_nop:
  DW_CFA_nop:
  DW_CFA_nop:

  0xf6050: CFA=RSP+8: RIP=[CFA-8]
  0xf6051: CFA=RSP+16: RBP=[CFA-16], RIP=[CFA-8]
  0xf6054: CFA=RBP+16: RBP=[CFA-16], RIP=[CFA-8]
  0xf6059: CFA=RSP+8: RBP=[CFA-16], RIP=[CFA-8]

00004bf4 0000001c 00004bf8 FDE cie=00000000 pc=000f6060...000f606a
  Format:       DWARF32
  DW_CFA_advance_loc: 1
  DW_CFA_def_cfa_offset: +16
  DW_CFA_offset: RBP -16
  DW_CFA_advance_loc: 3
  DW_CFA_def_cfa_register: RBP
  DW_CFA_advance_loc: 5
  DW_CFA_def_cfa: RSP +8
  DW_CFA_nop:
  DW_CFA_nop:
  DW_CFA_nop:

  0xf6060: CFA=RSP+8: RIP=[CFA-8]
  0xf6061: CFA=RSP+16: RBP=[CFA-16], RIP=[CFA-8]
  0xf6064: CFA=RBP+16: RBP=[CFA-16], RIP=[CFA-8]
  0xf6069: CFA=RSP+8: RBP=[CFA-16], RIP=[CFA-8]

00004c14 0000001c 00004c18 FDE cie=00000000 pc=000f6070...000f607a
  Format:       DWARF32
  DW_CFA_advance_loc: 1
  DW_CFA_def_cfa_offset: +16
  DW_CFA_offset: RBP -16
  DW_CFA_advance_loc: 3
  DW_CFA_def_cfa_register: RBP
  DW_CFA_advance_loc: 5
  DW_CFA_def_cfa: RSP +8
  DW_CFA_nop:
  DW_CFA_nop:
  DW_CFA_nop:

  0xf6070: CFA=RSP+8: RIP=[CFA-8]
  0xf6071: CFA=RSP+16: RBP=[CFA-16], RIP=[CFA-8]
  0xf6074: CFA=RBP+16: RBP=[CFA-16], RIP=[CFA-8]
  0xf6079: CFA=RSP+8: RBP=[CFA-16], RIP=[CFA-8]

00004c34 0000001c 00004c38 FDE cie=00000000 pc=000f6080...000f608a
  Format:       DWARF32
  DW_CFA_advance_loc: 1
  DW_CFA_def_cfa_offset: +16
  DW_CFA_offset: RBP -16
  DW_CFA_advance_loc: 3
  DW_CFA_def_cfa_register: RBP
  DW_CFA_advance_loc: 5
  DW_CFA_def_cfa: RSP +8
  DW_CFA_nop:
  DW_CFA_nop:
  DW_CFA_nop:

  0xf6080: CFA=RSP+8: RIP=[CFA-8]
  0xf6081: CFA=RSP+16: RBP=[CFA-16], RIP=[CFA-8]
  0xf6084: CFA=RBP+16: RBP=[CFA-16], RIP=[CFA-8]
  0xf6089: CFA=RSP+8: RBP=[CFA-16], RIP=[CFA-8]

00004c54 0000001c 00004c58 FDE cie=00000000 pc=000f6090...000f609a
  Format:       DWARF32
  DW_CFA_advance_loc: 1
  DW_CFA_def_cfa_offset: +16
  DW_CFA_offset: RBP -16
  DW_CFA_advance_loc: 3
  DW_CFA_def_cfa_register: RBP
  DW_CFA_advance_loc: 5
  DW_CFA_def_cfa: RSP +8
  DW_CFA_nop:
  DW_CFA_nop:
  DW_CFA_nop:

  0xf6090: CFA=RSP+8: RIP=[CFA-8]
  0xf6091: CFA=RSP+16: RBP=[CFA-16], RIP=[CFA-8]
  0xf6094: CFA=RBP+16: RBP=[CFA-16], RIP=[CFA-8]
  0xf6099: CFA=RSP+8: RBP=[CFA-16], RIP=[CFA-8]

00004c74 0000001c 00004c78 FDE cie=00000000 pc=000f60a0...000f60aa
  Format:       DWARF32
  DW_CFA_advance_loc: 1
  DW_CFA_def_cfa_offset: +16
  DW_CFA_offset: RBP -16
  DW_CFA_advance_loc: 3
  DW_CFA_def_cfa_register: RBP
  DW_CFA_advance_loc: 5
  DW_CFA_def_cfa: RSP +8
  DW_CFA_nop:
  DW_CFA_nop:
  DW_CFA_nop:

  0xf60a0: CFA=RSP+8: RIP=[CFA-8]
  0xf60a1: CFA=RSP+16: RBP=[CFA-16], RIP=[CFA-8]
  0xf60a4: CFA=RBP+16: RBP=[CFA-16], RIP=[CFA-8]
  0xf60a9: CFA=RSP+8: RBP=[CFA-16], RIP=[CFA-8]

00004c94 0000001c 00004c98 FDE cie=00000000 pc=000f60b0...000f60ba
  Format:       DWARF32
  DW_CFA_advance_loc: 1
  DW_CFA_def_cfa_offset: +16
  DW_CFA_offset: RBP -16
  DW_CFA_advance_loc: 3
  DW_CFA_def_cfa_register: RBP
  DW_CFA_advance_loc: 5
  DW_CFA_def_cfa: RSP +8
  DW_CFA_nop:
  DW_CFA_nop:
  DW_CFA_nop:

  0xf60b0: CFA=RSP+8: RIP=[CFA-8]
  0xf60b1: CFA=RSP+16: RBP=[CFA-16], RIP=[CFA-8]
  0xf60b4: CFA=RBP+16: RBP=[CFA-16], RIP=[CFA-8]
  0xf60b9: CFA=RSP+8: RBP=[CFA-16], RIP=[CFA-8]

00004cb4 0000001c 00004cb8 FDE cie=00000000 pc=000f60c0...000f60ca
  Format:       DWARF32
  DW_CFA_advance_loc: 1
  DW_CFA_def_cfa_offset: +16
  DW_CFA_offset: RBP -16
  DW_CFA_advance_loc: 3
  DW_CFA_def_cfa_register: RBP
  DW_CFA_advance_loc: 5
  DW_CFA_def_cfa: RSP +8
  DW_CFA_nop:
  DW_CFA_nop:
  DW_CFA_nop:

  0xf60c0: CFA=RSP+8: RIP=[CFA-8]
  0xf60c1: CFA=RSP+16: RBP=[CFA-16], RIP=[CFA-8]
  0xf60c4: CFA=RBP+16: RBP=[CFA-16], RIP=[CFA-8]
  0xf60c9: CFA=RSP+8: RBP=[CFA-16], RIP=[CFA-8]

00004cd4 0000001c 00004cd8 FDE cie=00000000 pc=000f60d0...000f60da
  Format:       DWARF32
  DW_CFA_advance_loc: 1
  DW_CFA_def_cfa_offset: +16
  DW_CFA_offset: RBP -16
  DW_CFA_advance_loc: 3
  DW_CFA_def_cfa_register: RBP
  DW_CFA_advance_loc: 5
  DW_CFA_def_cfa: RSP +8
  DW_CFA_nop:
  DW_CFA_nop:
  DW_CFA_nop:

  0xf60d0: CFA=RSP+8: RIP=[CFA-8]
  0xf60d1: CFA=RSP+16: RBP=[CFA-16], RIP=[CFA-8]
  0xf60d4: CFA=RBP+16: RBP=[CFA-16], RIP=[CFA-8]
  0xf60d9: CFA=RSP+8: RBP=[CFA-16], RIP=[CFA-8]

00004cf4 0000001c 00004cf8 FDE cie=00000000 pc=000f60e0...000f60ea
  Format:       DWARF32
  DW_CFA_advance_loc: 1
  DW_CFA_def_cfa_offset: +16
  DW_CFA_offset: RBP -16
  DW_CFA_advance_loc: 3
  DW_CFA_def_cfa_register: RBP
  DW_CFA_advance_loc: 5
  DW_CFA_def_cfa: RSP +8
  DW_CFA_nop:
  DW_CFA_nop:
  DW_CFA_nop:

  0xf60e0: CFA=RSP+8: RIP=[CFA-8]
  0xf60e1: CFA=RSP+16: RBP=[CFA-16], RIP=[CFA-8]
  0xf60e4: CFA=RBP+16: RBP=[CFA-16], RIP=[CFA-8]
  0xf60e9: CFA=RSP+8: RBP=[CFA-16], RIP=[CFA-8]

00004d14 0000001c 00004d18 FDE cie=00000000 pc=000f60f0...000f60fa
  Format:       DWARF32
  DW_CFA_advance_loc: 1
  DW_CFA_def_cfa_offset: +16
  DW_CFA_offset: RBP -16
  DW_CFA_advance_loc: 3
  DW_CFA_def_cfa_register: RBP
  DW_CFA_advance_loc: 5
  DW_CFA_def_cfa: RSP +8
  DW_CFA_nop:
  DW_CFA_nop:
  DW_CFA_nop:

  0xf60f0: CFA=RSP+8: RIP=[CFA-8]
  0xf60f1: CFA=RSP+16: RBP=[CFA-16], RIP=[CFA-8]
  0xf60f4: CFA=RBP+16: RBP=[CFA-16], RIP=[CFA-8]
  0xf60f9: CFA=RSP+8: RBP=[CFA-16], RIP=[CFA-8]

00004d34 0000001c 00004d38 FDE cie=00000000 pc=000f6100...000f610a
  Format:       DWARF32
  DW_CFA_advance_loc: 1
  DW_CFA_def_cfa_offset: +16
  DW_CFA_offset: RBP -16
  DW_CFA_advance_loc: 3
  DW_CFA_def_cfa_register: RBP
  DW_CFA_advance_loc: 5
  DW_CFA_def_cfa: RSP +8
  DW_CFA_nop:
  DW_CFA_nop:
  DW_CFA_nop:

  0xf6100: CFA=RSP+8: RIP=[CFA-8]
  0xf6101: CFA=RSP+16: RBP=[CFA-16], RIP=[CFA-8]
  0xf6104: CFA=RBP+16: RBP=[CFA-16], RIP=[CFA-8]
  0xf6109: CFA=RSP+8: RBP=[CFA-16], RIP=[CFA-8]

00004d54 0000001c 00004d58 FDE cie=00000000 pc=000f6110...000f611a
  Format:       DWARF32
  DW_CFA_advance_loc: 1
  DW_CFA_def_cfa_offset: +16
  DW_CFA_offset: RBP -16
  DW_CFA_advance_loc: 3
  DW_CFA_def_cfa_register: RBP
  DW_CFA_advance_loc: 5
  DW_CFA_def_cfa: RSP +8
  DW_CFA_nop:
  DW_CFA_nop:
  DW_CFA_nop:

  0xf6110: CFA=RSP+8: RIP=[CFA-8]
  0xf6111: CFA=RSP+16: RBP=[CFA-16], RIP=[CFA-8]
  0xf6114: CFA=RBP+16: RBP=[CFA-16], RIP=[CFA-8]
  0xf6119: CFA=RSP+8: RBP=[CFA-16], RIP=[CFA-8]

00004d74 0000001c 00004d78 FDE cie=00000000 pc=000f6120...000f612a
  Format:       DWARF32
  DW_CFA_advance_loc: 1
  DW_CFA_def_cfa_offset: +16
  DW_CFA_offset: RBP -16
  DW_CFA_advance_loc: 3
  DW_CFA_def_cfa_register: RBP
  DW_CFA_advance_loc: 5
  DW_CFA_def_cfa: RSP +8
  DW_CFA_nop:
  DW_CFA_nop:
  DW_CFA_nop:

  0xf6120: CFA=RSP+8: RIP=[CFA-8]
  0xf6121: CFA=RSP+16: RBP=[CFA-16], RIP=[CFA-8]
  0xf6124: CFA=RBP+16: RBP=[CFA-16], RIP=[CFA-8]
  0xf6129: CFA=RSP+8: RBP=[CFA-16], RIP=[CFA-8]

00004d94 0000001c 00004d98 FDE cie=00000000 pc=000f6130...000f613a
  Format:       DWARF32
  DW_CFA_advance_loc: 1
  DW_CFA_def_cfa_offset: +16
  DW_CFA_offset: RBP -16
  DW_CFA_advance_loc: 3
  DW_CFA_def_cfa_register: RBP
  DW_CFA_advance_loc: 5
  DW_CFA_def_cfa: RSP +8
  DW_CFA_nop:
  DW_CFA_nop:
  DW_CFA_nop:

  0xf6130: CFA=RSP+8: RIP=[CFA-8]
  0xf6131: CFA=RSP+16: RBP=[CFA-16], RIP=[CFA-8]
  0xf6134: CFA=RBP+16: RBP=[CFA-16], RIP=[CFA-8]
  0xf6139: CFA=RSP+8: RBP=[CFA-16], RIP=[CFA-8]

00004db4 0000001c 00004db8 FDE cie=00000000 pc=000f6140...000f614a
  Format:       DWARF32
  DW_CFA_advance_loc: 1
  DW_CFA_def_cfa_offset: +16
  DW_CFA_offset: RBP -16
  DW_CFA_advance_loc: 3
  DW_CFA_def_cfa_register: RBP
  DW_CFA_advance_loc: 5
  DW_CFA_def_cfa: RSP +8
  DW_CFA_nop:
  DW_CFA_nop:
  DW_CFA_nop:

  0xf6140: CFA=RSP+8: RIP=[CFA-8]
  0xf6141: CFA=RSP+16: RBP=[CFA-16], RIP=[CFA-8]
  0xf6144: CFA=RBP+16: RBP=[CFA-16], RIP=[CFA-8]
  0xf6149: CFA=RSP+8: RBP=[CFA-16], RIP=[CFA-8]

00004dd4 0000001c 00004dd8 FDE cie=00000000 pc=000f6150...000f615a
  Format:       DWARF32
  DW_CFA_advance_loc: 1
  DW_CFA_def_cfa_offset: +16
  DW_CFA_offset: RBP -16
  DW_CFA_advance_loc: 3
  DW_CFA_def_cfa_register: RBP
  DW_CFA_advance_loc: 5
  DW_CFA_def_cfa: RSP +8
  DW_CFA_nop:
  DW_CFA_nop:
  DW_CFA_nop:

  0xf6150: CFA=RSP+8: RIP=[CFA-8]
  0xf6151: CFA=RSP+16: RBP=[CFA-16], RIP=[CFA-8]
  0xf6154: CFA=RBP+16: RBP=[CFA-16], RIP=[CFA-8]
  0xf6159: CFA=RSP+8: RBP=[CFA-16], RIP=[CFA-8]

00004df4 0000001c 00004df8 FDE cie=00000000 pc=000f6160...000f616a
  Format:       DWARF32
  DW_CFA_advance_loc: 1
  DW_CFA_def_cfa_offset: +16
  DW_CFA_offset: RBP -16
  DW_CFA_advance_loc: 3
  DW_CFA_def_cfa_register: RBP
  DW_CFA_advance_loc: 5
  DW_CFA_def_cfa: RSP +8
  DW_CFA_nop:
  DW_CFA_nop:
  DW_CFA_nop:

  0xf6160: CFA=RSP+8: RIP=[CFA-8]
  0xf6161: CFA=RSP+16: RBP=[CFA-16], RIP=[CFA-8]
  0xf6164: CFA=RBP+16: RBP=[CFA-16], RIP=[CFA-8]
  0xf6169: CFA=RSP+8: RBP=[CFA-16], RIP=[CFA-8]

00004e14 0000001c 00004e18 FDE cie=00000000 pc=000f6170...000f6199
  Format:       DWARF32
  DW_CFA_advance_loc: 1
  DW_CFA_def_cfa_offset: +16
  DW_CFA_offset: RBP -16
  DW_CFA_advance_loc: 3
  DW_CFA_def_cfa_register: RBP
  DW_CFA_advance_loc: 36
  DW_CFA_def_cfa: RSP +8
  DW_CFA_nop:
  DW_CFA_nop:
  DW_CFA_nop:

  0xf6170: CFA=RSP+8: RIP=[CFA-8]
  0xf6171: CFA=RSP+16: RBP=[CFA-16], RIP=[CFA-8]
  0xf6174: CFA=RBP+16: RBP=[CFA-16], RIP=[CFA-8]
  0xf6198: CFA=RSP+8: RBP=[CFA-16], RIP=[CFA-8]

00004e34 0000001c 00004e38 FDE cie=00000000 pc=000f61a0...000f61c9
  Format:       DWARF32
  DW_CFA_advance_loc: 1
  DW_CFA_def_cfa_offset: +16
  DW_CFA_offset: RBP -16
  DW_CFA_advance_loc: 3
  DW_CFA_def_cfa_register: RBP
  DW_CFA_advance_loc: 36
  DW_CFA_def_cfa: RSP +8
  DW_CFA_nop:
  DW_CFA_nop:
  DW_CFA_nop:

  0xf61a0: CFA=RSP+8: RIP=[CFA-8]
  0xf61a1: CFA=RSP+16: RBP=[CFA-16], RIP=[CFA-8]
  0xf61a4: CFA=RBP+16: RBP=[CFA-16], RIP=[CFA-8]
  0xf61c8: CFA=RSP+8: RBP=[CFA-16], RIP=[CFA-8]

00004e54 0000001c 00004e58 FDE cie=00000000 pc=000f61d0...000f61f9
  Format:       DWARF32
  DW_CFA_advance_loc: 1
  DW_CFA_def_cfa_offset: +16
  DW_CFA_offset: RBP -16
  DW_CFA_advance_loc: 3
  DW_CFA_def_cfa_register: RBP
  DW_CFA_advance_loc: 36
  DW_CFA_def_cfa: RSP +8
  DW_CFA_nop:
  DW_CFA_nop:
  DW_CFA_nop:

  0xf61d0: CFA=RSP+8: RIP=[CFA-8]
  0xf61d1: CFA=RSP+16: RBP=[CFA-16], RIP=[CFA-8]
  0xf61d4: CFA=RBP+16: RBP=[CFA-16], RIP=[CFA-8]
  0xf61f8: CFA=RSP+8: RBP=[CFA-16], RIP=[CFA-8]

00004e74 0000001c 00004e78 FDE cie=00000000 pc=000f6200...000f620d
  Format:       DWARF32
  DW_CFA_advance_loc: 1
  DW_CFA_def_cfa_offset: +16
  DW_CFA_offset: RBP -16
  DW_CFA_advance_loc: 3
  DW_CFA_def_cfa_register: RBP
  DW_CFA_advance_loc: 8
  DW_CFA_def_cfa: RSP +8
  DW_CFA_nop:
  DW_CFA_nop:
  DW_CFA_nop:

  0xf6200: CFA=RSP+8: RIP=[CFA-8]
  0xf6201: CFA=RSP+16: RBP=[CFA-16], RIP=[CFA-8]
  0xf6204: CFA=RBP+16: RBP=[CFA-16], RIP=[CFA-8]
  0xf620c: CFA=RSP+8: RBP=[CFA-16], RIP=[CFA-8]

00004e94 0000001c 00004e98 FDE cie=00000000 pc=000f6210...000f627d
  Format:       DWARF32
  DW_CFA_advance_loc: 1
  DW_CFA_def_cfa_offset: +16
  DW_CFA_offset: RBP -16
  DW_CFA_advance_loc: 3
  DW_CFA_def_cfa_register: RBP
  DW_CFA_advance_loc1: 104
  DW_CFA_def_cfa: RSP +8
  DW_CFA_nop:
  DW_CFA_nop:

  0xf6210: CFA=RSP+8: RIP=[CFA-8]
  0xf6211: CFA=RSP+16: RBP=[CFA-16], RIP=[CFA-8]
  0xf6214: CFA=RBP+16: RBP=[CFA-16], RIP=[CFA-8]
  0xf627c: CFA=RSP+8: RBP=[CFA-16], RIP=[CFA-8]

00004eb4 0000001c 00004eb8 FDE cie=00000000 pc=000f6280...000f62ed
  Format:       DWARF32
  DW_CFA_advance_loc: 1
  DW_CFA_def_cfa_offset: +16
  DW_CFA_offset: RBP -16
  DW_CFA_advance_loc: 3
  DW_CFA_def_cfa_register: RBP
  DW_CFA_advance_loc1: 104
  DW_CFA_def_cfa: RSP +8
  DW_CFA_nop:
  DW_CFA_nop:

  0xf6280: CFA=RSP+8: RIP=[CFA-8]
  0xf6281: CFA=RSP+16: RBP=[CFA-16], RIP=[CFA-8]
  0xf6284: CFA=RBP+16: RBP=[CFA-16], RIP=[CFA-8]
  0xf62ec: CFA=RSP+8: RBP=[CFA-16], RIP=[CFA-8]

00004ed4 0000001c 00004ed8 FDE cie=00000000 pc=000f62f0...000f635d
  Format:       DWARF32
  DW_CFA_advance_loc: 1
  DW_CFA_def_cfa_offset: +16
  DW_CFA_offset: RBP -16
  DW_CFA_advance_loc: 3
  DW_CFA_def_cfa_register: RBP
  DW_CFA_advance_loc1: 104
  DW_CFA_def_cfa: RSP +8
  DW_CFA_nop:
  DW_CFA_nop:

  0xf62f0: CFA=RSP+8: RIP=[CFA-8]
  0xf62f1: CFA=RSP+16: RBP=[CFA-16], RIP=[CFA-8]
  0xf62f4: CFA=RBP+16: RBP=[CFA-16], RIP=[CFA-8]
  0xf635c: CFA=RSP+8: RBP=[CFA-16], RIP=[CFA-8]

00004ef4 00000024 00004ee0 FDE cie=00000018 pc=000f6360...000f642d
  Format:       DWARF32
  LSDA Address: 00000000000bc4e4
  DW_CFA_advance_loc: 1
  DW_CFA_def_cfa_offset: +16
  DW_CFA_offset: RBP -16
  DW_CFA_advance_loc: 3
  DW_CFA_def_cfa_register: RBP
  DW_CFA_advance_loc1: 187
  DW_CFA_def_cfa: RSP +8
  DW_CFA_advance_loc: 1
  DW_CFA_def_cfa: RBP +16
  DW_CFA_nop:
  DW_CFA_nop:

  0xf6360: CFA=RSP+8: RIP=[CFA-8]
  0xf6361: CFA=RSP+16: RBP=[CFA-16], RIP=[CFA-8]
  0xf6364: CFA=RBP+16: RBP=[CFA-16], RIP=[CFA-8]
  0xf641f: CFA=RSP+8: RBP=[CFA-16], RIP=[CFA-8]
  0xf6420: CFA=RBP+16: RBP=[CFA-16], RIP=[CFA-8]

00004f1c 00000024 00004f08 FDE cie=00000018 pc=000f6430...000f64fd
  Format:       DWARF32
  LSDA Address: 00000000000bc4f4
  DW_CFA_advance_loc: 1
  DW_CFA_def_cfa_offset: +16
  DW_CFA_offset: RBP -16
  DW_CFA_advance_loc: 3
  DW_CFA_def_cfa_register: RBP
  DW_CFA_advance_loc1: 187
  DW_CFA_def_cfa: RSP +8
  DW_CFA_advance_loc: 1
  DW_CFA_def_cfa: RBP +16
  DW_CFA_nop:
  DW_CFA_nop:

  0xf6430: CFA=RSP+8: RIP=[CFA-8]
  0xf6431: CFA=RSP+16: RBP=[CFA-16], RIP=[CFA-8]
  0xf6434: CFA=RBP+16: RBP=[CFA-16], RIP=[CFA-8]
  0xf64ef: CFA=RSP+8: RBP=[CFA-16], RIP=[CFA-8]
  0xf64f0: CFA=RBP+16: RBP=[CFA-16], RIP=[CFA-8]

00004f44 00000024 00004f30 FDE cie=00000018 pc=000f6500...000f65cd
  Format:       DWARF32
  LSDA Address: 00000000000bc504
  DW_CFA_advance_loc: 1
  DW_CFA_def_cfa_offset: +16
  DW_CFA_offset: RBP -16
  DW_CFA_advance_loc: 3
  DW_CFA_def_cfa_register: RBP
  DW_CFA_advance_loc1: 187
  DW_CFA_def_cfa: RSP +8
  DW_CFA_advance_loc: 1
  DW_CFA_def_cfa: RBP +16
  DW_CFA_nop:
  DW_CFA_nop:

  0xf6500: CFA=RSP+8: RIP=[CFA-8]
  0xf6501: CFA=RSP+16: RBP=[CFA-16], RIP=[CFA-8]
  0xf6504: CFA=RBP+16: RBP=[CFA-16], RIP=[CFA-8]
  0xf65bf: CFA=RSP+8: RBP=[CFA-16], RIP=[CFA-8]
  0xf65c0: CFA=RBP+16: RBP=[CFA-16], RIP=[CFA-8]

00004f6c 0000001c 00004f70 FDE cie=00000000 pc=000f65d0...000f65f3
  Format:       DWARF32
  DW_CFA_advance_loc: 1
  DW_CFA_def_cfa_offset: +16
  DW_CFA_offset: RBP -16
  DW_CFA_advance_loc: 3
  DW_CFA_def_cfa_register: RBP
  DW_CFA_advance_loc: 30
  DW_CFA_def_cfa: RSP +8
  DW_CFA_nop:
  DW_CFA_nop:
  DW_CFA_nop:

  0xf65d0: CFA=RSP+8: RIP=[CFA-8]
  0xf65d1: CFA=RSP+16: RBP=[CFA-16], RIP=[CFA-8]
  0xf65d4: CFA=RBP+16: RBP=[CFA-16], RIP=[CFA-8]
  0xf65f2: CFA=RSP+8: RBP=[CFA-16], RIP=[CFA-8]

00004f8c 0000001c 00004f90 FDE cie=00000000 pc=000f6600...000f6623
  Format:       DWARF32
  DW_CFA_advance_loc: 1
  DW_CFA_def_cfa_offset: +16
  DW_CFA_offset: RBP -16
  DW_CFA_advance_loc: 3
  DW_CFA_def_cfa_register: RBP
  DW_CFA_advance_loc: 30
  DW_CFA_def_cfa: RSP +8
  DW_CFA_nop:
  DW_CFA_nop:
  DW_CFA_nop:

  0xf6600: CFA=RSP+8: RIP=[CFA-8]
  0xf6601: CFA=RSP+16: RBP=[CFA-16], RIP=[CFA-8]
  0xf6604: CFA=RBP+16: RBP=[CFA-16], RIP=[CFA-8]
  0xf6622: CFA=RSP+8: RBP=[CFA-16], RIP=[CFA-8]

00004fac 0000001c 00004fb0 FDE cie=00000000 pc=000f6630...000f6653
  Format:       DWARF32
  DW_CFA_advance_loc: 1
  DW_CFA_def_cfa_offset: +16
  DW_CFA_offset: RBP -16
  DW_CFA_advance_loc: 3
  DW_CFA_def_cfa_register: RBP
  DW_CFA_advance_loc: 30
  DW_CFA_def_cfa: RSP +8
  DW_CFA_nop:
  DW_CFA_nop:
  DW_CFA_nop:

  0xf6630: CFA=RSP+8: RIP=[CFA-8]
  0xf6631: CFA=RSP+16: RBP=[CFA-16], RIP=[CFA-8]
  0xf6634: CFA=RBP+16: RBP=[CFA-16], RIP=[CFA-8]
  0xf6652: CFA=RSP+8: RBP=[CFA-16], RIP=[CFA-8]

00004fcc 0000001c 00004fd0 FDE cie=00000000 pc=000f6660...000f6674
  Format:       DWARF32
  DW_CFA_advance_loc: 1
  DW_CFA_def_cfa_offset: +16
  DW_CFA_offset: RBP -16
  DW_CFA_advance_loc: 3
  DW_CFA_def_cfa_register: RBP
  DW_CFA_advance_loc: 15
  DW_CFA_def_cfa: RSP +8
  DW_CFA_nop:
  DW_CFA_nop:
  DW_CFA_nop:

  0xf6660: CFA=RSP+8: RIP=[CFA-8]
  0xf6661: CFA=RSP+16: RBP=[CFA-16], RIP=[CFA-8]
  0xf6664: CFA=RBP+16: RBP=[CFA-16], RIP=[CFA-8]
  0xf6673: CFA=RSP+8: RBP=[CFA-16], RIP=[CFA-8]

00004fec 0000001c 00004ff0 FDE cie=00000000 pc=000f6680...000f6694
  Format:       DWARF32
  DW_CFA_advance_loc: 1
  DW_CFA_def_cfa_offset: +16
  DW_CFA_offset: RBP -16
  DW_CFA_advance_loc: 3
  DW_CFA_def_cfa_register: RBP
  DW_CFA_advance_loc: 15
  DW_CFA_def_cfa: RSP +8
  DW_CFA_nop:
  DW_CFA_nop:
  DW_CFA_nop:

  0xf6680: CFA=RSP+8: RIP=[CFA-8]
  0xf6681: CFA=RSP+16: RBP=[CFA-16], RIP=[CFA-8]
  0xf6684: CFA=RBP+16: RBP=[CFA-16], RIP=[CFA-8]
  0xf6693: CFA=RSP+8: RBP=[CFA-16], RIP=[CFA-8]

0000500c 0000001c 00005010 FDE cie=00000000 pc=000f66a0...000f66b4
  Format:       DWARF32
  DW_CFA_advance_loc: 1
  DW_CFA_def_cfa_offset: +16
  DW_CFA_offset: RBP -16
  DW_CFA_advance_loc: 3
  DW_CFA_def_cfa_register: RBP
  DW_CFA_advance_loc: 15
  DW_CFA_def_cfa: RSP +8
  DW_CFA_nop:
  DW_CFA_nop:
  DW_CFA_nop:

  0xf66a0: CFA=RSP+8: RIP=[CFA-8]
  0xf66a1: CFA=RSP+16: RBP=[CFA-16], RIP=[CFA-8]
  0xf66a4: CFA=RBP+16: RBP=[CFA-16], RIP=[CFA-8]
  0xf66b3: CFA=RSP+8: RBP=[CFA-16], RIP=[CFA-8]

0000502c 0000001c 00005030 FDE cie=00000000 pc=000f66c0...000f66d4
  Format:       DWARF32
  DW_CFA_advance_loc: 1
  DW_CFA_def_cfa_offset: +16
  DW_CFA_offset: RBP -16
  DW_CFA_advance_loc: 3
  DW_CFA_def_cfa_register: RBP
  DW_CFA_advance_loc: 15
  DW_CFA_def_cfa: RSP +8
  DW_CFA_nop:
  DW_CFA_nop:
  DW_CFA_nop:

  0xf66c0: CFA=RSP+8: RIP=[CFA-8]
  0xf66c1: CFA=RSP+16: RBP=[CFA-16], RIP=[CFA-8]
  0xf66c4: CFA=RBP+16: RBP=[CFA-16], RIP=[CFA-8]
  0xf66d3: CFA=RSP+8: RBP=[CFA-16], RIP=[CFA-8]

0000504c 0000001c 00005050 FDE cie=00000000 pc=000f66e0...000f66f4
  Format:       DWARF32
  DW_CFA_advance_loc: 1
  DW_CFA_def_cfa_offset: +16
  DW_CFA_offset: RBP -16
  DW_CFA_advance_loc: 3
  DW_CFA_def_cfa_register: RBP
  DW_CFA_advance_loc: 15
  DW_CFA_def_cfa: RSP +8
  DW_CFA_nop:
  DW_CFA_nop:
  DW_CFA_nop:

  0xf66e0: CFA=RSP+8: RIP=[CFA-8]
  0xf66e1: CFA=RSP+16: RBP=[CFA-16], RIP=[CFA-8]
  0xf66e4: CFA=RBP+16: RBP=[CFA-16], RIP=[CFA-8]
  0xf66f3: CFA=RSP+8: RBP=[CFA-16], RIP=[CFA-8]

0000506c 0000001c 00005070 FDE cie=00000000 pc=000f6700...000f6714
  Format:       DWARF32
  DW_CFA_advance_loc: 1
  DW_CFA_def_cfa_offset: +16
  DW_CFA_offset: RBP -16
  DW_CFA_advance_loc: 3
  DW_CFA_def_cfa_register: RBP
  DW_CFA_advance_loc: 15
  DW_CFA_def_cfa: RSP +8
  DW_CFA_nop:
  DW_CFA_nop:
  DW_CFA_nop:

  0xf6700: CFA=RSP+8: RIP=[CFA-8]
  0xf6701: CFA=RSP+16: RBP=[CFA-16], RIP=[CFA-8]
  0xf6704: CFA=RBP+16: RBP=[CFA-16], RIP=[CFA-8]
  0xf6713: CFA=RSP+8: RBP=[CFA-16], RIP=[CFA-8]

0000508c 0000001c 00005090 FDE cie=00000000 pc=000f6720...000f6734
  Format:       DWARF32
  DW_CFA_advance_loc: 1
  DW_CFA_def_cfa_offset: +16
  DW_CFA_offset: RBP -16
  DW_CFA_advance_loc: 3
  DW_CFA_def_cfa_register: RBP
  DW_CFA_advance_loc: 15
  DW_CFA_def_cfa: RSP +8
  DW_CFA_nop:
  DW_CFA_nop:
  DW_CFA_nop:

  0xf6720: CFA=RSP+8: RIP=[CFA-8]
  0xf6721: CFA=RSP+16: RBP=[CFA-16], RIP=[CFA-8]
  0xf6724: CFA=RBP+16: RBP=[CFA-16], RIP=[CFA-8]
  0xf6733: CFA=RSP+8: RBP=[CFA-16], RIP=[CFA-8]

000050ac 0000001c 000050b0 FDE cie=00000000 pc=000f6740...000f6754
  Format:       DWARF32
  DW_CFA_advance_loc: 1
  DW_CFA_def_cfa_offset: +16
  DW_CFA_offset: RBP -16
  DW_CFA_advance_loc: 3
  DW_CFA_def_cfa_register: RBP
  DW_CFA_advance_loc: 15
  DW_CFA_def_cfa: RSP +8
  DW_CFA_nop:
  DW_CFA_nop:
  DW_CFA_nop:

  0xf6740: CFA=RSP+8: RIP=[CFA-8]
  0xf6741: CFA=RSP+16: RBP=[CFA-16], RIP=[CFA-8]
  0xf6744: CFA=RBP+16: RBP=[CFA-16], RIP=[CFA-8]
  0xf6753: CFA=RSP+8: RBP=[CFA-16], RIP=[CFA-8]

000050cc 0000001c 000050d0 FDE cie=00000000 pc=000f6760...000f6774
  Format:       DWARF32
  DW_CFA_advance_loc: 1
  DW_CFA_def_cfa_offset: +16
  DW_CFA_offset: RBP -16
  DW_CFA_advance_loc: 3
  DW_CFA_def_cfa_register: RBP
  DW_CFA_advance_loc: 15
  DW_CFA_def_cfa: RSP +8
  DW_CFA_nop:
  DW_CFA_nop:
  DW_CFA_nop:

  0xf6760: CFA=RSP+8: RIP=[CFA-8]
  0xf6761: CFA=RSP+16: RBP=[CFA-16], RIP=[CFA-8]
  0xf6764: CFA=RBP+16: RBP=[CFA-16], RIP=[CFA-8]
  0xf6773: CFA=RSP+8: RBP=[CFA-16], RIP=[CFA-8]

000050ec 0000001c 000050f0 FDE cie=00000000 pc=000f6780...000f6794
  Format:       DWARF32
  DW_CFA_advance_loc: 1
  DW_CFA_def_cfa_offset: +16
  DW_CFA_offset: RBP -16
  DW_CFA_advance_loc: 3
  DW_CFA_def_cfa_register: RBP
  DW_CFA_advance_loc: 15
  DW_CFA_def_cfa: RSP +8
  DW_CFA_nop:
  DW_CFA_nop:
  DW_CFA_nop:

  0xf6780: CFA=RSP+8: RIP=[CFA-8]
  0xf6781: CFA=RSP+16: RBP=[CFA-16], RIP=[CFA-8]
  0xf6784: CFA=RBP+16: RBP=[CFA-16], RIP=[CFA-8]
  0xf6793: CFA=RSP+8: RBP=[CFA-16], RIP=[CFA-8]

0000510c 0000001c 00005110 FDE cie=00000000 pc=000f67a0...000f67c0
  Format:       DWARF32
  DW_CFA_advance_loc: 1
  DW_CFA_def_cfa_offset: +16
  DW_CFA_offset: RBP -16
  DW_CFA_advance_loc: 3
  DW_CFA_def_cfa_register: RBP
  DW_CFA_advance_loc: 27
  DW_CFA_def_cfa: RSP +8
  DW_CFA_nop:
  DW_CFA_nop:
  DW_CFA_nop:

  0xf67a0: CFA=RSP+8: RIP=[CFA-8]
  0xf67a1: CFA=RSP+16: RBP=[CFA-16], RIP=[CFA-8]
  0xf67a4: CFA=RBP+16: RBP=[CFA-16], RIP=[CFA-8]
  0xf67bf: CFA=RSP+8: RBP=[CFA-16], RIP=[CFA-8]

0000512c 0000001c 00005130 FDE cie=00000000 pc=000f67c0...000f67dc
  Format:       DWARF32
  DW_CFA_advance_loc: 1
  DW_CFA_def_cfa_offset: +16
  DW_CFA_offset: RBP -16
  DW_CFA_advance_loc: 3
  DW_CFA_def_cfa_register: RBP
  DW_CFA_advance_loc: 23
  DW_CFA_def_cfa: RSP +8
  DW_CFA_nop:
  DW_CFA_nop:
  DW_CFA_nop:

  0xf67c0: CFA=RSP+8: RIP=[CFA-8]
  0xf67c1: CFA=RSP+16: RBP=[CFA-16], RIP=[CFA-8]
  0xf67c4: CFA=RBP+16: RBP=[CFA-16], RIP=[CFA-8]
  0xf67db: CFA=RSP+8: RBP=[CFA-16], RIP=[CFA-8]

0000514c 0000001c 00005150 FDE cie=00000000 pc=000f67e0...000f67fc
  Format:       DWARF32
  DW_CFA_advance_loc: 1
  DW_CFA_def_cfa_offset: +16
  DW_CFA_offset: RBP -16
  DW_CFA_advance_loc: 3
  DW_CFA_def_cfa_register: RBP
  DW_CFA_advance_loc: 23
  DW_CFA_def_cfa: RSP +8
  DW_CFA_nop:
  DW_CFA_nop:
  DW_CFA_nop:

  0xf67e0: CFA=RSP+8: RIP=[CFA-8]
  0xf67e1: CFA=RSP+16: RBP=[CFA-16], RIP=[CFA-8]
  0xf67e4: CFA=RBP+16: RBP=[CFA-16], RIP=[CFA-8]
  0xf67fb: CFA=RSP+8: RBP=[CFA-16], RIP=[CFA-8]

0000516c 0000001c 00005170 FDE cie=00000000 pc=000f6800...000f6905
  Format:       DWARF32
  DW_CFA_advance_loc: 1
  DW_CFA_def_cfa_offset: +16
  DW_CFA_offset: RBP -16
  DW_CFA_advance_loc: 3
  DW_CFA_def_cfa_register: RBP
  DW_CFA_advance_loc2: 256
  DW_CFA_def_cfa: RSP +8
  DW_CFA_nop:

  0xf6800: CFA=RSP+8: RIP=[CFA-8]
  0xf6801: CFA=RSP+16: RBP=[CFA-16], RIP=[CFA-8]
  0xf6804: CFA=RBP+16: RBP=[CFA-16], RIP=[CFA-8]
  0xf6904: CFA=RSP+8: RBP=[CFA-16], RIP=[CFA-8]

0000518c 0000001c 00005190 FDE cie=00000000 pc=000f6910...000f6a15
  Format:       DWARF32
  DW_CFA_advance_loc: 1
  DW_CFA_def_cfa_offset: +16
  DW_CFA_offset: RBP -16
  DW_CFA_advance_loc: 3
  DW_CFA_def_cfa_register: RBP
  DW_CFA_advance_loc2: 256
  DW_CFA_def_cfa: RSP +8
  DW_CFA_nop:

  0xf6910: CFA=RSP+8: RIP=[CFA-8]
  0xf6911: CFA=RSP+16: RBP=[CFA-16], RIP=[CFA-8]
  0xf6914: CFA=RBP+16: RBP=[CFA-16], RIP=[CFA-8]
  0xf6a14: CFA=RSP+8: RBP=[CFA-16], RIP=[CFA-8]

000051ac 0000001c 000051b0 FDE cie=00000000 pc=000f6a20...000f6b25
  Format:       DWARF32
  DW_CFA_advance_loc: 1
  DW_CFA_def_cfa_offset: +16
  DW_CFA_offset: RBP -16
  DW_CFA_advance_loc: 3
  DW_CFA_def_cfa_register: RBP
  DW_CFA_advance_loc2: 256
  DW_CFA_def_cfa: RSP +8
  DW_CFA_nop:

  0xf6a20: CFA=RSP+8: RIP=[CFA-8]
  0xf6a21: CFA=RSP+16: RBP=[CFA-16], RIP=[CFA-8]
  0xf6a24: CFA=RBP+16: RBP=[CFA-16], RIP=[CFA-8]
  0xf6b24: CFA=RSP+8: RBP=[CFA-16], RIP=[CFA-8]

000051cc 0000001c 000051d0 FDE cie=00000000 pc=000f6b30...000f6c35
  Format:       DWARF32
  DW_CFA_advance_loc: 1
  DW_CFA_def_cfa_offset: +16
  DW_CFA_offset: RBP -16
  DW_CFA_advance_loc: 3
  DW_CFA_def_cfa_register: RBP
  DW_CFA_advance_loc2: 256
  DW_CFA_def_cfa: RSP +8
  DW_CFA_nop:

  0xf6b30: CFA=RSP+8: RIP=[CFA-8]
  0xf6b31: CFA=RSP+16: RBP=[CFA-16], RIP=[CFA-8]
  0xf6b34: CFA=RBP+16: RBP=[CFA-16], RIP=[CFA-8]
  0xf6c34: CFA=RSP+8: RBP=[CFA-16], RIP=[CFA-8]

000051ec 0000001c 000051f0 FDE cie=00000000 pc=000f6c40...000f6d45
  Format:       DWARF32
  DW_CFA_advance_loc: 1
  DW_CFA_def_cfa_offset: +16
  DW_CFA_offset: RBP -16
  DW_CFA_advance_loc: 3
  DW_CFA_def_cfa_register: RBP
  DW_CFA_advance_loc2: 256
  DW_CFA_def_cfa: RSP +8
  DW_CFA_nop:

  0xf6c40: CFA=RSP+8: RIP=[CFA-8]
  0xf6c41: CFA=RSP+16: RBP=[CFA-16], RIP=[CFA-8]
  0xf6c44: CFA=RBP+16: RBP=[CFA-16], RIP=[CFA-8]
  0xf6d44: CFA=RSP+8: RBP=[CFA-16], RIP=[CFA-8]

0000520c 0000001c 00005210 FDE cie=00000000 pc=000f6d50...000f6e55
  Format:       DWARF32
  DW_CFA_advance_loc: 1
  DW_CFA_def_cfa_offset: +16
  DW_CFA_offset: RBP -16
  DW_CFA_advance_loc: 3
  DW_CFA_def_cfa_register: RBP
  DW_CFA_advance_loc2: 256
  DW_CFA_def_cfa: RSP +8
  DW_CFA_nop:

  0xf6d50: CFA=RSP+8: RIP=[CFA-8]
  0xf6d51: CFA=RSP+16: RBP=[CFA-16], RIP=[CFA-8]
  0xf6d54: CFA=RBP+16: RBP=[CFA-16], RIP=[CFA-8]
  0xf6e54: CFA=RSP+8: RBP=[CFA-16], RIP=[CFA-8]

0000522c 0000001c 00005230 FDE cie=00000000 pc=000f6e60...000f6f65
  Format:       DWARF32
  DW_CFA_advance_loc: 1
  DW_CFA_def_cfa_offset: +16
  DW_CFA_offset: RBP -16
  DW_CFA_advance_loc: 3
  DW_CFA_def_cfa_register: RBP
  DW_CFA_advance_loc2: 256
  DW_CFA_def_cfa: RSP +8
  DW_CFA_nop:

  0xf6e60: CFA=RSP+8: RIP=[CFA-8]
  0xf6e61: CFA=RSP+16: RBP=[CFA-16], RIP=[CFA-8]
  0xf6e64: CFA=RBP+16: RBP=[CFA-16], RIP=[CFA-8]
  0xf6f64: CFA=RSP+8: RBP=[CFA-16], RIP=[CFA-8]

0000524c 0000001c 00005250 FDE cie=00000000 pc=000f6f70...000f7075
  Format:       DWARF32
  DW_CFA_advance_loc: 1
  DW_CFA_def_cfa_offset: +16
  DW_CFA_offset: RBP -16
  DW_CFA_advance_loc: 3
  DW_CFA_def_cfa_register: RBP
  DW_CFA_advance_loc2: 256
  DW_CFA_def_cfa: RSP +8
  DW_CFA_nop:

  0xf6f70: CFA=RSP+8: RIP=[CFA-8]
  0xf6f71: CFA=RSP+16: RBP=[CFA-16], RIP=[CFA-8]
  0xf6f74: CFA=RBP+16: RBP=[CFA-16], RIP=[CFA-8]
  0xf7074: CFA=RSP+8: RBP=[CFA-16], RIP=[CFA-8]

0000526c 0000001c 00005270 FDE cie=00000000 pc=000f7080...000f7185
  Format:       DWARF32
  DW_CFA_advance_loc: 1
  DW_CFA_def_cfa_offset: +16
  DW_CFA_offset: RBP -16
  DW_CFA_advance_loc: 3
  DW_CFA_def_cfa_register: RBP
  DW_CFA_advance_loc2: 256
  DW_CFA_def_cfa: RSP +8
  DW_CFA_nop:

  0xf7080: CFA=RSP+8: RIP=[CFA-8]
  0xf7081: CFA=RSP+16: RBP=[CFA-16], RIP=[CFA-8]
  0xf7084: CFA=RBP+16: RBP=[CFA-16], RIP=[CFA-8]
  0xf7184: CFA=RSP+8: RBP=[CFA-16], RIP=[CFA-8]

0000528c 0000001c 00005290 FDE cie=00000000 pc=000f7190...000f7295
  Format:       DWARF32
  DW_CFA_advance_loc: 1
  DW_CFA_def_cfa_offset: +16
  DW_CFA_offset: RBP -16
  DW_CFA_advance_loc: 3
  DW_CFA_def_cfa_register: RBP
  DW_CFA_advance_loc2: 256
  DW_CFA_def_cfa: RSP +8
  DW_CFA_nop:

  0xf7190: CFA=RSP+8: RIP=[CFA-8]
  0xf7191: CFA=RSP+16: RBP=[CFA-16], RIP=[CFA-8]
  0xf7194: CFA=RBP+16: RBP=[CFA-16], RIP=[CFA-8]
  0xf7294: CFA=RSP+8: RBP=[CFA-16], RIP=[CFA-8]

000052ac 0000001c 000052b0 FDE cie=00000000 pc=000f72a0...000f736f
  Format:       DWARF32
  DW_CFA_advance_loc: 1
  DW_CFA_def_cfa_offset: +16
  DW_CFA_offset: RBP -16
  DW_CFA_advance_loc: 3
  DW_CFA_def_cfa_register: RBP
  DW_CFA_advance_loc1: 202
  DW_CFA_def_cfa: RSP +8
  DW_CFA_nop:
  DW_CFA_nop:

  0xf72a0: CFA=RSP+8: RIP=[CFA-8]
  0xf72a1: CFA=RSP+16: RBP=[CFA-16], RIP=[CFA-8]
  0xf72a4: CFA=RBP+16: RBP=[CFA-16], RIP=[CFA-8]
  0xf736e: CFA=RSP+8: RBP=[CFA-16], RIP=[CFA-8]

000052cc 0000001c 000052d0 FDE cie=00000000 pc=000f7370...000f743f
  Format:       DWARF32
  DW_CFA_advance_loc: 1
  DW_CFA_def_cfa_offset: +16
  DW_CFA_offset: RBP -16
  DW_CFA_advance_loc: 3
  DW_CFA_def_cfa_register: RBP
  DW_CFA_advance_loc1: 202
  DW_CFA_def_cfa: RSP +8
  DW_CFA_nop:
  DW_CFA_nop:

  0xf7370: CFA=RSP+8: RIP=[CFA-8]
  0xf7371: CFA=RSP+16: RBP=[CFA-16], RIP=[CFA-8]
  0xf7374: CFA=RBP+16: RBP=[CFA-16], RIP=[CFA-8]
  0xf743e: CFA=RSP+8: RBP=[CFA-16], RIP=[CFA-8]

000052ec 0000001c 000052f0 FDE cie=00000000 pc=000f7440...000f750f
  Format:       DWARF32
  DW_CFA_advance_loc: 1
  DW_CFA_def_cfa_offset: +16
  DW_CFA_offset: RBP -16
  DW_CFA_advance_loc: 3
  DW_CFA_def_cfa_register: RBP
  DW_CFA_advance_loc1: 202
  DW_CFA_def_cfa: RSP +8
  DW_CFA_nop:
  DW_CFA_nop:

  0xf7440: CFA=RSP+8: RIP=[CFA-8]
  0xf7441: CFA=RSP+16: RBP=[CFA-16], RIP=[CFA-8]
  0xf7444: CFA=RBP+16: RBP=[CFA-16], RIP=[CFA-8]
  0xf750e: CFA=RSP+8: RBP=[CFA-16], RIP=[CFA-8]

0000530c 0000001c 00005310 FDE cie=00000000 pc=000f7510...000f7534
  Format:       DWARF32
  DW_CFA_advance_loc: 1
  DW_CFA_def_cfa_offset: +16
  DW_CFA_offset: RBP -16
  DW_CFA_advance_loc: 3
  DW_CFA_def_cfa_register: RBP
  DW_CFA_advance_loc: 31
  DW_CFA_def_cfa: RSP +8
  DW_CFA_nop:
  DW_CFA_nop:
  DW_CFA_nop:

  0xf7510: CFA=RSP+8: RIP=[CFA-8]
  0xf7511: CFA=RSP+16: RBP=[CFA-16], RIP=[CFA-8]
  0xf7514: CFA=RBP+16: RBP=[CFA-16], RIP=[CFA-8]
  0xf7533: CFA=RSP+8: RBP=[CFA-16], RIP=[CFA-8]

0000532c 0000001c 00005330 FDE cie=00000000 pc=000f7540...000f7564
  Format:       DWARF32
  DW_CFA_advance_loc: 1
  DW_CFA_def_cfa_offset: +16
  DW_CFA_offset: RBP -16
  DW_CFA_advance_loc: 3
  DW_CFA_def_cfa_register: RBP
  DW_CFA_advance_loc: 31
  DW_CFA_def_cfa: RSP +8
  DW_CFA_nop:
  DW_CFA_nop:
  DW_CFA_nop:

  0xf7540: CFA=RSP+8: RIP=[CFA-8]
  0xf7541: CFA=RSP+16: RBP=[CFA-16], RIP=[CFA-8]
  0xf7544: CFA=RBP+16: RBP=[CFA-16], RIP=[CFA-8]
  0xf7563: CFA=RSP+8: RBP=[CFA-16], RIP=[CFA-8]

0000534c 0000001c 00005350 FDE cie=00000000 pc=000f7570...000f761c
  Format:       DWARF32
  DW_CFA_advance_loc: 1
  DW_CFA_def_cfa_offset: +16
  DW_CFA_offset: RBP -16
  DW_CFA_advance_loc: 3
  DW_CFA_def_cfa_register: RBP
  DW_CFA_advance_loc1: 167
  DW_CFA_def_cfa: RSP +8
  DW_CFA_nop:
  DW_CFA_nop:

  0xf7570: CFA=RSP+8: RIP=[CFA-8]
  0xf7571: CFA=RSP+16: RBP=[CFA-16], RIP=[CFA-8]
  0xf7574: CFA=RBP+16: RBP=[CFA-16], RIP=[CFA-8]
  0xf761b: CFA=RSP+8: RBP=[CFA-16], RIP=[CFA-8]

0000536c 0000001c 00005370 FDE cie=00000000 pc=000f7620...000f76cc
  Format:       DWARF32
  DW_CFA_advance_loc: 1
  DW_CFA_def_cfa_offset: +16
  DW_CFA_offset: RBP -16
  DW_CFA_advance_loc: 3
  DW_CFA_def_cfa_register: RBP
  DW_CFA_advance_loc1: 167
  DW_CFA_def_cfa: RSP +8
  DW_CFA_nop:
  DW_CFA_nop:

  0xf7620: CFA=RSP+8: RIP=[CFA-8]
  0xf7621: CFA=RSP+16: RBP=[CFA-16], RIP=[CFA-8]
  0xf7624: CFA=RBP+16: RBP=[CFA-16], RIP=[CFA-8]
  0xf76cb: CFA=RSP+8: RBP=[CFA-16], RIP=[CFA-8]

0000538c 0000001c 00005390 FDE cie=00000000 pc=000f76d0...000f771c
  Format:       DWARF32
  DW_CFA_advance_loc: 1
  DW_CFA_def_cfa_offset: +16
  DW_CFA_offset: RBP -16
  DW_CFA_advance_loc: 3
  DW_CFA_def_cfa_register: RBP
  DW_CFA_advance_loc1: 71
  DW_CFA_def_cfa: RSP +8
  DW_CFA_nop:
  DW_CFA_nop:

  0xf76d0: CFA=RSP+8: RIP=[CFA-8]
  0xf76d1: CFA=RSP+16: RBP=[CFA-16], RIP=[CFA-8]
  0xf76d4: CFA=RBP+16: RBP=[CFA-16], RIP=[CFA-8]
  0xf771b: CFA=RSP+8: RBP=[CFA-16], RIP=[CFA-8]

000053ac 0000001c 000053b0 FDE cie=00000000 pc=000f7720...000f776c
  Format:       DWARF32
  DW_CFA_advance_loc: 1
  DW_CFA_def_cfa_offset: +16
  DW_CFA_offset: RBP -16
  DW_CFA_advance_loc: 3
  DW_CFA_def_cfa_register: RBP
  DW_CFA_advance_loc1: 71
  DW_CFA_def_cfa: RSP +8
  DW_CFA_nop:
  DW_CFA_nop:

  0xf7720: CFA=RSP+8: RIP=[CFA-8]
  0xf7721: CFA=RSP+16: RBP=[CFA-16], RIP=[CFA-8]
  0xf7724: CFA=RBP+16: RBP=[CFA-16], RIP=[CFA-8]
  0xf776b: CFA=RSP+8: RBP=[CFA-16], RIP=[CFA-8]

000053cc 0000001c 000053d0 FDE cie=00000000 pc=000f7770...000f77a8
  Format:       DWARF32
  DW_CFA_advance_loc: 1
  DW_CFA_def_cfa_offset: +16
  DW_CFA_offset: RBP -16
  DW_CFA_advance_loc: 3
  DW_CFA_def_cfa_register: RBP
  DW_CFA_advance_loc: 51
  DW_CFA_def_cfa: RSP +8
  DW_CFA_nop:
  DW_CFA_nop:
  DW_CFA_nop:

  0xf7770: CFA=RSP+8: RIP=[CFA-8]
  0xf7771: CFA=RSP+16: RBP=[CFA-16], RIP=[CFA-8]
  0xf7774: CFA=RBP+16: RBP=[CFA-16], RIP=[CFA-8]
  0xf77a7: CFA=RSP+8: RBP=[CFA-16], RIP=[CFA-8]

000053ec 0000001c 000053f0 FDE cie=00000000 pc=000f77b0...000f77e8
  Format:       DWARF32
  DW_CFA_advance_loc: 1
  DW_CFA_def_cfa_offset: +16
  DW_CFA_offset: RBP -16
  DW_CFA_advance_loc: 3
  DW_CFA_def_cfa_register: RBP
  DW_CFA_advance_loc: 51
  DW_CFA_def_cfa: RSP +8
  DW_CFA_nop:
  DW_CFA_nop:
  DW_CFA_nop:

  0xf77b0: CFA=RSP+8: RIP=[CFA-8]
  0xf77b1: CFA=RSP+16: RBP=[CFA-16], RIP=[CFA-8]
  0xf77b4: CFA=RBP+16: RBP=[CFA-16], RIP=[CFA-8]
  0xf77e7: CFA=RSP+8: RBP=[CFA-16], RIP=[CFA-8]

0000540c 0000001c 00005410 FDE cie=00000000 pc=000f77f0...000f7828
  Format:       DWARF32
  DW_CFA_advance_loc: 1
  DW_CFA_def_cfa_offset: +16
  DW_CFA_offset: RBP -16
  DW_CFA_advance_loc: 3
  DW_CFA_def_cfa_register: RBP
  DW_CFA_advance_loc: 51
  DW_CFA_def_cfa: RSP +8
  DW_CFA_nop:
  DW_CFA_nop:
  DW_CFA_nop:

  0xf77f0: CFA=RSP+8: RIP=[CFA-8]
  0xf77f1: CFA=RSP+16: RBP=[CFA-16], RIP=[CFA-8]
  0xf77f4: CFA=RBP+16: RBP=[CFA-16], RIP=[CFA-8]
  0xf7827: CFA=RSP+8: RBP=[CFA-16], RIP=[CFA-8]

0000542c 0000001c 00005430 FDE cie=00000000 pc=000f7830...000f7868
  Format:       DWARF32
  DW_CFA_advance_loc: 1
  DW_CFA_def_cfa_offset: +16
  DW_CFA_offset: RBP -16
  DW_CFA_advance_loc: 3
  DW_CFA_def_cfa_register: RBP
  DW_CFA_advance_loc: 51
  DW_CFA_def_cfa: RSP +8
  DW_CFA_nop:
  DW_CFA_nop:
  DW_CFA_nop:

  0xf7830: CFA=RSP+8: RIP=[CFA-8]
  0xf7831: CFA=RSP+16: RBP=[CFA-16], RIP=[CFA-8]
  0xf7834: CFA=RBP+16: RBP=[CFA-16], RIP=[CFA-8]
  0xf7867: CFA=RSP+8: RBP=[CFA-16], RIP=[CFA-8]

0000544c 0000001c 00005450 FDE cie=00000000 pc=000f7870...000f787e
  Format:       DWARF32
  DW_CFA_advance_loc: 1
  DW_CFA_def_cfa_offset: +16
  DW_CFA_offset: RBP -16
  DW_CFA_advance_loc: 3
  DW_CFA_def_cfa_register: RBP
  DW_CFA_advance_loc: 9
  DW_CFA_def_cfa: RSP +8
  DW_CFA_nop:
  DW_CFA_nop:
  DW_CFA_nop:

  0xf7870: CFA=RSP+8: RIP=[CFA-8]
  0xf7871: CFA=RSP+16: RBP=[CFA-16], RIP=[CFA-8]
  0xf7874: CFA=RBP+16: RBP=[CFA-16], RIP=[CFA-8]
  0xf787d: CFA=RSP+8: RBP=[CFA-16], RIP=[CFA-8]

0000546c 0000001c 00005470 FDE cie=00000000 pc=000f7880...000f7896
  Format:       DWARF32
  DW_CFA_advance_loc: 1
  DW_CFA_def_cfa_offset: +16
  DW_CFA_offset: RBP -16
  DW_CFA_advance_loc: 3
  DW_CFA_def_cfa_register: RBP
  DW_CFA_advance_loc: 17
  DW_CFA_def_cfa: RSP +8
  DW_CFA_nop:
  DW_CFA_nop:
  DW_CFA_nop:

  0xf7880: CFA=RSP+8: RIP=[CFA-8]
  0xf7881: CFA=RSP+16: RBP=[CFA-16], RIP=[CFA-8]
  0xf7884: CFA=RBP+16: RBP=[CFA-16], RIP=[CFA-8]
  0xf7895: CFA=RSP+8: RBP=[CFA-16], RIP=[CFA-8]

0000548c 0000001c 00005490 FDE cie=00000000 pc=000f78a0...000f78b1
  Format:       DWARF32
  DW_CFA_advance_loc: 1
  DW_CFA_def_cfa_offset: +16
  DW_CFA_offset: RBP -16
  DW_CFA_advance_loc: 3
  DW_CFA_def_cfa_register: RBP
  DW_CFA_advance_loc: 12
  DW_CFA_def_cfa: RSP +8
  DW_CFA_nop:
  DW_CFA_nop:
  DW_CFA_nop:

  0xf78a0: CFA=RSP+8: RIP=[CFA-8]
  0xf78a1: CFA=RSP+16: RBP=[CFA-16], RIP=[CFA-8]
  0xf78a4: CFA=RBP+16: RBP=[CFA-16], RIP=[CFA-8]
  0xf78b0: CFA=RSP+8: RBP=[CFA-16], RIP=[CFA-8]

000054ac 0000001c 000054b0 FDE cie=00000000 pc=000f78c0...000f78d9
  Format:       DWARF32
  DW_CFA_advance_loc: 1
  DW_CFA_def_cfa_offset: +16
  DW_CFA_offset: RBP -16
  DW_CFA_advance_loc: 3
  DW_CFA_def_cfa_register: RBP
  DW_CFA_advance_loc: 20
  DW_CFA_def_cfa: RSP +8
  DW_CFA_nop:
  DW_CFA_nop:
  DW_CFA_nop:

  0xf78c0: CFA=RSP+8: RIP=[CFA-8]
  0xf78c1: CFA=RSP+16: RBP=[CFA-16], RIP=[CFA-8]
  0xf78c4: CFA=RBP+16: RBP=[CFA-16], RIP=[CFA-8]
  0xf78d8: CFA=RSP+8: RBP=[CFA-16], RIP=[CFA-8]

000054cc 0000001c 000054d0 FDE cie=00000000 pc=000f78e0...000f78fa
  Format:       DWARF32
  DW_CFA_advance_loc: 1
  DW_CFA_def_cfa_offset: +16
  DW_CFA_offset: RBP -16
  DW_CFA_advance_loc: 3
  DW_CFA_def_cfa_register: RBP
  DW_CFA_advance_loc: 21
  DW_CFA_def_cfa: RSP +8
  DW_CFA_nop:
  DW_CFA_nop:
  DW_CFA_nop:

  0xf78e0: CFA=RSP+8: RIP=[CFA-8]
  0xf78e1: CFA=RSP+16: RBP=[CFA-16], RIP=[CFA-8]
  0xf78e4: CFA=RBP+16: RBP=[CFA-16], RIP=[CFA-8]
  0xf78f9: CFA=RSP+8: RBP=[CFA-16], RIP=[CFA-8]

000054ec 0000001c 000054f0 FDE cie=00000000 pc=000f7900...000f791a
  Format:       DWARF32
  DW_CFA_advance_loc: 1
  DW_CFA_def_cfa_offset: +16
  DW_CFA_offset: RBP -16
  DW_CFA_advance_loc: 3
  DW_CFA_def_cfa_register: RBP
  DW_CFA_advance_loc: 21
  DW_CFA_def_cfa: RSP +8
  DW_CFA_nop:
  DW_CFA_nop:
  DW_CFA_nop:

  0xf7900: CFA=RSP+8: RIP=[CFA-8]
  0xf7901: CFA=RSP+16: RBP=[CFA-16], RIP=[CFA-8]
  0xf7904: CFA=RBP+16: RBP=[CFA-16], RIP=[CFA-8]
  0xf7919: CFA=RSP+8: RBP=[CFA-16], RIP=[CFA-8]

0000550c 0000001c 00005510 FDE cie=00000000 pc=000f7920...000f793b
  Format:       DWARF32
  DW_CFA_advance_loc: 1
  DW_CFA_def_cfa_offset: +16
  DW_CFA_offset: RBP -16
  DW_CFA_advance_loc: 3
  DW_CFA_def_cfa_register: RBP
  DW_CFA_advance_loc: 22
  DW_CFA_def_cfa: RSP +8
  DW_CFA_nop:
  DW_CFA_nop:
  DW_CFA_nop:

  0xf7920: CFA=RSP+8: RIP=[CFA-8]
  0xf7921: CFA=RSP+16: RBP=[CFA-16], RIP=[CFA-8]
  0xf7924: CFA=RBP+16: RBP=[CFA-16], RIP=[CFA-8]
  0xf793a: CFA=RSP+8: RBP=[CFA-16], RIP=[CFA-8]

0000552c 0000001c 00005530 FDE cie=00000000 pc=000f7940...000f795b
  Format:       DWARF32
  DW_CFA_advance_loc: 1
  DW_CFA_def_cfa_offset: +16
  DW_CFA_offset: RBP -16
  DW_CFA_advance_loc: 3
  DW_CFA_def_cfa_register: RBP
  DW_CFA_advance_loc: 22
  DW_CFA_def_cfa: RSP +8
  DW_CFA_nop:
  DW_CFA_nop:
  DW_CFA_nop:

  0xf7940: CFA=RSP+8: RIP=[CFA-8]
  0xf7941: CFA=RSP+16: RBP=[CFA-16], RIP=[CFA-8]
  0xf7944: CFA=RBP+16: RBP=[CFA-16], RIP=[CFA-8]
  0xf795a: CFA=RSP+8: RBP=[CFA-16], RIP=[CFA-8]

0000554c 0000001c 00005550 FDE cie=00000000 pc=000f7960...000f7987
  Format:       DWARF32
  DW_CFA_advance_loc: 1
  DW_CFA_def_cfa_offset: +16
  DW_CFA_offset: RBP -16
  DW_CFA_advance_loc: 3
  DW_CFA_def_cfa_register: RBP
  DW_CFA_advance_loc: 34
  DW_CFA_def_cfa: RSP +8
  DW_CFA_nop:
  DW_CFA_nop:
  DW_CFA_nop:

  0xf7960: CFA=RSP+8: RIP=[CFA-8]
  0xf7961: CFA=RSP+16: RBP=[CFA-16], RIP=[CFA-8]
  0xf7964: CFA=RBP+16: RBP=[CFA-16], RIP=[CFA-8]
  0xf7986: CFA=RSP+8: RBP=[CFA-16], RIP=[CFA-8]

0000556c 00000028 00005570 FDE cie=00000000 pc=000f7990...000f7aa4
  Format:       DWARF32
  DW_CFA_advance_loc: 1
  DW_CFA_def_cfa_offset: +16
  DW_CFA_offset: RBP -16
  DW_CFA_advance_loc: 3
  DW_CFA_def_cfa_register: RBP
  DW_CFA_advance_loc: 16
  DW_CFA_offset: RBX -56
  DW_CFA_offset: R12 -48
  DW_CFA_offset: R13 -40
  DW_CFA_offset: R14 -32
  DW_CFA_offset: R15 -24
  DW_CFA_advance_loc1: 255
  DW_CFA_def_cfa: RSP +8
  DW_CFA_nop:
  DW_CFA_nop:
  DW_CFA_nop:

  0xf7990: CFA=RSP+8: RIP=[CFA-8]
  0xf7991: CFA=RSP+16: RBP=[CFA-16], RIP=[CFA-8]
  0xf7994: CFA=RBP+16: RBP=[CFA-16], RIP=[CFA-8]
  0xf79a4: CFA=RBP+16: RBX=[CFA-56], RBP=[CFA-16], R12=[CFA-48], R13=[CFA-40], R14=[CFA-32], R15=[CFA-24], RIP=[CFA-8]
  0xf7aa3: CFA=RSP+8: RBX=[CFA-56], RBP=[CFA-16], R12=[CFA-48], R13=[CFA-40], R14=[CFA-32], R15=[CFA-24], RIP=[CFA-8]

00005598 0000001c 0000559c FDE cie=00000000 pc=000f7ab0...000f7ad7
  Format:       DWARF32
  DW_CFA_advance_loc: 1
  DW_CFA_def_cfa_offset: +16
  DW_CFA_offset: RBP -16
  DW_CFA_advance_loc: 3
  DW_CFA_def_cfa_register: RBP
  DW_CFA_advance_loc: 34
  DW_CFA_def_cfa: RSP +8
  DW_CFA_nop:
  DW_CFA_nop:
  DW_CFA_nop:

  0xf7ab0: CFA=RSP+8: RIP=[CFA-8]
  0xf7ab1: CFA=RSP+16: RBP=[CFA-16], RIP=[CFA-8]
  0xf7ab4: CFA=RBP+16: RBP=[CFA-16], RIP=[CFA-8]
  0xf7ad6: CFA=RSP+8: RBP=[CFA-16], RIP=[CFA-8]

000055b8 00000024 000055bc FDE cie=00000000 pc=000f7ae0...000f7c88
  Format:       DWARF32
  DW_CFA_advance_loc: 1
  DW_CFA_def_cfa_offset: +16
  DW_CFA_offset: RBP -16
  DW_CFA_advance_loc: 3
  DW_CFA_def_cfa_register: RBP
  DW_CFA_advance_loc: 12
  DW_CFA_offset: RBX -40
  DW_CFA_offset: R14 -32
  DW_CFA_offset: R15 -24
  DW_CFA_advance_loc2: 407
  DW_CFA_def_cfa: RSP +8
  DW_CFA_nop:
  DW_CFA_nop:

  0xf7ae0: CFA=RSP+8: RIP=[CFA-8]
  0xf7ae1: CFA=RSP+16: RBP=[CFA-16], RIP=[CFA-8]
  0xf7ae4: CFA=RBP+16: RBP=[CFA-16], RIP=[CFA-8]
  0xf7af0: CFA=RBP+16: RBX=[CFA-40], RBP=[CFA-16], R14=[CFA-32], R15=[CFA-24], RIP=[CFA-8]
  0xf7c87: CFA=RSP+8: RBX=[CFA-40], RBP=[CFA-16], R14=[CFA-32], R15=[CFA-24], RIP=[CFA-8]

000055e0 0000001c 000055e4 FDE cie=00000000 pc=000f7c90...000f7cbb
  Format:       DWARF32
  DW_CFA_advance_loc: 1
  DW_CFA_def_cfa_offset: +16
  DW_CFA_offset: RBP -16
  DW_CFA_advance_loc: 3
  DW_CFA_def_cfa_register: RBP
  DW_CFA_advance_loc: 38
  DW_CFA_def_cfa: RSP +8
  DW_CFA_nop:
  DW_CFA_nop:
  DW_CFA_nop:

  0xf7c90: CFA=RSP+8: RIP=[CFA-8]
  0xf7c91: CFA=RSP+16: RBP=[CFA-16], RIP=[CFA-8]
  0xf7c94: CFA=RBP+16: RBP=[CFA-16], RIP=[CFA-8]
  0xf7cba: CFA=RSP+8: RBP=[CFA-16], RIP=[CFA-8]

00005600 00000028 00005604 FDE cie=00000000 pc=000f7cc0...000f7dfd
  Format:       DWARF32
  DW_CFA_advance_loc: 1
  DW_CFA_def_cfa_offset: +16
  DW_CFA_offset: RBP -16
  DW_CFA_advance_loc: 3
  DW_CFA_def_cfa_register: RBP
  DW_CFA_advance_loc: 16
  DW_CFA_offset: RBX -56
  DW_CFA_offset: R12 -48
  DW_CFA_offset: R13 -40
  DW_CFA_offset: R14 -32
  DW_CFA_offset: R15 -24
  DW_CFA_advance_loc2: 296
  DW_CFA_def_cfa: RSP +8
  DW_CFA_nop:
  DW_CFA_nop:

  0xf7cc0: CFA=RSP+8: RIP=[CFA-8]
  0xf7cc1: CFA=RSP+16: RBP=[CFA-16], RIP=[CFA-8]
  0xf7cc4: CFA=RBP+16: RBP=[CFA-16], RIP=[CFA-8]
  0xf7cd4: CFA=RBP+16: RBX=[CFA-56], RBP=[CFA-16], R12=[CFA-48], R13=[CFA-40], R14=[CFA-32], R15=[CFA-24], RIP=[CFA-8]
  0xf7dfc: CFA=RSP+8: RBX=[CFA-56], RBP=[CFA-16], R12=[CFA-48], R13=[CFA-40], R14=[CFA-32], R15=[CFA-24], RIP=[CFA-8]

0000562c 0000001c 00005630 FDE cie=00000000 pc=000f7e00...000f7e2b
  Format:       DWARF32
  DW_CFA_advance_loc: 1
  DW_CFA_def_cfa_offset: +16
  DW_CFA_offset: RBP -16
  DW_CFA_advance_loc: 3
  DW_CFA_def_cfa_register: RBP
  DW_CFA_advance_loc: 38
  DW_CFA_def_cfa: RSP +8
  DW_CFA_nop:
  DW_CFA_nop:
  DW_CFA_nop:

  0xf7e00: CFA=RSP+8: RIP=[CFA-8]
  0xf7e01: CFA=RSP+16: RBP=[CFA-16], RIP=[CFA-8]
  0xf7e04: CFA=RBP+16: RBP=[CFA-16], RIP=[CFA-8]
  0xf7e2a: CFA=RSP+8: RBP=[CFA-16], RIP=[CFA-8]

0000564c 00000028 00005650 FDE cie=00000000 pc=000f7e30...000f7f6d
  Format:       DWARF32
  DW_CFA_advance_loc: 1
  DW_CFA_def_cfa_offset: +16
  DW_CFA_offset: RBP -16
  DW_CFA_advance_loc: 3
  DW_CFA_def_cfa_register: RBP
  DW_CFA_advance_loc: 16
  DW_CFA_offset: RBX -56
  DW_CFA_offset: R12 -48
  DW_CFA_offset: R13 -40
  DW_CFA_offset: R14 -32
  DW_CFA_offset: R15 -24
  DW_CFA_advance_loc2: 296
  DW_CFA_def_cfa: RSP +8
  DW_CFA_nop:
  DW_CFA_nop:

  0xf7e30: CFA=RSP+8: RIP=[CFA-8]
  0xf7e31: CFA=RSP+16: RBP=[CFA-16], RIP=[CFA-8]
  0xf7e34: CFA=RBP+16: RBP=[CFA-16], RIP=[CFA-8]
  0xf7e44: CFA=RBP+16: RBX=[CFA-56], RBP=[CFA-16], R12=[CFA-48], R13=[CFA-40], R14=[CFA-32], R15=[CFA-24], RIP=[CFA-8]
  0xf7f6c: CFA=RSP+8: RBX=[CFA-56], RBP=[CFA-16], R12=[CFA-48], R13=[CFA-40], R14=[CFA-32], R15=[CFA-24], RIP=[CFA-8]

00005678 0000001c 0000567c FDE cie=00000000 pc=000f7f70...000f7f97
  Format:       DWARF32
  DW_CFA_advance_loc: 1
  DW_CFA_def_cfa_offset: +16
  DW_CFA_offset: RBP -16
  DW_CFA_advance_loc: 3
  DW_CFA_def_cfa_register: RBP
  DW_CFA_advance_loc: 34
  DW_CFA_def_cfa: RSP +8
  DW_CFA_nop:
  DW_CFA_nop:
  DW_CFA_nop:

  0xf7f70: CFA=RSP+8: RIP=[CFA-8]
  0xf7f71: CFA=RSP+16: RBP=[CFA-16], RIP=[CFA-8]
  0xf7f74: CFA=RBP+16: RBP=[CFA-16], RIP=[CFA-8]
  0xf7f96: CFA=RSP+8: RBP=[CFA-16], RIP=[CFA-8]

00005698 00000028 0000569c FDE cie=00000000 pc=000f7fa0...000f80db
  Format:       DWARF32
  DW_CFA_advance_loc: 1
  DW_CFA_def_cfa_offset: +16
  DW_CFA_offset: RBP -16
  DW_CFA_advance_loc: 3
  DW_CFA_def_cfa_register: RBP
  DW_CFA_advance_loc: 16
  DW_CFA_offset: RBX -56
  DW_CFA_offset: R12 -48
  DW_CFA_offset: R13 -40
  DW_CFA_offset: R14 -32
  DW_CFA_offset: R15 -24
  DW_CFA_advance_loc2: 294
  DW_CFA_def_cfa: RSP +8
  DW_CFA_nop:
  DW_CFA_nop:

  0xf7fa0: CFA=RSP+8: RIP=[CFA-8]
  0xf7fa1: CFA=RSP+16: RBP=[CFA-16], RIP=[CFA-8]
  0xf7fa4: CFA=RBP+16: RBP=[CFA-16], RIP=[CFA-8]
  0xf7fb4: CFA=RBP+16: RBX=[CFA-56], RBP=[CFA-16], R12=[CFA-48], R13=[CFA-40], R14=[CFA-32], R15=[CFA-24], RIP=[CFA-8]
  0xf80da: CFA=RSP+8: RBX=[CFA-56], RBP=[CFA-16], R12=[CFA-48], R13=[CFA-40], R14=[CFA-32], R15=[CFA-24], RIP=[CFA-8]

000056c4 0000001c 000056c8 FDE cie=00000000 pc=000f80e0...000f8103
  Format:       DWARF32
  DW_CFA_advance_loc: 1
  DW_CFA_def_cfa_offset: +16
  DW_CFA_offset: RBP -16
  DW_CFA_advance_loc: 3
  DW_CFA_def_cfa_register: RBP
  DW_CFA_advance_loc: 30
  DW_CFA_def_cfa: RSP +8
  DW_CFA_nop:
  DW_CFA_nop:
  DW_CFA_nop:

  0xf80e0: CFA=RSP+8: RIP=[CFA-8]
  0xf80e1: CFA=RSP+16: RBP=[CFA-16], RIP=[CFA-8]
  0xf80e4: CFA=RBP+16: RBP=[CFA-16], RIP=[CFA-8]
  0xf8102: CFA=RSP+8: RBP=[CFA-16], RIP=[CFA-8]

000056e4 00000024 000056e8 FDE cie=00000000 pc=000f8110...000f81d0
  Format:       DWARF32
  DW_CFA_advance_loc: 1
  DW_CFA_def_cfa_offset: +16
  DW_CFA_offset: RBP -16
  DW_CFA_advance_loc: 3
  DW_CFA_def_cfa_register: RBP
  DW_CFA_advance_loc: 11
  DW_CFA_offset: RBX -48
  DW_CFA_offset: R12 -40
  DW_CFA_offset: R14 -32
  DW_CFA_offset: R15 -24
  DW_CFA_advance_loc1: 176
  DW_CFA_def_cfa: RSP +8
  DW_CFA_nop:

  0xf8110: CFA=RSP+8: RIP=[CFA-8]
  0xf8111: CFA=RSP+16: RBP=[CFA-16], RIP=[CFA-8]
  0xf8114: CFA=RBP+16: RBP=[CFA-16], RIP=[CFA-8]
  0xf811f: CFA=RBP+16: RBX=[CFA-48], RBP=[CFA-16], R12=[CFA-40], R14=[CFA-32], R15=[CFA-24], RIP=[CFA-8]
  0xf81cf: CFA=RSP+8: RBX=[CFA-48], RBP=[CFA-16], R12=[CFA-40], R14=[CFA-32], R15=[CFA-24], RIP=[CFA-8]

0000570c 0000001c 00005710 FDE cie=00000000 pc=000f81d0...000f8236
  Format:       DWARF32
  DW_CFA_advance_loc: 1
  DW_CFA_def_cfa_offset: +16
  DW_CFA_offset: RBP -16
  DW_CFA_advance_loc: 3
  DW_CFA_def_cfa_register: RBP
  DW_CFA_advance_loc1: 97
  DW_CFA_def_cfa: RSP +8
  DW_CFA_nop:
  DW_CFA_nop:

  0xf81d0: CFA=RSP+8: RIP=[CFA-8]
  0xf81d1: CFA=RSP+16: RBP=[CFA-16], RIP=[CFA-8]
  0xf81d4: CFA=RBP+16: RBP=[CFA-16], RIP=[CFA-8]
  0xf8235: CFA=RSP+8: RBP=[CFA-16], RIP=[CFA-8]

0000572c 0000001c 00005730 FDE cie=00000000 pc=000f8240...000f8267
  Format:       DWARF32
  DW_CFA_advance_loc: 1
  DW_CFA_def_cfa_offset: +16
  DW_CFA_offset: RBP -16
  DW_CFA_advance_loc: 3
  DW_CFA_def_cfa_register: RBP
  DW_CFA_advance_loc: 34
  DW_CFA_def_cfa: RSP +8
  DW_CFA_nop:
  DW_CFA_nop:
  DW_CFA_nop:

  0xf8240: CFA=RSP+8: RIP=[CFA-8]
  0xf8241: CFA=RSP+16: RBP=[CFA-16], RIP=[CFA-8]
  0xf8244: CFA=RBP+16: RBP=[CFA-16], RIP=[CFA-8]
  0xf8266: CFA=RSP+8: RBP=[CFA-16], RIP=[CFA-8]

0000574c 00000028 00005750 FDE cie=00000000 pc=000f8270...000f8522
  Format:       DWARF32
  DW_CFA_advance_loc: 1
  DW_CFA_def_cfa_offset: +16
  DW_CFA_offset: RBP -16
  DW_CFA_advance_loc: 3
  DW_CFA_def_cfa_register: RBP
  DW_CFA_advance_loc: 16
  DW_CFA_offset: RBX -56
  DW_CFA_offset: R12 -48
  DW_CFA_offset: R13 -40
  DW_CFA_offset: R14 -32
  DW_CFA_offset: R15 -24
  DW_CFA_advance_loc2: 669
  DW_CFA_def_cfa: RSP +8
  DW_CFA_nop:
  DW_CFA_nop:

  0xf8270: CFA=RSP+8: RIP=[CFA-8]
  0xf8271: CFA=RSP+16: RBP=[CFA-16], RIP=[CFA-8]
  0xf8274: CFA=RBP+16: RBP=[CFA-16], RIP=[CFA-8]
  0xf8284: CFA=RBP+16: RBX=[CFA-56], RBP=[CFA-16], R12=[CFA-48], R13=[CFA-40], R14=[CFA-32], R15=[CFA-24], RIP=[CFA-8]
  0xf8521: CFA=RSP+8: RBX=[CFA-56], RBP=[CFA-16], R12=[CFA-48], R13=[CFA-40], R14=[CFA-32], R15=[CFA-24], RIP=[CFA-8]

00005778 0000001c 0000577c FDE cie=00000000 pc=000f8530...000f8557
  Format:       DWARF32
  DW_CFA_advance_loc: 1
  DW_CFA_def_cfa_offset: +16
  DW_CFA_offset: RBP -16
  DW_CFA_advance_loc: 3
  DW_CFA_def_cfa_register: RBP
  DW_CFA_advance_loc: 34
  DW_CFA_def_cfa: RSP +8
  DW_CFA_nop:
  DW_CFA_nop:
  DW_CFA_nop:

  0xf8530: CFA=RSP+8: RIP=[CFA-8]
  0xf8531: CFA=RSP+16: RBP=[CFA-16], RIP=[CFA-8]
  0xf8534: CFA=RBP+16: RBP=[CFA-16], RIP=[CFA-8]
  0xf8556: CFA=RSP+8: RBP=[CFA-16], RIP=[CFA-8]

00005798 00000028 0000579c FDE cie=00000000 pc=000f8560...000f8812
  Format:       DWARF32
  DW_CFA_advance_loc: 1
  DW_CFA_def_cfa_offset: +16
  DW_CFA_offset: RBP -16
  DW_CFA_advance_loc: 3
  DW_CFA_def_cfa_register: RBP
  DW_CFA_advance_loc: 16
  DW_CFA_offset: RBX -56
  DW_CFA_offset: R12 -48
  DW_CFA_offset: R13 -40
  DW_CFA_offset: R14 -32
  DW_CFA_offset: R15 -24
  DW_CFA_advance_loc2: 669
  DW_CFA_def_cfa: RSP +8
  DW_CFA_nop:
  DW_CFA_nop:

  0xf8560: CFA=RSP+8: RIP=[CFA-8]
  0xf8561: CFA=RSP+16: RBP=[CFA-16], RIP=[CFA-8]
  0xf8564: CFA=RBP+16: RBP=[CFA-16], RIP=[CFA-8]
  0xf8574: CFA=RBP+16: RBX=[CFA-56], RBP=[CFA-16], R12=[CFA-48], R13=[CFA-40], R14=[CFA-32], R15=[CFA-24], RIP=[CFA-8]
  0xf8811: CFA=RSP+8: RBX=[CFA-56], RBP=[CFA-16], R12=[CFA-48], R13=[CFA-40], R14=[CFA-32], R15=[CFA-24], RIP=[CFA-8]

000057c4 0000001c 000057c8 FDE cie=00000000 pc=000f8820...000f8847
  Format:       DWARF32
  DW_CFA_advance_loc: 1
  DW_CFA_def_cfa_offset: +16
  DW_CFA_offset: RBP -16
  DW_CFA_advance_loc: 3
  DW_CFA_def_cfa_register: RBP
  DW_CFA_advance_loc: 34
  DW_CFA_def_cfa: RSP +8
  DW_CFA_nop:
  DW_CFA_nop:
  DW_CFA_nop:

  0xf8820: CFA=RSP+8: RIP=[CFA-8]
  0xf8821: CFA=RSP+16: RBP=[CFA-16], RIP=[CFA-8]
  0xf8824: CFA=RBP+16: RBP=[CFA-16], RIP=[CFA-8]
  0xf8846: CFA=RSP+8: RBP=[CFA-16], RIP=[CFA-8]

000057e4 00000024 000057e8 FDE cie=00000000 pc=000f8850...000f8a1b
  Format:       DWARF32
  DW_CFA_advance_loc: 1
  DW_CFA_def_cfa_offset: +16
  DW_CFA_offset: RBP -16
  DW_CFA_advance_loc: 3
  DW_CFA_def_cfa_register: RBP
  DW_CFA_advance_loc: 14
  DW_CFA_offset: RBX -48
  DW_CFA_offset: R12 -40
  DW_CFA_offset: R14 -32
  DW_CFA_offset: R15 -24
  DW_CFA_advance_loc2: 440
  DW_CFA_def_cfa: RSP +8

  0xf8850: CFA=RSP+8: RIP=[CFA-8]
  0xf8851: CFA=RSP+16: RBP=[CFA-16], RIP=[CFA-8]
  0xf8854: CFA=RBP+16: RBP=[CFA-16], RIP=[CFA-8]
  0xf8862: CFA=RBP+16: RBX=[CFA-48], RBP=[CFA-16], R12=[CFA-40], R14=[CFA-32], R15=[CFA-24], RIP=[CFA-8]
  0xf8a1a: CFA=RSP+8: RBX=[CFA-48], RBP=[CFA-16], R12=[CFA-40], R14=[CFA-32], R15=[CFA-24], RIP=[CFA-8]

0000580c 0000001c 00005810 FDE cie=00000000 pc=000f8a20...000f8a47
  Format:       DWARF32
  DW_CFA_advance_loc: 1
  DW_CFA_def_cfa_offset: +16
  DW_CFA_offset: RBP -16
  DW_CFA_advance_loc: 3
  DW_CFA_def_cfa_register: RBP
  DW_CFA_advance_loc: 34
  DW_CFA_def_cfa: RSP +8
  DW_CFA_nop:
  DW_CFA_nop:
  DW_CFA_nop:

  0xf8a20: CFA=RSP+8: RIP=[CFA-8]
  0xf8a21: CFA=RSP+16: RBP=[CFA-16], RIP=[CFA-8]
  0xf8a24: CFA=RBP+16: RBP=[CFA-16], RIP=[CFA-8]
  0xf8a46: CFA=RSP+8: RBP=[CFA-16], RIP=[CFA-8]

0000582c 00000024 00005830 FDE cie=00000000 pc=000f8a50...000f8c1b
  Format:       DWARF32
  DW_CFA_advance_loc: 1
  DW_CFA_def_cfa_offset: +16
  DW_CFA_offset: RBP -16
  DW_CFA_advance_loc: 3
  DW_CFA_def_cfa_register: RBP
  DW_CFA_advance_loc: 14
  DW_CFA_offset: RBX -48
  DW_CFA_offset: R12 -40
  DW_CFA_offset: R14 -32
  DW_CFA_offset: R15 -24
  DW_CFA_advance_loc2: 440
  DW_CFA_def_cfa: RSP +8

  0xf8a50: CFA=RSP+8: RIP=[CFA-8]
  0xf8a51: CFA=RSP+16: RBP=[CFA-16], RIP=[CFA-8]
  0xf8a54: CFA=RBP+16: RBP=[CFA-16], RIP=[CFA-8]
  0xf8a62: CFA=RBP+16: RBX=[CFA-48], RBP=[CFA-16], R12=[CFA-40], R14=[CFA-32], R15=[CFA-24], RIP=[CFA-8]
  0xf8c1a: CFA=RSP+8: RBX=[CFA-48], RBP=[CFA-16], R12=[CFA-40], R14=[CFA-32], R15=[CFA-24], RIP=[CFA-8]

00005854 0000001c 00005858 FDE cie=00000000 pc=000f8c20...000f8c47
  Format:       DWARF32
  DW_CFA_advance_loc: 1
  DW_CFA_def_cfa_offset: +16
  DW_CFA_offset: RBP -16
  DW_CFA_advance_loc: 3
  DW_CFA_def_cfa_register: RBP
  DW_CFA_advance_loc: 34
  DW_CFA_def_cfa: RSP +8
  DW_CFA_nop:
  DW_CFA_nop:
  DW_CFA_nop:

  0xf8c20: CFA=RSP+8: RIP=[CFA-8]
  0xf8c21: CFA=RSP+16: RBP=[CFA-16], RIP=[CFA-8]
  0xf8c24: CFA=RBP+16: RBP=[CFA-16], RIP=[CFA-8]
  0xf8c46: CFA=RSP+8: RBP=[CFA-16], RIP=[CFA-8]

00005874 0000001c 00005878 FDE cie=00000000 pc=000f8c50...000f8ca8
  Format:       DWARF32
  DW_CFA_advance_loc: 1
  DW_CFA_def_cfa_offset: +16
  DW_CFA_offset: RBP -16
  DW_CFA_advance_loc: 3
  DW_CFA_def_cfa_register: RBP
  DW_CFA_advance_loc1: 83
  DW_CFA_def_cfa: RSP +8
  DW_CFA_nop:
  DW_CFA_nop:

  0xf8c50: CFA=RSP+8: RIP=[CFA-8]
  0xf8c51: CFA=RSP+16: RBP=[CFA-16], RIP=[CFA-8]
  0xf8c54: CFA=RBP+16: RBP=[CFA-16], RIP=[CFA-8]
  0xf8ca7: CFA=RSP+8: RBP=[CFA-16], RIP=[CFA-8]

00005894 0000001c 00005898 FDE cie=00000000 pc=000f8cb0...000f8ccb
  Format:       DWARF32
  DW_CFA_advance_loc: 1
  DW_CFA_def_cfa_offset: +16
  DW_CFA_offset: RBP -16
  DW_CFA_advance_loc: 3
  DW_CFA_def_cfa_register: RBP
  DW_CFA_advance_loc: 22
  DW_CFA_def_cfa: RSP +8
  DW_CFA_nop:
  DW_CFA_nop:
  DW_CFA_nop:

  0xf8cb0: CFA=RSP+8: RIP=[CFA-8]
  0xf8cb1: CFA=RSP+16: RBP=[CFA-16], RIP=[CFA-8]
  0xf8cb4: CFA=RBP+16: RBP=[CFA-16], RIP=[CFA-8]
  0xf8cca: CFA=RSP+8: RBP=[CFA-16], RIP=[CFA-8]

000058b4 00000024 000058b8 FDE cie=00000000 pc=000f8cd0...000f8d90
  Format:       DWARF32
  DW_CFA_advance_loc: 1
  DW_CFA_def_cfa_offset: +16
  DW_CFA_offset: RBP -16
  DW_CFA_advance_loc: 3
  DW_CFA_def_cfa_register: RBP
  DW_CFA_advance_loc: 11
  DW_CFA_offset: RBX -48
  DW_CFA_offset: R12 -40
  DW_CFA_offset: R14 -32
  DW_CFA_offset: R15 -24
  DW_CFA_advance_loc1: 176
  DW_CFA_def_cfa: RSP +8
  DW_CFA_nop:

  0xf8cd0: CFA=RSP+8: RIP=[CFA-8]
  0xf8cd1: CFA=RSP+16: RBP=[CFA-16], RIP=[CFA-8]
  0xf8cd4: CFA=RBP+16: RBP=[CFA-16], RIP=[CFA-8]
  0xf8cdf: CFA=RBP+16: RBX=[CFA-48], RBP=[CFA-16], R12=[CFA-40], R14=[CFA-32], R15=[CFA-24], RIP=[CFA-8]
  0xf8d8f: CFA=RSP+8: RBX=[CFA-48], RBP=[CFA-16], R12=[CFA-40], R14=[CFA-32], R15=[CFA-24], RIP=[CFA-8]

000058dc 0000001c 000058e0 FDE cie=00000000 pc=000f8d90...000f8dab
  Format:       DWARF32
  DW_CFA_advance_loc: 1
  DW_CFA_def_cfa_offset: +16
  DW_CFA_offset: RBP -16
  DW_CFA_advance_loc: 3
  DW_CFA_def_cfa_register: RBP
  DW_CFA_advance_loc: 22
  DW_CFA_def_cfa: RSP +8
  DW_CFA_nop:
  DW_CFA_nop:
  DW_CFA_nop:

  0xf8d90: CFA=RSP+8: RIP=[CFA-8]
  0xf8d91: CFA=RSP+16: RBP=[CFA-16], RIP=[CFA-8]
  0xf8d94: CFA=RBP+16: RBP=[CFA-16], RIP=[CFA-8]
  0xf8daa: CFA=RSP+8: RBP=[CFA-16], RIP=[CFA-8]

000058fc 0000001c 00005900 FDE cie=00000000 pc=000f8db0...000f8e08
  Format:       DWARF32
  DW_CFA_advance_loc: 1
  DW_CFA_def_cfa_offset: +16
  DW_CFA_offset: RBP -16
  DW_CFA_advance_loc: 3
  DW_CFA_def_cfa_register: RBP
  DW_CFA_advance_loc1: 83
  DW_CFA_def_cfa: RSP +8
  DW_CFA_nop:
  DW_CFA_nop:

  0xf8db0: CFA=RSP+8: RIP=[CFA-8]
  0xf8db1: CFA=RSP+16: RBP=[CFA-16], RIP=[CFA-8]
  0xf8db4: CFA=RBP+16: RBP=[CFA-16], RIP=[CFA-8]
  0xf8e07: CFA=RSP+8: RBP=[CFA-16], RIP=[CFA-8]

0000591c 0000001c 00005920 FDE cie=00000000 pc=000f8e10...000f8e37
  Format:       DWARF32
  DW_CFA_advance_loc: 1
  DW_CFA_def_cfa_offset: +16
  DW_CFA_offset: RBP -16
  DW_CFA_advance_loc: 3
  DW_CFA_def_cfa_register: RBP
  DW_CFA_advance_loc: 34
  DW_CFA_def_cfa: RSP +8
  DW_CFA_nop:
  DW_CFA_nop:
  DW_CFA_nop:

  0xf8e10: CFA=RSP+8: RIP=[CFA-8]
  0xf8e11: CFA=RSP+16: RBP=[CFA-16], RIP=[CFA-8]
  0xf8e14: CFA=RBP+16: RBP=[CFA-16], RIP=[CFA-8]
  0xf8e36: CFA=RSP+8: RBP=[CFA-16], RIP=[CFA-8]

0000593c 00000024 00005940 FDE cie=00000000 pc=000f8e40...000f8fed
  Format:       DWARF32
  DW_CFA_advance_loc: 1
  DW_CFA_def_cfa_offset: +16
  DW_CFA_offset: RBP -16
  DW_CFA_advance_loc: 3
  DW_CFA_def_cfa_register: RBP
  DW_CFA_advance_loc: 12
  DW_CFA_offset: RBX -40
  DW_CFA_offset: R14 -32
  DW_CFA_offset: R15 -24
  DW_CFA_advance_loc2: 412
  DW_CFA_def_cfa: RSP +8
  DW_CFA_nop:
  DW_CFA_nop:

  0xf8e40: CFA=RSP+8: RIP=[CFA-8]
  0xf8e41: CFA=RSP+16: RBP=[CFA-16], RIP=[CFA-8]
  0xf8e44: CFA=RBP+16: RBP=[CFA-16], RIP=[CFA-8]
  0xf8e50: CFA=RBP+16: RBX=[CFA-40], RBP=[CFA-16], R14=[CFA-32], R15=[CFA-24], RIP=[CFA-8]
  0xf8fec: CFA=RSP+8: RBX=[CFA-40], RBP=[CFA-16], R14=[CFA-32], R15=[CFA-24], RIP=[CFA-8]

00005964 0000001c 00005968 FDE cie=00000000 pc=000f8ff0...000f9017
  Format:       DWARF32
  DW_CFA_advance_loc: 1
  DW_CFA_def_cfa_offset: +16
  DW_CFA_offset: RBP -16
  DW_CFA_advance_loc: 3
  DW_CFA_def_cfa_register: RBP
  DW_CFA_advance_loc: 34
  DW_CFA_def_cfa: RSP +8
  DW_CFA_nop:
  DW_CFA_nop:
  DW_CFA_nop:

  0xf8ff0: CFA=RSP+8: RIP=[CFA-8]
  0xf8ff1: CFA=RSP+16: RBP=[CFA-16], RIP=[CFA-8]
  0xf8ff4: CFA=RBP+16: RBP=[CFA-16], RIP=[CFA-8]
  0xf9016: CFA=RSP+8: RBP=[CFA-16], RIP=[CFA-8]

00005984 00000028 00005988 FDE cie=00000000 pc=000f9020...000f946d
  Format:       DWARF32
  DW_CFA_advance_loc: 1
  DW_CFA_def_cfa_offset: +16
  DW_CFA_offset: RBP -16
  DW_CFA_advance_loc: 3
  DW_CFA_def_cfa_register: RBP
  DW_CFA_advance_loc: 16
  DW_CFA_offset: RBX -56
  DW_CFA_offset: R12 -48
  DW_CFA_offset: R13 -40
  DW_CFA_offset: R14 -32
  DW_CFA_offset: R15 -24
  DW_CFA_advance_loc2: 1080
  DW_CFA_def_cfa: RSP +8
  DW_CFA_nop:
  DW_CFA_nop:

  0xf9020: CFA=RSP+8: RIP=[CFA-8]
  0xf9021: CFA=RSP+16: RBP=[CFA-16], RIP=[CFA-8]
  0xf9024: CFA=RBP+16: RBP=[CFA-16], RIP=[CFA-8]
  0xf9034: CFA=RBP+16: RBX=[CFA-56], RBP=[CFA-16], R12=[CFA-48], R13=[CFA-40], R14=[CFA-32], R15=[CFA-24], RIP=[CFA-8]
  0xf946c: CFA=RSP+8: RBX=[CFA-56], RBP=[CFA-16], R12=[CFA-48], R13=[CFA-40], R14=[CFA-32], R15=[CFA-24], RIP=[CFA-8]

000059b0 0000001c 000059b4 FDE cie=00000000 pc=000f9470...000f9497
  Format:       DWARF32
  DW_CFA_advance_loc: 1
  DW_CFA_def_cfa_offset: +16
  DW_CFA_offset: RBP -16
  DW_CFA_advance_loc: 3
  DW_CFA_def_cfa_register: RBP
  DW_CFA_advance_loc: 34
  DW_CFA_def_cfa: RSP +8
  DW_CFA_nop:
  DW_CFA_nop:
  DW_CFA_nop:

  0xf9470: CFA=RSP+8: RIP=[CFA-8]
  0xf9471: CFA=RSP+16: RBP=[CFA-16], RIP=[CFA-8]
  0xf9474: CFA=RBP+16: RBP=[CFA-16], RIP=[CFA-8]
  0xf9496: CFA=RSP+8: RBP=[CFA-16], RIP=[CFA-8]

000059d0 00000028 000059d4 FDE cie=00000000 pc=000f94a0...000f96fe
  Format:       DWARF32
  DW_CFA_advance_loc: 1
  DW_CFA_def_cfa_offset: +16
  DW_CFA_offset: RBP -16
  DW_CFA_advance_loc: 3
  DW_CFA_def_cfa_register: RBP
  DW_CFA_advance_loc: 16
  DW_CFA_offset: RBX -56
  DW_CFA_offset: R12 -48
  DW_CFA_offset: R13 -40
  DW_CFA_offset: R14 -32
  DW_CFA_offset: R15 -24
  DW_CFA_advance_loc2: 585
  DW_CFA_def_cfa: RSP +8
  DW_CFA_nop:
  DW_CFA_nop:

  0xf94a0: CFA=RSP+8: RIP=[CFA-8]
  0xf94a1: CFA=RSP+16: RBP=[CFA-16], RIP=[CFA-8]
  0xf94a4: CFA=RBP+16: RBP=[CFA-16], RIP=[CFA-8]
  0xf94b4: CFA=RBP+16: RBX=[CFA-56], RBP=[CFA-16], R12=[CFA-48], R13=[CFA-40], R14=[CFA-32], R15=[CFA-24], RIP=[CFA-8]
  0xf96fd: CFA=RSP+8: RBX=[CFA-56], RBP=[CFA-16], R12=[CFA-48], R13=[CFA-40], R14=[CFA-32], R15=[CFA-24], RIP=[CFA-8]

000059fc 0000001c 00005a00 FDE cie=00000000 pc=000f9700...000f9727
  Format:       DWARF32
  DW_CFA_advance_loc: 1
  DW_CFA_def_cfa_offset: +16
  DW_CFA_offset: RBP -16
  DW_CFA_advance_loc: 3
  DW_CFA_def_cfa_register: RBP
  DW_CFA_advance_loc: 34
  DW_CFA_def_cfa: RSP +8
  DW_CFA_nop:
  DW_CFA_nop:
  DW_CFA_nop:

  0xf9700: CFA=RSP+8: RIP=[CFA-8]
  0xf9701: CFA=RSP+16: RBP=[CFA-16], RIP=[CFA-8]
  0xf9704: CFA=RBP+16: RBP=[CFA-16], RIP=[CFA-8]
  0xf9726: CFA=RSP+8: RBP=[CFA-16], RIP=[CFA-8]

00005a1c 00000024 00005a20 FDE cie=00000000 pc=000f9730...000f97f5
  Format:       DWARF32
  DW_CFA_advance_loc: 1
  DW_CFA_def_cfa_offset: +16
  DW_CFA_offset: RBP -16
  DW_CFA_advance_loc: 3
  DW_CFA_def_cfa_register: RBP
  DW_CFA_advance_loc: 11
  DW_CFA_offset: RBX -48
  DW_CFA_offset: R12 -40
  DW_CFA_offset: R14 -32
  DW_CFA_offset: R15 -24
  DW_CFA_advance_loc1: 181
  DW_CFA_def_cfa: RSP +8
  DW_CFA_nop:

  0xf9730: CFA=RSP+8: RIP=[CFA-8]
  0xf9731: CFA=RSP+16: RBP=[CFA-16], RIP=[CFA-8]
  0xf9734: CFA=RBP+16: RBP=[CFA-16], RIP=[CFA-8]
  0xf973f: CFA=RBP+16: RBX=[CFA-48], RBP=[CFA-16], R12=[CFA-40], R14=[CFA-32], R15=[CFA-24], RIP=[CFA-8]
  0xf97f4: CFA=RSP+8: RBX=[CFA-48], RBP=[CFA-16], R12=[CFA-40], R14=[CFA-32], R15=[CFA-24], RIP=[CFA-8]

00005a44 0000001c 00005a48 FDE cie=00000000 pc=000f9800...000f9881
  Format:       DWARF32
  DW_CFA_advance_loc: 1
  DW_CFA_def_cfa_offset: +16
  DW_CFA_offset: RBP -16
  DW_CFA_advance_loc: 3
  DW_CFA_def_cfa_register: RBP
  DW_CFA_advance_loc1: 124
  DW_CFA_def_cfa: RSP +8
  DW_CFA_nop:
  DW_CFA_nop:

  0xf9800: CFA=RSP+8: RIP=[CFA-8]
  0xf9801: CFA=RSP+16: RBP=[CFA-16], RIP=[CFA-8]
  0xf9804: CFA=RBP+16: RBP=[CFA-16], RIP=[CFA-8]
  0xf9880: CFA=RSP+8: RBP=[CFA-16], RIP=[CFA-8]

00005a64 0000001c 00005a68 FDE cie=00000000 pc=000f9890...000f98b7
  Format:       DWARF32
  DW_CFA_advance_loc: 1
  DW_CFA_def_cfa_offset: +16
  DW_CFA_offset: RBP -16
  DW_CFA_advance_loc: 3
  DW_CFA_def_cfa_register: RBP
  DW_CFA_advance_loc: 34
  DW_CFA_def_cfa: RSP +8
  DW_CFA_nop:
  DW_CFA_nop:
  DW_CFA_nop:

  0xf9890: CFA=RSP+8: RIP=[CFA-8]
  0xf9891: CFA=RSP+16: RBP=[CFA-16], RIP=[CFA-8]
  0xf9894: CFA=RBP+16: RBP=[CFA-16], RIP=[CFA-8]
  0xf98b6: CFA=RSP+8: RBP=[CFA-16], RIP=[CFA-8]

00005a84 00000024 00005a88 FDE cie=00000000 pc=000f98c0...000f9a68
  Format:       DWARF32
  DW_CFA_advance_loc: 1
  DW_CFA_def_cfa_offset: +16
  DW_CFA_offset: RBP -16
  DW_CFA_advance_loc: 3
  DW_CFA_def_cfa_register: RBP
  DW_CFA_advance_loc: 12
  DW_CFA_offset: RBX -40
  DW_CFA_offset: R14 -32
  DW_CFA_offset: R15 -24
  DW_CFA_advance_loc2: 407
  DW_CFA_def_cfa: RSP +8
  DW_CFA_nop:
  DW_CFA_nop:

  0xf98c0: CFA=RSP+8: RIP=[CFA-8]
  0xf98c1: CFA=RSP+16: RBP=[CFA-16], RIP=[CFA-8]
  0xf98c4: CFA=RBP+16: RBP=[CFA-16], RIP=[CFA-8]
  0xf98d0: CFA=RBP+16: RBX=[CFA-40], RBP=[CFA-16], R14=[CFA-32], R15=[CFA-24], RIP=[CFA-8]
  0xf9a67: CFA=RSP+8: RBX=[CFA-40], RBP=[CFA-16], R14=[CFA-32], R15=[CFA-24], RIP=[CFA-8]

00005aac 0000001c 00005ab0 FDE cie=00000000 pc=000f9a70...000f9a97
  Format:       DWARF32
  DW_CFA_advance_loc: 1
  DW_CFA_def_cfa_offset: +16
  DW_CFA_offset: RBP -16
  DW_CFA_advance_loc: 3
  DW_CFA_def_cfa_register: RBP
  DW_CFA_advance_loc: 34
  DW_CFA_def_cfa: RSP +8
  DW_CFA_nop:
  DW_CFA_nop:
  DW_CFA_nop:

  0xf9a70: CFA=RSP+8: RIP=[CFA-8]
  0xf9a71: CFA=RSP+16: RBP=[CFA-16], RIP=[CFA-8]
  0xf9a74: CFA=RBP+16: RBP=[CFA-16], RIP=[CFA-8]
  0xf9a96: CFA=RSP+8: RBP=[CFA-16], RIP=[CFA-8]

00005acc 00000020 00005ad0 FDE cie=00000000 pc=000f9aa0...000f9c25
  Format:       DWARF32
  DW_CFA_advance_loc: 1
  DW_CFA_def_cfa_offset: +16
  DW_CFA_offset: RBP -16
  DW_CFA_advance_loc: 3
  DW_CFA_def_cfa_register: RBP
  DW_CFA_advance_loc: 10
  DW_CFA_offset: RBX -32
  DW_CFA_offset: R14 -24
  DW_CFA_advance_loc2: 374
  DW_CFA_def_cfa: RSP +8

  0xf9aa0: CFA=RSP+8: RIP=[CFA-8]
  0xf9aa1: CFA=RSP+16: RBP=[CFA-16], RIP=[CFA-8]
  0xf9aa4: CFA=RBP+16: RBP=[CFA-16], RIP=[CFA-8]
  0xf9aae: CFA=RBP+16: RBX=[CFA-32], RBP=[CFA-16], R14=[CFA-24], RIP=[CFA-8]
  0xf9c24: CFA=RSP+8: RBX=[CFA-32], RBP=[CFA-16], R14=[CFA-24], RIP=[CFA-8]

00005af0 0000001c 00005af4 FDE cie=00000000 pc=000f9c30...000f9c55
  Format:       DWARF32
  DW_CFA_advance_loc: 1
  DW_CFA_def_cfa_offset: +16
  DW_CFA_offset: RBP -16
  DW_CFA_advance_loc: 3
  DW_CFA_def_cfa_register: RBP
  DW_CFA_advance_loc: 32
  DW_CFA_def_cfa: RSP +8
  DW_CFA_nop:
  DW_CFA_nop:
  DW_CFA_nop:

  0xf9c30: CFA=RSP+8: RIP=[CFA-8]
  0xf9c31: CFA=RSP+16: RBP=[CFA-16], RIP=[CFA-8]
  0xf9c34: CFA=RBP+16: RBP=[CFA-16], RIP=[CFA-8]
  0xf9c54: CFA=RSP+8: RBP=[CFA-16], RIP=[CFA-8]

00005b10 00000024 00005b14 FDE cie=00000000 pc=000f9c60...000f9d15
  Format:       DWARF32
  DW_CFA_advance_loc: 1
  DW_CFA_def_cfa_offset: +16
  DW_CFA_offset: RBP -16
  DW_CFA_advance_loc: 3
  DW_CFA_def_cfa_register: RBP
  DW_CFA_advance_loc: 9
  DW_CFA_offset: RBX -40
  DW_CFA_offset: R14 -32
  DW_CFA_offset: R15 -24
  DW_CFA_advance_loc1: 167
  DW_CFA_def_cfa: RSP +8
  DW_CFA_nop:
  DW_CFA_nop:
  DW_CFA_nop:

  0xf9c60: CFA=RSP+8: RIP=[CFA-8]
  0xf9c61: CFA=RSP+16: RBP=[CFA-16], RIP=[CFA-8]
  0xf9c64: CFA=RBP+16: RBP=[CFA-16], RIP=[CFA-8]
  0xf9c6d: CFA=RBP+16: RBX=[CFA-40], RBP=[CFA-16], R14=[CFA-32], R15=[CFA-24], RIP=[CFA-8]
  0xf9d14: CFA=RSP+8: RBX=[CFA-40], RBP=[CFA-16], R14=[CFA-32], R15=[CFA-24], RIP=[CFA-8]

00005b38 0000001c 00005b3c FDE cie=00000000 pc=000f9d20...000f9d43
  Format:       DWARF32
  DW_CFA_advance_loc: 1
  DW_CFA_def_cfa_offset: +16
  DW_CFA_offset: RBP -16
  DW_CFA_advance_loc: 3
  DW_CFA_def_cfa_register: RBP
  DW_CFA_advance_loc: 30
  DW_CFA_def_cfa: RSP +8
  DW_CFA_nop:
  DW_CFA_nop:
  DW_CFA_nop:

  0xf9d20: CFA=RSP+8: RIP=[CFA-8]
  0xf9d21: CFA=RSP+16: RBP=[CFA-16], RIP=[CFA-8]
  0xf9d24: CFA=RBP+16: RBP=[CFA-16], RIP=[CFA-8]
  0xf9d42: CFA=RSP+8: RBP=[CFA-16], RIP=[CFA-8]

00005b58 00000028 00005b5c FDE cie=00000000 pc=000f9d50...000f9e89
  Format:       DWARF32
  DW_CFA_advance_loc: 1
  DW_CFA_def_cfa_offset: +16
  DW_CFA_offset: RBP -16
  DW_CFA_advance_loc: 3
  DW_CFA_def_cfa_register: RBP
  DW_CFA_advance_loc: 16
  DW_CFA_offset: RBX -56
  DW_CFA_offset: R12 -48
  DW_CFA_offset: R13 -40
  DW_CFA_offset: R14 -32
  DW_CFA_offset: R15 -24
  DW_CFA_advance_loc2: 292
  DW_CFA_def_cfa: RSP +8
  DW_CFA_nop:
  DW_CFA_nop:

  0xf9d50: CFA=RSP+8: RIP=[CFA-8]
  0xf9d51: CFA=RSP+16: RBP=[CFA-16], RIP=[CFA-8]
  0xf9d54: CFA=RBP+16: RBP=[CFA-16], RIP=[CFA-8]
  0xf9d64: CFA=RBP+16: RBX=[CFA-56], RBP=[CFA-16], R12=[CFA-48], R13=[CFA-40], R14=[CFA-32], R15=[CFA-24], RIP=[CFA-8]
  0xf9e88: CFA=RSP+8: RBX=[CFA-56], RBP=[CFA-16], R12=[CFA-48], R13=[CFA-40], R14=[CFA-32], R15=[CFA-24], RIP=[CFA-8]

00005b84 0000001c 00005b88 FDE cie=00000000 pc=000f9e90...000f9eb7
  Format:       DWARF32
  DW_CFA_advance_loc: 1
  DW_CFA_def_cfa_offset: +16
  DW_CFA_offset: RBP -16
  DW_CFA_advance_loc: 3
  DW_CFA_def_cfa_register: RBP
  DW_CFA_advance_loc: 34
  DW_CFA_def_cfa: RSP +8
  DW_CFA_nop:
  DW_CFA_nop:
  DW_CFA_nop:

  0xf9e90: CFA=RSP+8: RIP=[CFA-8]
  0xf9e91: CFA=RSP+16: RBP=[CFA-16], RIP=[CFA-8]
  0xf9e94: CFA=RBP+16: RBP=[CFA-16], RIP=[CFA-8]
  0xf9eb6: CFA=RSP+8: RBP=[CFA-16], RIP=[CFA-8]

00005ba4 0000001c 00005ba8 FDE cie=00000000 pc=000f9ec0...000f9ee7
  Format:       DWARF32
  DW_CFA_advance_loc: 1
  DW_CFA_def_cfa_offset: +16
  DW_CFA_offset: RBP -16
  DW_CFA_advance_loc: 3
  DW_CFA_def_cfa_register: RBP
  DW_CFA_advance_loc: 34
  DW_CFA_def_cfa: RSP +8
  DW_CFA_nop:
  DW_CFA_nop:
  DW_CFA_nop:

  0xf9ec0: CFA=RSP+8: RIP=[CFA-8]
  0xf9ec1: CFA=RSP+16: RBP=[CFA-16], RIP=[CFA-8]
  0xf9ec4: CFA=RBP+16: RBP=[CFA-16], RIP=[CFA-8]
  0xf9ee6: CFA=RSP+8: RBP=[CFA-16], RIP=[CFA-8]

00005bc4 0000001c 00005bc8 FDE cie=00000000 pc=000f9ef0...000fa0a4
  Format:       DWARF32
  DW_CFA_advance_loc: 1
  DW_CFA_def_cfa_offset: +16
  DW_CFA_offset: RBP -16
  DW_CFA_advance_loc: 3
  DW_CFA_def_cfa_register: RBP
  DW_CFA_advance_loc2: 431
  DW_CFA_def_cfa: RSP +8
  DW_CFA_nop:

  0xf9ef0: CFA=RSP+8: RIP=[CFA-8]
  0xf9ef1: CFA=RSP+16: RBP=[CFA-16], RIP=[CFA-8]
  0xf9ef4: CFA=RBP+16: RBP=[CFA-16], RIP=[CFA-8]
  0xfa0a3: CFA=RSP+8: RBP=[CFA-16], RIP=[CFA-8]

00005be4 0000001c 00005be8 FDE cie=00000000 pc=000fa0b0...000fa0e5
  Format:       DWARF32
  DW_CFA_advance_loc: 1
  DW_CFA_def_cfa_offset: +16
  DW_CFA_offset: RBP -16
  DW_CFA_advance_loc: 3
  DW_CFA_def_cfa_register: RBP
  DW_CFA_advance_loc: 48
  DW_CFA_def_cfa: RSP +8
  DW_CFA_nop:
  DW_CFA_nop:
  DW_CFA_nop:

  0xfa0b0: CFA=RSP+8: RIP=[CFA-8]
  0xfa0b1: CFA=RSP+16: RBP=[CFA-16], RIP=[CFA-8]
  0xfa0b4: CFA=RBP+16: RBP=[CFA-16], RIP=[CFA-8]
  0xfa0e4: CFA=RSP+8: RBP=[CFA-16], RIP=[CFA-8]

00005c04 0000001c 00005c08 FDE cie=00000000 pc=000fa0f0...000fa24b
  Format:       DWARF32
  DW_CFA_advance_loc: 1
  DW_CFA_def_cfa_offset: +16
  DW_CFA_offset: RBP -16
  DW_CFA_advance_loc: 3
  DW_CFA_def_cfa_register: RBP
  DW_CFA_advance_loc2: 342
  DW_CFA_def_cfa: RSP +8
  DW_CFA_nop:

  0xfa0f0: CFA=RSP+8: RIP=[CFA-8]
  0xfa0f1: CFA=RSP+16: RBP=[CFA-16], RIP=[CFA-8]
  0xfa0f4: CFA=RBP+16: RBP=[CFA-16], RIP=[CFA-8]
  0xfa24a: CFA=RSP+8: RBP=[CFA-16], RIP=[CFA-8]

00005c24 0000001c 00005c28 FDE cie=00000000 pc=000fa250...000fa314
  Format:       DWARF32
  DW_CFA_advance_loc: 1
  DW_CFA_def_cfa_offset: +16
  DW_CFA_offset: RBP -16
  DW_CFA_advance_loc: 3
  DW_CFA_def_cfa_register: RBP
  DW_CFA_advance_loc1: 191
  DW_CFA_def_cfa: RSP +8
  DW_CFA_nop:
  DW_CFA_nop:

  0xfa250: CFA=RSP+8: RIP=[CFA-8]
  0xfa251: CFA=RSP+16: RBP=[CFA-16], RIP=[CFA-8]
  0xfa254: CFA=RBP+16: RBP=[CFA-16], RIP=[CFA-8]
  0xfa313: CFA=RSP+8: RBP=[CFA-16], RIP=[CFA-8]

00005c44 0000001c 00005c48 FDE cie=00000000 pc=000fa320...000fa412
  Format:       DWARF32
  DW_CFA_advance_loc: 1
  DW_CFA_def_cfa_offset: +16
  DW_CFA_offset: RBP -16
  DW_CFA_advance_loc: 3
  DW_CFA_def_cfa_register: RBP
  DW_CFA_advance_loc1: 237
  DW_CFA_def_cfa: RSP +8
  DW_CFA_nop:
  DW_CFA_nop:

  0xfa320: CFA=RSP+8: RIP=[CFA-8]
  0xfa321: CFA=RSP+16: RBP=[CFA-16], RIP=[CFA-8]
  0xfa324: CFA=RBP+16: RBP=[CFA-16], RIP=[CFA-8]
  0xfa411: CFA=RSP+8: RBP=[CFA-16], RIP=[CFA-8]

00005c64 0000001c 00005c68 FDE cie=00000000 pc=000fa420...000fa444
  Format:       DWARF32
  DW_CFA_advance_loc: 1
  DW_CFA_def_cfa_offset: +16
  DW_CFA_offset: RBP -16
  DW_CFA_advance_loc: 3
  DW_CFA_def_cfa_register: RBP
  DW_CFA_advance_loc: 31
  DW_CFA_def_cfa: RSP +8
  DW_CFA_nop:
  DW_CFA_nop:
  DW_CFA_nop:

  0xfa420: CFA=RSP+8: RIP=[CFA-8]
  0xfa421: CFA=RSP+16: RBP=[CFA-16], RIP=[CFA-8]
  0xfa424: CFA=RBP+16: RBP=[CFA-16], RIP=[CFA-8]
  0xfa443: CFA=RSP+8: RBP=[CFA-16], RIP=[CFA-8]

00005c84 0000001c 00005c88 FDE cie=00000000 pc=000fa450...000fa488
  Format:       DWARF32
  DW_CFA_advance_loc: 1
  DW_CFA_def_cfa_offset: +16
  DW_CFA_offset: RBP -16
  DW_CFA_advance_loc: 3
  DW_CFA_def_cfa_register: RBP
  DW_CFA_advance_loc: 51
  DW_CFA_def_cfa: RSP +8
  DW_CFA_nop:
  DW_CFA_nop:
  DW_CFA_nop:

  0xfa450: CFA=RSP+8: RIP=[CFA-8]
  0xfa451: CFA=RSP+16: RBP=[CFA-16], RIP=[CFA-8]
  0xfa454: CFA=RBP+16: RBP=[CFA-16], RIP=[CFA-8]
  0xfa487: CFA=RSP+8: RBP=[CFA-16], RIP=[CFA-8]

00005ca4 0000001c 00005ca8 FDE cie=00000000 pc=000fa490...000fa4b7
  Format:       DWARF32
  DW_CFA_advance_loc: 1
  DW_CFA_def_cfa_offset: +16
  DW_CFA_offset: RBP -16
  DW_CFA_advance_loc: 3
  DW_CFA_def_cfa_register: RBP
  DW_CFA_advance_loc: 34
  DW_CFA_def_cfa: RSP +8
  DW_CFA_nop:
  DW_CFA_nop:
  DW_CFA_nop:

  0xfa490: CFA=RSP+8: RIP=[CFA-8]
  0xfa491: CFA=RSP+16: RBP=[CFA-16], RIP=[CFA-8]
  0xfa494: CFA=RBP+16: RBP=[CFA-16], RIP=[CFA-8]
  0xfa4b6: CFA=RSP+8: RBP=[CFA-16], RIP=[CFA-8]

00005cc4 00000028 00005cc8 FDE cie=00000000 pc=000fa4c0...000fa886
  Format:       DWARF32
  DW_CFA_advance_loc: 1
  DW_CFA_def_cfa_offset: +16
  DW_CFA_offset: RBP -16
  DW_CFA_advance_loc: 3
  DW_CFA_def_cfa_register: RBP
  DW_CFA_advance_loc: 16
  DW_CFA_offset: RBX -56
  DW_CFA_offset: R12 -48
  DW_CFA_offset: R13 -40
  DW_CFA_offset: R14 -32
  DW_CFA_offset: R15 -24
  DW_CFA_advance_loc2: 945
  DW_CFA_def_cfa: RSP +8
  DW_CFA_nop:
  DW_CFA_nop:

  0xfa4c0: CFA=RSP+8: RIP=[CFA-8]
  0xfa4c1: CFA=RSP+16: RBP=[CFA-16], RIP=[CFA-8]
  0xfa4c4: CFA=RBP+16: RBP=[CFA-16], RIP=[CFA-8]
  0xfa4d4: CFA=RBP+16: RBX=[CFA-56], RBP=[CFA-16], R12=[CFA-48], R13=[CFA-40], R14=[CFA-32], R15=[CFA-24], RIP=[CFA-8]
  0xfa885: CFA=RSP+8: RBX=[CFA-56], RBP=[CFA-16], R12=[CFA-48], R13=[CFA-40], R14=[CFA-32], R15=[CFA-24], RIP=[CFA-8]

00005cf0 0000001c 00005cf4 FDE cie=00000000 pc=000fa890...000fa8ab
  Format:       DWARF32
  DW_CFA_advance_loc: 1
  DW_CFA_def_cfa_offset: +16
  DW_CFA_offset: RBP -16
  DW_CFA_advance_loc: 3
  DW_CFA_def_cfa_register: RBP
  DW_CFA_advance_loc: 22
  DW_CFA_def_cfa: RSP +8
  DW_CFA_nop:
  DW_CFA_nop:
  DW_CFA_nop:

  0xfa890: CFA=RSP+8: RIP=[CFA-8]
  0xfa891: CFA=RSP+16: RBP=[CFA-16], RIP=[CFA-8]
  0xfa894: CFA=RBP+16: RBP=[CFA-16], RIP=[CFA-8]
  0xfa8aa: CFA=RSP+8: RBP=[CFA-16], RIP=[CFA-8]

00005d10 00000024 00005d14 FDE cie=00000000 pc=000fa8b0...000fa970
  Format:       DWARF32
  DW_CFA_advance_loc: 1
  DW_CFA_def_cfa_offset: +16
  DW_CFA_offset: RBP -16
  DW_CFA_advance_loc: 3
  DW_CFA_def_cfa_register: RBP
  DW_CFA_advance_loc: 11
  DW_CFA_offset: RBX -48
  DW_CFA_offset: R12 -40
  DW_CFA_offset: R14 -32
  DW_CFA_offset: R15 -24
  DW_CFA_advance_loc1: 176
  DW_CFA_def_cfa: RSP +8
  DW_CFA_nop:

  0xfa8b0: CFA=RSP+8: RIP=[CFA-8]
  0xfa8b1: CFA=RSP+16: RBP=[CFA-16], RIP=[CFA-8]
  0xfa8b4: CFA=RBP+16: RBP=[CFA-16], RIP=[CFA-8]
  0xfa8bf: CFA=RBP+16: RBX=[CFA-48], RBP=[CFA-16], R12=[CFA-40], R14=[CFA-32], R15=[CFA-24], RIP=[CFA-8]
  0xfa96f: CFA=RSP+8: RBX=[CFA-48], RBP=[CFA-16], R12=[CFA-40], R14=[CFA-32], R15=[CFA-24], RIP=[CFA-8]

00005d38 0000001c 00005d3c FDE cie=00000000 pc=000fa970...000fa997
  Format:       DWARF32
  DW_CFA_advance_loc: 1
  DW_CFA_def_cfa_offset: +16
  DW_CFA_offset: RBP -16
  DW_CFA_advance_loc: 3
  DW_CFA_def_cfa_register: RBP
  DW_CFA_advance_loc: 34
  DW_CFA_def_cfa: RSP +8
  DW_CFA_nop:
  DW_CFA_nop:
  DW_CFA_nop:

  0xfa970: CFA=RSP+8: RIP=[CFA-8]
  0xfa971: CFA=RSP+16: RBP=[CFA-16], RIP=[CFA-8]
  0xfa974: CFA=RBP+16: RBP=[CFA-16], RIP=[CFA-8]
  0xfa996: CFA=RSP+8: RBP=[CFA-16], RIP=[CFA-8]

00005d58 00000028 00005d5c FDE cie=00000000 pc=000fa9a0...000fab93
  Format:       DWARF32
  DW_CFA_advance_loc: 1
  DW_CFA_def_cfa_offset: +16
  DW_CFA_offset: RBP -16
  DW_CFA_advance_loc: 3
  DW_CFA_def_cfa_register: RBP
  DW_CFA_advance_loc: 16
  DW_CFA_offset: RBX -56
  DW_CFA_offset: R12 -48
  DW_CFA_offset: R13 -40
  DW_CFA_offset: R14 -32
  DW_CFA_offset: R15 -24
  DW_CFA_advance_loc2: 478
  DW_CFA_def_cfa: RSP +8
  DW_CFA_nop:
  DW_CFA_nop:

  0xfa9a0: CFA=RSP+8: RIP=[CFA-8]
  0xfa9a1: CFA=RSP+16: RBP=[CFA-16], RIP=[CFA-8]
  0xfa9a4: CFA=RBP+16: RBP=[CFA-16], RIP=[CFA-8]
  0xfa9b4: CFA=RBP+16: RBX=[CFA-56], RBP=[CFA-16], R12=[CFA-48], R13=[CFA-40], R14=[CFA-32], R15=[CFA-24], RIP=[CFA-8]
  0xfab92: CFA=RSP+8: RBX=[CFA-56], RBP=[CFA-16], R12=[CFA-48], R13=[CFA-40], R14=[CFA-32], R15=[CFA-24], RIP=[CFA-8]

00005d84 0000001c 00005d88 FDE cie=00000000 pc=000faba0...000fabb1
  Format:       DWARF32
  DW_CFA_advance_loc: 1
  DW_CFA_def_cfa_offset: +16
  DW_CFA_offset: RBP -16
  DW_CFA_advance_loc: 3
  DW_CFA_def_cfa_register: RBP
  DW_CFA_advance_loc: 12
  DW_CFA_def_cfa: RSP +8
  DW_CFA_nop:
  DW_CFA_nop:
  DW_CFA_nop:

  0xfaba0: CFA=RSP+8: RIP=[CFA-8]
  0xfaba1: CFA=RSP+16: RBP=[CFA-16], RIP=[CFA-8]
  0xfaba4: CFA=RBP+16: RBP=[CFA-16], RIP=[CFA-8]
  0xfabb0: CFA=RSP+8: RBP=[CFA-16], RIP=[CFA-8]

00005da4 00000020 00005da8 FDE cie=00000000 pc=000fabc0...000fac45
  Format:       DWARF32
  DW_CFA_advance_loc: 1
  DW_CFA_def_cfa_offset: +16
  DW_CFA_offset: RBP -16
  DW_CFA_advance_loc: 3
  DW_CFA_def_cfa_register: RBP
  DW_CFA_advance_loc: 5
  DW_CFA_offset: RBX -24
  DW_CFA_advance_loc1: 123
  DW_CFA_def_cfa: RSP +8
  DW_CFA_nop:
  DW_CFA_nop:
  DW_CFA_nop:

  0xfabc0: CFA=RSP+8: RIP=[CFA-8]
  0xfabc1: CFA=RSP+16: RBP=[CFA-16], RIP=[CFA-8]
  0xfabc4: CFA=RBP+16: RBP=[CFA-16], RIP=[CFA-8]
  0xfabc9: CFA=RBP+16: RBX=[CFA-24], RBP=[CFA-16], RIP=[CFA-8]
  0xfac44: CFA=RSP+8: RBX=[CFA-24], RBP=[CFA-16], RIP=[CFA-8]

00005dc8 0000001c 00005dcc FDE cie=00000000 pc=000fac50...000fac94
  Format:       DWARF32
  DW_CFA_advance_loc: 1
  DW_CFA_def_cfa_offset: +16
  DW_CFA_offset: RBP -16
  DW_CFA_advance_loc: 3
  DW_CFA_def_cfa_register: RBP
  DW_CFA_advance_loc: 63
  DW_CFA_def_cfa: RSP +8
  DW_CFA_nop:
  DW_CFA_nop:
  DW_CFA_nop:

  0xfac50: CFA=RSP+8: RIP=[CFA-8]
  0xfac51: CFA=RSP+16: RBP=[CFA-16], RIP=[CFA-8]
  0xfac54: CFA=RBP+16: RBP=[CFA-16], RIP=[CFA-8]
  0xfac93: CFA=RSP+8: RBP=[CFA-16], RIP=[CFA-8]

00005de8 0000001c 00005dec FDE cie=00000000 pc=000faca0...000facaf
  Format:       DWARF32
  DW_CFA_advance_loc: 1
  DW_CFA_def_cfa_offset: +16
  DW_CFA_offset: RBP -16
  DW_CFA_advance_loc: 3
  DW_CFA_def_cfa_register: RBP
  DW_CFA_advance_loc: 10
  DW_CFA_def_cfa: RSP +8
  DW_CFA_nop:
  DW_CFA_nop:
  DW_CFA_nop:

  0xfaca0: CFA=RSP+8: RIP=[CFA-8]
  0xfaca1: CFA=RSP+16: RBP=[CFA-16], RIP=[CFA-8]
  0xfaca4: CFA=RBP+16: RBP=[CFA-16], RIP=[CFA-8]
  0xfacae: CFA=RSP+8: RBP=[CFA-16], RIP=[CFA-8]

00005e08 00000020 00005e0c FDE cie=00000000 pc=000facb0...000fad37
  Format:       DWARF32
  DW_CFA_advance_loc: 1
  DW_CFA_def_cfa_offset: +16
  DW_CFA_offset: RBP -16
  DW_CFA_advance_loc: 3
  DW_CFA_def_cfa_register: RBP
  DW_CFA_advance_loc: 5
  DW_CFA_offset: RBX -24
  DW_CFA_advance_loc1: 125
  DW_CFA_def_cfa: RSP +8
  DW_CFA_nop:
  DW_CFA_nop:
  DW_CFA_nop:

  0xfacb0: CFA=RSP+8: RIP=[CFA-8]
  0xfacb1: CFA=RSP+16: RBP=[CFA-16], RIP=[CFA-8]
  0xfacb4: CFA=RBP+16: RBP=[CFA-16], RIP=[CFA-8]
  0xfacb9: CFA=RBP+16: RBX=[CFA-24], RBP=[CFA-16], RIP=[CFA-8]
  0xfad36: CFA=RSP+8: RBX=[CFA-24], RBP=[CFA-16], RIP=[CFA-8]

00005e2c 0000001c 00005e30 FDE cie=00000000 pc=000fad40...000fad80
  Format:       DWARF32
  DW_CFA_advance_loc: 1
  DW_CFA_def_cfa_offset: +16
  DW_CFA_offset: RBP -16
  DW_CFA_advance_loc: 3
  DW_CFA_def_cfa_register: RBP
  DW_CFA_advance_loc: 59
  DW_CFA_def_cfa: RSP +8
  DW_CFA_nop:
  DW_CFA_nop:
  DW_CFA_nop:

  0xfad40: CFA=RSP+8: RIP=[CFA-8]
  0xfad41: CFA=RSP+16: RBP=[CFA-16], RIP=[CFA-8]
  0xfad44: CFA=RBP+16: RBP=[CFA-16], RIP=[CFA-8]
  0xfad7f: CFA=RSP+8: RBP=[CFA-16], RIP=[CFA-8]

00005e4c 0000001c 00005e50 FDE cie=00000000 pc=000fad80...000fada7
  Format:       DWARF32
  DW_CFA_advance_loc: 1
  DW_CFA_def_cfa_offset: +16
  DW_CFA_offset: RBP -16
  DW_CFA_advance_loc: 3
  DW_CFA_def_cfa_register: RBP
  DW_CFA_advance_loc: 34
  DW_CFA_def_cfa: RSP +8
  DW_CFA_nop:
  DW_CFA_nop:
  DW_CFA_nop:

  0xfad80: CFA=RSP+8: RIP=[CFA-8]
  0xfad81: CFA=RSP+16: RBP=[CFA-16], RIP=[CFA-8]
  0xfad84: CFA=RBP+16: RBP=[CFA-16], RIP=[CFA-8]
  0xfada6: CFA=RSP+8: RBP=[CFA-16], RIP=[CFA-8]

00005e6c 00000020 00005e70 FDE cie=00000000 pc=000fadb0...000faf12
  Format:       DWARF32
  DW_CFA_advance_loc: 1
  DW_CFA_def_cfa_offset: +16
  DW_CFA_offset: RBP -16
  DW_CFA_advance_loc: 3
  DW_CFA_def_cfa_register: RBP
  DW_CFA_advance_loc: 8
  DW_CFA_offset: RBX -24
  DW_CFA_advance_loc2: 341
  DW_CFA_def_cfa: RSP +8
  DW_CFA_nop:
  DW_CFA_nop:

  0xfadb0: CFA=RSP+8: RIP=[CFA-8]
  0xfadb1: CFA=RSP+16: RBP=[CFA-16], RIP=[CFA-8]
  0xfadb4: CFA=RBP+16: RBP=[CFA-16], RIP=[CFA-8]
  0xfadbc: CFA=RBP+16: RBX=[CFA-24], RBP=[CFA-16], RIP=[CFA-8]
  0xfaf11: CFA=RSP+8: RBX=[CFA-24], RBP=[CFA-16], RIP=[CFA-8]

00005e90 0000001c 00005e94 FDE cie=00000000 pc=000faf20...000faf47
  Format:       DWARF32
  DW_CFA_advance_loc: 1
  DW_CFA_def_cfa_offset: +16
  DW_CFA_offset: RBP -16
  DW_CFA_advance_loc: 3
  DW_CFA_def_cfa_register: RBP
  DW_CFA_advance_loc: 34
  DW_CFA_def_cfa: RSP +8
  DW_CFA_nop:
  DW_CFA_nop:
  DW_CFA_nop:

  0xfaf20: CFA=RSP+8: RIP=[CFA-8]
  0xfaf21: CFA=RSP+16: RBP=[CFA-16], RIP=[CFA-8]
  0xfaf24: CFA=RBP+16: RBP=[CFA-16], RIP=[CFA-8]
  0xfaf46: CFA=RSP+8: RBP=[CFA-16], RIP=[CFA-8]

00005eb0 0000001c 00005eb4 FDE cie=00000000 pc=000faf50...000fb075
  Format:       DWARF32
  DW_CFA_advance_loc: 1
  DW_CFA_def_cfa_offset: +16
  DW_CFA_offset: RBP -16
  DW_CFA_advance_loc: 3
  DW_CFA_def_cfa_register: RBP
  DW_CFA_advance_loc2: 288
  DW_CFA_def_cfa: RSP +8
  DW_CFA_nop:

  0xfaf50: CFA=RSP+8: RIP=[CFA-8]
  0xfaf51: CFA=RSP+16: RBP=[CFA-16], RIP=[CFA-8]
  0xfaf54: CFA=RBP+16: RBP=[CFA-16], RIP=[CFA-8]
  0xfb074: CFA=RSP+8: RBP=[CFA-16], RIP=[CFA-8]

00005ed0 0000001c 00005ed4 FDE cie=00000000 pc=000fb080...000fb09b
  Format:       DWARF32
  DW_CFA_advance_loc: 1
  DW_CFA_def_cfa_offset: +16
  DW_CFA_offset: RBP -16
  DW_CFA_advance_loc: 3
  DW_CFA_def_cfa_register: RBP
  DW_CFA_advance_loc: 22
  DW_CFA_def_cfa: RSP +8
  DW_CFA_nop:
  DW_CFA_nop:
  DW_CFA_nop:

  0xfb080: CFA=RSP+8: RIP=[CFA-8]
  0xfb081: CFA=RSP+16: RBP=[CFA-16], RIP=[CFA-8]
  0xfb084: CFA=RBP+16: RBP=[CFA-16], RIP=[CFA-8]
  0xfb09a: CFA=RSP+8: RBP=[CFA-16], RIP=[CFA-8]

00005ef0 00000024 00005ef4 FDE cie=00000000 pc=000fb0a0...000fb160
  Format:       DWARF32
  DW_CFA_advance_loc: 1
  DW_CFA_def_cfa_offset: +16
  DW_CFA_offset: RBP -16
  DW_CFA_advance_loc: 3
  DW_CFA_def_cfa_register: RBP
  DW_CFA_advance_loc: 11
  DW_CFA_offset: RBX -48
  DW_CFA_offset: R12 -40
  DW_CFA_offset: R14 -32
  DW_CFA_offset: R15 -24
  DW_CFA_advance_loc1: 176
  DW_CFA_def_cfa: RSP +8
  DW_CFA_nop:

  0xfb0a0: CFA=RSP+8: RIP=[CFA-8]
  0xfb0a1: CFA=RSP+16: RBP=[CFA-16], RIP=[CFA-8]
  0xfb0a4: CFA=RBP+16: RBP=[CFA-16], RIP=[CFA-8]
  0xfb0af: CFA=RBP+16: RBX=[CFA-48], RBP=[CFA-16], R12=[CFA-40], R14=[CFA-32], R15=[CFA-24], RIP=[CFA-8]
  0xfb15f: CFA=RSP+8: RBX=[CFA-48], RBP=[CFA-16], R12=[CFA-40], R14=[CFA-32], R15=[CFA-24], RIP=[CFA-8]

00005f18 0000001c 00005f1c FDE cie=00000000 pc=000fb160...000fb187
  Format:       DWARF32
  DW_CFA_advance_loc: 1
  DW_CFA_def_cfa_offset: +16
  DW_CFA_offset: RBP -16
  DW_CFA_advance_loc: 3
  DW_CFA_def_cfa_register: RBP
  DW_CFA_advance_loc: 34
  DW_CFA_def_cfa: RSP +8
  DW_CFA_nop:
  DW_CFA_nop:
  DW_CFA_nop:

  0xfb160: CFA=RSP+8: RIP=[CFA-8]
  0xfb161: CFA=RSP+16: RBP=[CFA-16], RIP=[CFA-8]
  0xfb164: CFA=RBP+16: RBP=[CFA-16], RIP=[CFA-8]
  0xfb186: CFA=RSP+8: RBP=[CFA-16], RIP=[CFA-8]

00005f38 0000001c 00005f3c FDE cie=00000000 pc=000fb190...000fb2d1
  Format:       DWARF32
  DW_CFA_advance_loc: 1
  DW_CFA_def_cfa_offset: +16
  DW_CFA_offset: RBP -16
  DW_CFA_advance_loc: 3
  DW_CFA_def_cfa_register: RBP
  DW_CFA_advance_loc2: 316
  DW_CFA_def_cfa: RSP +8
  DW_CFA_nop:

  0xfb190: CFA=RSP+8: RIP=[CFA-8]
  0xfb191: CFA=RSP+16: RBP=[CFA-16], RIP=[CFA-8]
  0xfb194: CFA=RBP+16: RBP=[CFA-16], RIP=[CFA-8]
  0xfb2d0: CFA=RSP+8: RBP=[CFA-16], RIP=[CFA-8]

00005f58 0000001c 00005f5c FDE cie=00000000 pc=000fb2e0...000fb307
  Format:       DWARF32
  DW_CFA_advance_loc: 1
  DW_CFA_def_cfa_offset: +16
  DW_CFA_offset: RBP -16
  DW_CFA_advance_loc: 3
  DW_CFA_def_cfa_register: RBP
  DW_CFA_advance_loc: 34
  DW_CFA_def_cfa: RSP +8
  DW_CFA_nop:
  DW_CFA_nop:
  DW_CFA_nop:

  0xfb2e0: CFA=RSP+8: RIP=[CFA-8]
  0xfb2e1: CFA=RSP+16: RBP=[CFA-16], RIP=[CFA-8]
  0xfb2e4: CFA=RBP+16: RBP=[CFA-16], RIP=[CFA-8]
  0xfb306: CFA=RSP+8: RBP=[CFA-16], RIP=[CFA-8]

00005f78 00000020 00005f7c FDE cie=00000000 pc=000fb310...000fb495
  Format:       DWARF32
  DW_CFA_advance_loc: 1
  DW_CFA_def_cfa_offset: +16
  DW_CFA_offset: RBP -16
  DW_CFA_advance_loc: 3
  DW_CFA_def_cfa_register: RBP
  DW_CFA_advance_loc: 10
  DW_CFA_offset: RBX -32
  DW_CFA_offset: R14 -24
  DW_CFA_advance_loc2: 374
  DW_CFA_def_cfa: RSP +8

  0xfb310: CFA=RSP+8: RIP=[CFA-8]
  0xfb311: CFA=RSP+16: RBP=[CFA-16], RIP=[CFA-8]
  0xfb314: CFA=RBP+16: RBP=[CFA-16], RIP=[CFA-8]
  0xfb31e: CFA=RBP+16: RBX=[CFA-32], RBP=[CFA-16], R14=[CFA-24], RIP=[CFA-8]
  0xfb494: CFA=RSP+8: RBX=[CFA-32], RBP=[CFA-16], R14=[CFA-24], RIP=[CFA-8]

00005f9c 0000001c 00005fa0 FDE cie=00000000 pc=000fb4a0...000fb4c7
  Format:       DWARF32
  DW_CFA_advance_loc: 1
  DW_CFA_def_cfa_offset: +16
  DW_CFA_offset: RBP -16
  DW_CFA_advance_loc: 3
  DW_CFA_def_cfa_register: RBP
  DW_CFA_advance_loc: 34
  DW_CFA_def_cfa: RSP +8
  DW_CFA_nop:
  DW_CFA_nop:
  DW_CFA_nop:

  0xfb4a0: CFA=RSP+8: RIP=[CFA-8]
  0xfb4a1: CFA=RSP+16: RBP=[CFA-16], RIP=[CFA-8]
  0xfb4a4: CFA=RBP+16: RBP=[CFA-16], RIP=[CFA-8]
  0xfb4c6: CFA=RSP+8: RBP=[CFA-16], RIP=[CFA-8]

00005fbc 00000020 00005fc0 FDE cie=00000000 pc=000fb4d0...000fb655
  Format:       DWARF32
  DW_CFA_advance_loc: 1
  DW_CFA_def_cfa_offset: +16
  DW_CFA_offset: RBP -16
  DW_CFA_advance_loc: 3
  DW_CFA_def_cfa_register: RBP
  DW_CFA_advance_loc: 10
  DW_CFA_offset: RBX -32
  DW_CFA_offset: R14 -24
  DW_CFA_advance_loc2: 374
  DW_CFA_def_cfa: RSP +8

  0xfb4d0: CFA=RSP+8: RIP=[CFA-8]
  0xfb4d1: CFA=RSP+16: RBP=[CFA-16], RIP=[CFA-8]
  0xfb4d4: CFA=RBP+16: RBP=[CFA-16], RIP=[CFA-8]
  0xfb4de: CFA=RBP+16: RBX=[CFA-32], RBP=[CFA-16], R14=[CFA-24], RIP=[CFA-8]
  0xfb654: CFA=RSP+8: RBX=[CFA-32], RBP=[CFA-16], R14=[CFA-24], RIP=[CFA-8]

00005fe0 0000001c 00005fe4 FDE cie=00000000 pc=000fb660...000fb672
  Format:       DWARF32
  DW_CFA_advance_loc: 1
  DW_CFA_def_cfa_offset: +16
  DW_CFA_offset: RBP -16
  DW_CFA_advance_loc: 3
  DW_CFA_def_cfa_register: RBP
  DW_CFA_advance_loc: 13
  DW_CFA_def_cfa: RSP +8
  DW_CFA_nop:
  DW_CFA_nop:
  DW_CFA_nop:

  0xfb660: CFA=RSP+8: RIP=[CFA-8]
  0xfb661: CFA=RSP+16: RBP=[CFA-16], RIP=[CFA-8]
  0xfb664: CFA=RBP+16: RBP=[CFA-16], RIP=[CFA-8]
  0xfb671: CFA=RSP+8: RBP=[CFA-16], RIP=[CFA-8]

00006000 0000001c 00006004 FDE cie=00000000 pc=000fb680...000fb6d8
  Format:       DWARF32
  DW_CFA_advance_loc: 1
  DW_CFA_def_cfa_offset: +16
  DW_CFA_offset: RBP -16
  DW_CFA_advance_loc: 3
  DW_CFA_def_cfa_register: RBP
  DW_CFA_advance_loc1: 83
  DW_CFA_def_cfa: RSP +8
  DW_CFA_nop:
  DW_CFA_nop:

  0xfb680: CFA=RSP+8: RIP=[CFA-8]
  0xfb681: CFA=RSP+16: RBP=[CFA-16], RIP=[CFA-8]
  0xfb684: CFA=RBP+16: RBP=[CFA-16], RIP=[CFA-8]
  0xfb6d7: CFA=RSP+8: RBP=[CFA-16], RIP=[CFA-8]

00006020 0000001c 00006024 FDE cie=00000000 pc=000fb6e0...000fb6fb
  Format:       DWARF32
  DW_CFA_advance_loc: 1
  DW_CFA_def_cfa_offset: +16
  DW_CFA_offset: RBP -16
  DW_CFA_advance_loc: 3
  DW_CFA_def_cfa_register: RBP
  DW_CFA_advance_loc: 22
  DW_CFA_def_cfa: RSP +8
  DW_CFA_nop:
  DW_CFA_nop:
  DW_CFA_nop:

  0xfb6e0: CFA=RSP+8: RIP=[CFA-8]
  0xfb6e1: CFA=RSP+16: RBP=[CFA-16], RIP=[CFA-8]
  0xfb6e4: CFA=RBP+16: RBP=[CFA-16], RIP=[CFA-8]
  0xfb6fa: CFA=RSP+8: RBP=[CFA-16], RIP=[CFA-8]

00006040 00000028 00006044 FDE cie=00000000 pc=000fb700...000fb7e9
  Format:       DWARF32
  DW_CFA_advance_loc: 1
  DW_CFA_def_cfa_offset: +16
  DW_CFA_offset: RBP -16
  DW_CFA_advance_loc: 3
  DW_CFA_def_cfa_register: RBP
  DW_CFA_advance_loc: 16
  DW_CFA_offset: RBX -56
  DW_CFA_offset: R12 -48
  DW_CFA_offset: R13 -40
  DW_CFA_offset: R14 -32
  DW_CFA_offset: R15 -24
  DW_CFA_advance_loc1: 212
  DW_CFA_def_cfa: RSP +8
  DW_CFA_nop:
  DW_CFA_nop:
  DW_CFA_nop:

  0xfb700: CFA=RSP+8: RIP=[CFA-8]
  0xfb701: CFA=RSP+16: RBP=[CFA-16], RIP=[CFA-8]
  0xfb704: CFA=RBP+16: RBP=[CFA-16], RIP=[CFA-8]
  0xfb714: CFA=RBP+16: RBX=[CFA-56], RBP=[CFA-16], R12=[CFA-48], R13=[CFA-40], R14=[CFA-32], R15=[CFA-24], RIP=[CFA-8]
  0xfb7e8: CFA=RSP+8: RBX=[CFA-56], RBP=[CFA-16], R12=[CFA-48], R13=[CFA-40], R14=[CFA-32], R15=[CFA-24], RIP=[CFA-8]

0000606c 0000001c 00006070 FDE cie=00000000 pc=000fb7f0...000fb813
  Format:       DWARF32
  DW_CFA_advance_loc: 1
  DW_CFA_def_cfa_offset: +16
  DW_CFA_offset: RBP -16
  DW_CFA_advance_loc: 3
  DW_CFA_def_cfa_register: RBP
  DW_CFA_advance_loc: 30
  DW_CFA_def_cfa: RSP +8
  DW_CFA_nop:
  DW_CFA_nop:
  DW_CFA_nop:

  0xfb7f0: CFA=RSP+8: RIP=[CFA-8]
  0xfb7f1: CFA=RSP+16: RBP=[CFA-16], RIP=[CFA-8]
  0xfb7f4: CFA=RBP+16: RBP=[CFA-16], RIP=[CFA-8]
  0xfb812: CFA=RSP+8: RBP=[CFA-16], RIP=[CFA-8]

0000608c 0000001c 00006090 FDE cie=00000000 pc=000fb820...000fb929
  Format:       DWARF32
  DW_CFA_advance_loc: 1
  DW_CFA_def_cfa_offset: +16
  DW_CFA_offset: RBP -16
  DW_CFA_advance_loc: 3
  DW_CFA_def_cfa_register: RBP
  DW_CFA_advance_loc2: 260
  DW_CFA_def_cfa: RSP +8
  DW_CFA_nop:

  0xfb820: CFA=RSP+8: RIP=[CFA-8]
  0xfb821: CFA=RSP+16: RBP=[CFA-16], RIP=[CFA-8]
  0xfb824: CFA=RBP+16: RBP=[CFA-16], RIP=[CFA-8]
  0xfb928: CFA=RSP+8: RBP=[CFA-16], RIP=[CFA-8]

000060ac 0000001c 000060b0 FDE cie=00000000 pc=000fb930...000fb957
  Format:       DWARF32
  DW_CFA_advance_loc: 1
  DW_CFA_def_cfa_offset: +16
  DW_CFA_offset: RBP -16
  DW_CFA_advance_loc: 3
  DW_CFA_def_cfa_register: RBP
  DW_CFA_advance_loc: 34
  DW_CFA_def_cfa: RSP +8
  DW_CFA_nop:
  DW_CFA_nop:
  DW_CFA_nop:

  0xfb930: CFA=RSP+8: RIP=[CFA-8]
  0xfb931: CFA=RSP+16: RBP=[CFA-16], RIP=[CFA-8]
  0xfb934: CFA=RBP+16: RBP=[CFA-16], RIP=[CFA-8]
  0xfb956: CFA=RSP+8: RBP=[CFA-16], RIP=[CFA-8]

000060cc 00000028 000060d0 FDE cie=00000000 pc=000fb960...000fbb94
  Format:       DWARF32
  DW_CFA_advance_loc: 1
  DW_CFA_def_cfa_offset: +16
  DW_CFA_offset: RBP -16
  DW_CFA_advance_loc: 3
  DW_CFA_def_cfa_register: RBP
  DW_CFA_advance_loc: 16
  DW_CFA_offset: RBX -56
  DW_CFA_offset: R12 -48
  DW_CFA_offset: R13 -40
  DW_CFA_offset: R14 -32
  DW_CFA_offset: R15 -24
  DW_CFA_advance_loc2: 543
  DW_CFA_def_cfa: RSP +8
  DW_CFA_nop:
  DW_CFA_nop:

  0xfb960: CFA=RSP+8: RIP=[CFA-8]
  0xfb961: CFA=RSP+16: RBP=[CFA-16], RIP=[CFA-8]
  0xfb964: CFA=RBP+16: RBP=[CFA-16], RIP=[CFA-8]
  0xfb974: CFA=RBP+16: RBX=[CFA-56], RBP=[CFA-16], R12=[CFA-48], R13=[CFA-40], R14=[CFA-32], R15=[CFA-24], RIP=[CFA-8]
  0xfbb93: CFA=RSP+8: RBX=[CFA-56], RBP=[CFA-16], R12=[CFA-48], R13=[CFA-40], R14=[CFA-32], R15=[CFA-24], RIP=[CFA-8]

000060f8 0000001c 000060fc FDE cie=00000000 pc=000fbba0...000fbbc7
  Format:       DWARF32
  DW_CFA_advance_loc: 1
  DW_CFA_def_cfa_offset: +16
  DW_CFA_offset: RBP -16
  DW_CFA_advance_loc: 3
  DW_CFA_def_cfa_register: RBP
  DW_CFA_advance_loc: 34
  DW_CFA_def_cfa: RSP +8
  DW_CFA_nop:
  DW_CFA_nop:
  DW_CFA_nop:

  0xfbba0: CFA=RSP+8: RIP=[CFA-8]
  0xfbba1: CFA=RSP+16: RBP=[CFA-16], RIP=[CFA-8]
  0xfbba4: CFA=RBP+16: RBP=[CFA-16], RIP=[CFA-8]
  0xfbbc6: CFA=RSP+8: RBP=[CFA-16], RIP=[CFA-8]

00006118 00000028 0000611c FDE cie=00000000 pc=000fbbd0...000fc0d4
  Format:       DWARF32
  DW_CFA_advance_loc: 1
  DW_CFA_def_cfa_offset: +16
  DW_CFA_offset: RBP -16
  DW_CFA_advance_loc: 3
  DW_CFA_def_cfa_register: RBP
  DW_CFA_advance_loc: 16
  DW_CFA_offset: RBX -56
  DW_CFA_offset: R12 -48
  DW_CFA_offset: R13 -40
  DW_CFA_offset: R14 -32
  DW_CFA_offset: R15 -24
  DW_CFA_advance_loc2: 1263
  DW_CFA_def_cfa: RSP +8
  DW_CFA_nop:
  DW_CFA_nop:

  0xfbbd0: CFA=RSP+8: RIP=[CFA-8]
  0xfbbd1: CFA=RSP+16: RBP=[CFA-16], RIP=[CFA-8]
  0xfbbd4: CFA=RBP+16: RBP=[CFA-16], RIP=[CFA-8]
  0xfbbe4: CFA=RBP+16: RBX=[CFA-56], RBP=[CFA-16], R12=[CFA-48], R13=[CFA-40], R14=[CFA-32], R15=[CFA-24], RIP=[CFA-8]
  0xfc0d3: CFA=RSP+8: RBX=[CFA-56], RBP=[CFA-16], R12=[CFA-48], R13=[CFA-40], R14=[CFA-32], R15=[CFA-24], RIP=[CFA-8]

00006144 0000001c 00006148 FDE cie=00000000 pc=000fc0e0...000fc107
  Format:       DWARF32
  DW_CFA_advance_loc: 1
  DW_CFA_def_cfa_offset: +16
  DW_CFA_offset: RBP -16
  DW_CFA_advance_loc: 3
  DW_CFA_def_cfa_register: RBP
  DW_CFA_advance_loc: 34
  DW_CFA_def_cfa: RSP +8
  DW_CFA_nop:
  DW_CFA_nop:
  DW_CFA_nop:

  0xfc0e0: CFA=RSP+8: RIP=[CFA-8]
  0xfc0e1: CFA=RSP+16: RBP=[CFA-16], RIP=[CFA-8]
  0xfc0e4: CFA=RBP+16: RBP=[CFA-16], RIP=[CFA-8]
  0xfc106: CFA=RSP+8: RBP=[CFA-16], RIP=[CFA-8]

00006164 0000001c 00006168 FDE cie=00000000 pc=000fc110...000fc251
  Format:       DWARF32
  DW_CFA_advance_loc: 1
  DW_CFA_def_cfa_offset: +16
  DW_CFA_offset: RBP -16
  DW_CFA_advance_loc: 3
  DW_CFA_def_cfa_register: RBP
  DW_CFA_advance_loc2: 316
  DW_CFA_def_cfa: RSP +8
  DW_CFA_nop:

  0xfc110: CFA=RSP+8: RIP=[CFA-8]
  0xfc111: CFA=RSP+16: RBP=[CFA-16], RIP=[CFA-8]
  0xfc114: CFA=RBP+16: RBP=[CFA-16], RIP=[CFA-8]
  0xfc250: CFA=RSP+8: RBP=[CFA-16], RIP=[CFA-8]

00006184 0000001c 00006188 FDE cie=00000000 pc=000fc260...000fc287
  Format:       DWARF32
  DW_CFA_advance_loc: 1
  DW_CFA_def_cfa_offset: +16
  DW_CFA_offset: RBP -16
  DW_CFA_advance_loc: 3
  DW_CFA_def_cfa_register: RBP
  DW_CFA_advance_loc: 34
  DW_CFA_def_cfa: RSP +8
  DW_CFA_nop:
  DW_CFA_nop:
  DW_CFA_nop:

  0xfc260: CFA=RSP+8: RIP=[CFA-8]
  0xfc261: CFA=RSP+16: RBP=[CFA-16], RIP=[CFA-8]
  0xfc264: CFA=RBP+16: RBP=[CFA-16], RIP=[CFA-8]
  0xfc286: CFA=RSP+8: RBP=[CFA-16], RIP=[CFA-8]

000061a4 0000001c 000061a8 FDE cie=00000000 pc=000fc290...000fc3d1
  Format:       DWARF32
  DW_CFA_advance_loc: 1
  DW_CFA_def_cfa_offset: +16
  DW_CFA_offset: RBP -16
  DW_CFA_advance_loc: 3
  DW_CFA_def_cfa_register: RBP
  DW_CFA_advance_loc2: 316
  DW_CFA_def_cfa: RSP +8
  DW_CFA_nop:

  0xfc290: CFA=RSP+8: RIP=[CFA-8]
  0xfc291: CFA=RSP+16: RBP=[CFA-16], RIP=[CFA-8]
  0xfc294: CFA=RBP+16: RBP=[CFA-16], RIP=[CFA-8]
  0xfc3d0: CFA=RSP+8: RBP=[CFA-16], RIP=[CFA-8]

000061c4 0000001c 000061c8 FDE cie=00000000 pc=000fc3e0...000fc403
  Format:       DWARF32
  DW_CFA_advance_loc: 1
  DW_CFA_def_cfa_offset: +16
  DW_CFA_offset: RBP -16
  DW_CFA_advance_loc: 3
  DW_CFA_def_cfa_register: RBP
  DW_CFA_advance_loc: 30
  DW_CFA_def_cfa: RSP +8
  DW_CFA_nop:
  DW_CFA_nop:
  DW_CFA_nop:

  0xfc3e0: CFA=RSP+8: RIP=[CFA-8]
  0xfc3e1: CFA=RSP+16: RBP=[CFA-16], RIP=[CFA-8]
  0xfc3e4: CFA=RBP+16: RBP=[CFA-16], RIP=[CFA-8]
  0xfc402: CFA=RSP+8: RBP=[CFA-16], RIP=[CFA-8]

000061e4 00000028 000061e8 FDE cie=00000000 pc=000fc410...000fc510
  Format:       DWARF32
  DW_CFA_advance_loc: 1
  DW_CFA_def_cfa_offset: +16
  DW_CFA_offset: RBP -16
  DW_CFA_advance_loc: 3
  DW_CFA_def_cfa_register: RBP
  DW_CFA_advance_loc: 16
  DW_CFA_offset: RBX -56
  DW_CFA_offset: R12 -48
  DW_CFA_offset: R13 -40
  DW_CFA_offset: R14 -32
  DW_CFA_offset: R15 -24
  DW_CFA_advance_loc1: 235
  DW_CFA_def_cfa: RSP +8
  DW_CFA_nop:
  DW_CFA_nop:
  DW_CFA_nop:

  0xfc410: CFA=RSP+8: RIP=[CFA-8]
  0xfc411: CFA=RSP+16: RBP=[CFA-16], RIP=[CFA-8]
  0xfc414: CFA=RBP+16: RBP=[CFA-16], RIP=[CFA-8]
  0xfc424: CFA=RBP+16: RBX=[CFA-56], RBP=[CFA-16], R12=[CFA-48], R13=[CFA-40], R14=[CFA-32], R15=[CFA-24], RIP=[CFA-8]
  0xfc50f: CFA=RSP+8: RBX=[CFA-56], RBP=[CFA-16], R12=[CFA-48], R13=[CFA-40], R14=[CFA-32], R15=[CFA-24], RIP=[CFA-8]

00006210 0000001c 00006214 FDE cie=00000000 pc=000fc510...000fc529
  Format:       DWARF32
  DW_CFA_advance_loc: 1
  DW_CFA_def_cfa_offset: +16
  DW_CFA_offset: RBP -16
  DW_CFA_advance_loc: 3
  DW_CFA_def_cfa_register: RBP
  DW_CFA_advance_loc: 20
  DW_CFA_def_cfa: RSP +8
  DW_CFA_nop:
  DW_CFA_nop:
  DW_CFA_nop:

  0xfc510: CFA=RSP+8: RIP=[CFA-8]
  0xfc511: CFA=RSP+16: RBP=[CFA-16], RIP=[CFA-8]
  0xfc514: CFA=RBP+16: RBP=[CFA-16], RIP=[CFA-8]
  0xfc528: CFA=RSP+8: RBP=[CFA-16], RIP=[CFA-8]

00006230 00000024 00006234 FDE cie=00000000 pc=000fc530...000fc5e5
  Format:       DWARF32
  DW_CFA_advance_loc: 1
  DW_CFA_def_cfa_offset: +16
  DW_CFA_offset: RBP -16
  DW_CFA_advance_loc: 3
  DW_CFA_def_cfa_register: RBP
  DW_CFA_advance_loc: 9
  DW_CFA_offset: RBX -40
  DW_CFA_offset: R14 -32
  DW_CFA_offset: R15 -24
  DW_CFA_advance_loc1: 167
  DW_CFA_def_cfa: RSP +8
  DW_CFA_nop:
  DW_CFA_nop:
  DW_CFA_nop:

  0xfc530: CFA=RSP+8: RIP=[CFA-8]
  0xfc531: CFA=RSP+16: RBP=[CFA-16], RIP=[CFA-8]
  0xfc534: CFA=RBP+16: RBP=[CFA-16], RIP=[CFA-8]
  0xfc53d: CFA=RBP+16: RBX=[CFA-40], RBP=[CFA-16], R14=[CFA-32], R15=[CFA-24], RIP=[CFA-8]
  0xfc5e4: CFA=RSP+8: RBX=[CFA-40], RBP=[CFA-16], R14=[CFA-32], R15=[CFA-24], RIP=[CFA-8]

00006258 0000001c 0000625c FDE cie=00000000 pc=000fc5f0...000fc617
  Format:       DWARF32
  DW_CFA_advance_loc: 1
  DW_CFA_def_cfa_offset: +16
  DW_CFA_offset: RBP -16
  DW_CFA_advance_loc: 3
  DW_CFA_def_cfa_register: RBP
  DW_CFA_advance_loc: 34
  DW_CFA_def_cfa: RSP +8
  DW_CFA_nop:
  DW_CFA_nop:
  DW_CFA_nop:

  0xfc5f0: CFA=RSP+8: RIP=[CFA-8]
  0xfc5f1: CFA=RSP+16: RBP=[CFA-16], RIP=[CFA-8]
  0xfc5f4: CFA=RBP+16: RBP=[CFA-16], RIP=[CFA-8]
  0xfc616: CFA=RSP+8: RBP=[CFA-16], RIP=[CFA-8]

00006278 00000020 0000627c FDE cie=00000000 pc=000fc620...000fc7a5
  Format:       DWARF32
  DW_CFA_advance_loc: 1
  DW_CFA_def_cfa_offset: +16
  DW_CFA_offset: RBP -16
  DW_CFA_advance_loc: 3
  DW_CFA_def_cfa_register: RBP
  DW_CFA_advance_loc: 10
  DW_CFA_offset: RBX -32
  DW_CFA_offset: R14 -24
  DW_CFA_advance_loc2: 374
  DW_CFA_def_cfa: RSP +8

  0xfc620: CFA=RSP+8: RIP=[CFA-8]
  0xfc621: CFA=RSP+16: RBP=[CFA-16], RIP=[CFA-8]
  0xfc624: CFA=RBP+16: RBP=[CFA-16], RIP=[CFA-8]
  0xfc62e: CFA=RBP+16: RBX=[CFA-32], RBP=[CFA-16], R14=[CFA-24], RIP=[CFA-8]
  0xfc7a4: CFA=RSP+8: RBX=[CFA-32], RBP=[CFA-16], R14=[CFA-24], RIP=[CFA-8]

0000629c 0000001c 000062a0 FDE cie=00000000 pc=000fc7b0...000fc7cb
  Format:       DWARF32
  DW_CFA_advance_loc: 1
  DW_CFA_def_cfa_offset: +16
  DW_CFA_offset: RBP -16
  DW_CFA_advance_loc: 3
  DW_CFA_def_cfa_register: RBP
  DW_CFA_advance_loc: 22
  DW_CFA_def_cfa: RSP +8
  DW_CFA_nop:
  DW_CFA_nop:
  DW_CFA_nop:

  0xfc7b0: CFA=RSP+8: RIP=[CFA-8]
  0xfc7b1: CFA=RSP+16: RBP=[CFA-16], RIP=[CFA-8]
  0xfc7b4: CFA=RBP+16: RBP=[CFA-16], RIP=[CFA-8]
  0xfc7ca: CFA=RSP+8: RBP=[CFA-16], RIP=[CFA-8]

000062bc 00000024 000062c0 FDE cie=00000000 pc=000fc7d0...000fc890
  Format:       DWARF32
  DW_CFA_advance_loc: 1
  DW_CFA_def_cfa_offset: +16
  DW_CFA_offset: RBP -16
  DW_CFA_advance_loc: 3
  DW_CFA_def_cfa_register: RBP
  DW_CFA_advance_loc: 11
  DW_CFA_offset: RBX -48
  DW_CFA_offset: R12 -40
  DW_CFA_offset: R14 -32
  DW_CFA_offset: R15 -24
  DW_CFA_advance_loc1: 176
  DW_CFA_def_cfa: RSP +8
  DW_CFA_nop:

  0xfc7d0: CFA=RSP+8: RIP=[CFA-8]
  0xfc7d1: CFA=RSP+16: RBP=[CFA-16], RIP=[CFA-8]
  0xfc7d4: CFA=RBP+16: RBP=[CFA-16], RIP=[CFA-8]
  0xfc7df: CFA=RBP+16: RBX=[CFA-48], RBP=[CFA-16], R12=[CFA-40], R14=[CFA-32], R15=[CFA-24], RIP=[CFA-8]
  0xfc88f: CFA=RSP+8: RBX=[CFA-48], RBP=[CFA-16], R12=[CFA-40], R14=[CFA-32], R15=[CFA-24], RIP=[CFA-8]

000062e4 0000001c 000062e8 FDE cie=00000000 pc=000fc890...000fc8b7
  Format:       DWARF32
  DW_CFA_advance_loc: 1
  DW_CFA_def_cfa_offset: +16
  DW_CFA_offset: RBP -16
  DW_CFA_advance_loc: 3
  DW_CFA_def_cfa_register: RBP
  DW_CFA_advance_loc: 34
  DW_CFA_def_cfa: RSP +8
  DW_CFA_nop:
  DW_CFA_nop:
  DW_CFA_nop:

  0xfc890: CFA=RSP+8: RIP=[CFA-8]
  0xfc891: CFA=RSP+16: RBP=[CFA-16], RIP=[CFA-8]
  0xfc894: CFA=RBP+16: RBP=[CFA-16], RIP=[CFA-8]
  0xfc8b6: CFA=RSP+8: RBP=[CFA-16], RIP=[CFA-8]

00006304 00000020 00006308 FDE cie=00000000 pc=000fc8c0...000fc947
  Format:       DWARF32
  DW_CFA_advance_loc: 1
  DW_CFA_def_cfa_offset: +16
  DW_CFA_offset: RBP -16
  DW_CFA_advance_loc: 3
  DW_CFA_def_cfa_register: RBP
  DW_CFA_advance_loc: 5
  DW_CFA_offset: RBX -24
  DW_CFA_advance_loc1: 125
  DW_CFA_def_cfa: RSP +8
  DW_CFA_nop:
  DW_CFA_nop:
  DW_CFA_nop:

  0xfc8c0: CFA=RSP+8: RIP=[CFA-8]
  0xfc8c1: CFA=RSP+16: RBP=[CFA-16], RIP=[CFA-8]
  0xfc8c4: CFA=RBP+16: RBP=[CFA-16], RIP=[CFA-8]
  0xfc8c9: CFA=RBP+16: RBX=[CFA-24], RBP=[CFA-16], RIP=[CFA-8]
  0xfc946: CFA=RSP+8: RBX=[CFA-24], RBP=[CFA-16], RIP=[CFA-8]

00006328 0000001c 0000632c FDE cie=00000000 pc=000fc950...000fc99f
  Format:       DWARF32
  DW_CFA_advance_loc: 1
  DW_CFA_def_cfa_offset: +16
  DW_CFA_offset: RBP -16
  DW_CFA_advance_loc: 3
  DW_CFA_def_cfa_register: RBP
  DW_CFA_advance_loc1: 74
  DW_CFA_def_cfa: RSP +8
  DW_CFA_nop:
  DW_CFA_nop:

  0xfc950: CFA=RSP+8: RIP=[CFA-8]
  0xfc951: CFA=RSP+16: RBP=[CFA-16], RIP=[CFA-8]
  0xfc954: CFA=RBP+16: RBP=[CFA-16], RIP=[CFA-8]
  0xfc99e: CFA=RSP+8: RBP=[CFA-16], RIP=[CFA-8]

00006348 0000001c 0000634c FDE cie=00000000 pc=000fc9a0...000fc9b0
  Format:       DWARF32
  DW_CFA_advance_loc: 1
  DW_CFA_def_cfa_offset: +16
  DW_CFA_offset: RBP -16
  DW_CFA_advance_loc: 3
  DW_CFA_def_cfa_register: RBP
  DW_CFA_advance_loc: 11
  DW_CFA_def_cfa: RSP +8
  DW_CFA_nop:
  DW_CFA_nop:
  DW_CFA_nop:

  0xfc9a0: CFA=RSP+8: RIP=[CFA-8]
  0xfc9a1: CFA=RSP+16: RBP=[CFA-16], RIP=[CFA-8]
  0xfc9a4: CFA=RBP+16: RBP=[CFA-16], RIP=[CFA-8]
  0xfc9af: CFA=RSP+8: RBP=[CFA-16], RIP=[CFA-8]

00006368 00000020 0000636c FDE cie=00000000 pc=000fc9b0...000fca37
  Format:       DWARF32
  DW_CFA_advance_loc: 1
  DW_CFA_def_cfa_offset: +16
  DW_CFA_offset: RBP -16
  DW_CFA_advance_loc: 3
  DW_CFA_def_cfa_register: RBP
  DW_CFA_advance_loc: 5
  DW_CFA_offset: RBX -24
  DW_CFA_advance_loc1: 125
  DW_CFA_def_cfa: RSP +8
  DW_CFA_nop:
  DW_CFA_nop:
  DW_CFA_nop:

  0xfc9b0: CFA=RSP+8: RIP=[CFA-8]
  0xfc9b1: CFA=RSP+16: RBP=[CFA-16], RIP=[CFA-8]
  0xfc9b4: CFA=RBP+16: RBP=[CFA-16], RIP=[CFA-8]
  0xfc9b9: CFA=RBP+16: RBX=[CFA-24], RBP=[CFA-16], RIP=[CFA-8]
  0xfca36: CFA=RSP+8: RBX=[CFA-24], RBP=[CFA-16], RIP=[CFA-8]

0000638c 0000001c 00006390 FDE cie=00000000 pc=000fca40...000fca82
  Format:       DWARF32
  DW_CFA_advance_loc: 1
  DW_CFA_def_cfa_offset: +16
  DW_CFA_offset: RBP -16
  DW_CFA_advance_loc: 3
  DW_CFA_def_cfa_register: RBP
  DW_CFA_advance_loc: 61
  DW_CFA_def_cfa: RSP +8
  DW_CFA_nop:
  DW_CFA_nop:
  DW_CFA_nop:

  0xfca40: CFA=RSP+8: RIP=[CFA-8]
  0xfca41: CFA=RSP+16: RBP=[CFA-16], RIP=[CFA-8]
  0xfca44: CFA=RBP+16: RBP=[CFA-16], RIP=[CFA-8]
  0xfca81: CFA=RSP+8: RBP=[CFA-16], RIP=[CFA-8]

000063ac 0000001c 000063b0 FDE cie=00000000 pc=000fca90...000fcab7
  Format:       DWARF32
  DW_CFA_advance_loc: 1
  DW_CFA_def_cfa_offset: +16
  DW_CFA_offset: RBP -16
  DW_CFA_advance_loc: 3
  DW_CFA_def_cfa_register: RBP
  DW_CFA_advance_loc: 34
  DW_CFA_def_cfa: RSP +8
  DW_CFA_nop:
  DW_CFA_nop:
  DW_CFA_nop:

  0xfca90: CFA=RSP+8: RIP=[CFA-8]
  0xfca91: CFA=RSP+16: RBP=[CFA-16], RIP=[CFA-8]
  0xfca94: CFA=RBP+16: RBP=[CFA-16], RIP=[CFA-8]
  0xfcab6: CFA=RSP+8: RBP=[CFA-16], RIP=[CFA-8]

000063cc 00000024 000063d0 FDE cie=00000000 pc=000fcac0...000fcb80
  Format:       DWARF32
  DW_CFA_advance_loc: 1
  DW_CFA_def_cfa_offset: +16
  DW_CFA_offset: RBP -16
  DW_CFA_advance_loc: 3
  DW_CFA_def_cfa_register: RBP
  DW_CFA_advance_loc: 11
  DW_CFA_offset: RBX -48
  DW_CFA_offset: R12 -40
  DW_CFA_offset: R14 -32
  DW_CFA_offset: R15 -24
  DW_CFA_advance_loc1: 176
  DW_CFA_def_cfa: RSP +8
  DW_CFA_nop:

  0xfcac0: CFA=RSP+8: RIP=[CFA-8]
  0xfcac1: CFA=RSP+16: RBP=[CFA-16], RIP=[CFA-8]
  0xfcac4: CFA=RBP+16: RBP=[CFA-16], RIP=[CFA-8]
  0xfcacf: CFA=RBP+16: RBX=[CFA-48], RBP=[CFA-16], R12=[CFA-40], R14=[CFA-32], R15=[CFA-24], RIP=[CFA-8]
  0xfcb7f: CFA=RSP+8: RBX=[CFA-48], RBP=[CFA-16], R12=[CFA-40], R14=[CFA-32], R15=[CFA-24], RIP=[CFA-8]

000063f4 0000001c 000063f8 FDE cie=00000000 pc=000fcb80...000fcbf1
  Format:       DWARF32
  DW_CFA_advance_loc: 1
  DW_CFA_def_cfa_offset: +16
  DW_CFA_offset: RBP -16
  DW_CFA_advance_loc: 3
  DW_CFA_def_cfa_register: RBP
  DW_CFA_advance_loc1: 108
  DW_CFA_def_cfa: RSP +8
  DW_CFA_nop:
  DW_CFA_nop:

  0xfcb80: CFA=RSP+8: RIP=[CFA-8]
  0xfcb81: CFA=RSP+16: RBP=[CFA-16], RIP=[CFA-8]
  0xfcb84: CFA=RBP+16: RBP=[CFA-16], RIP=[CFA-8]
  0xfcbf0: CFA=RSP+8: RBP=[CFA-16], RIP=[CFA-8]

00006414 0000001c 00006418 FDE cie=00000000 pc=000fcc00...000fcc27
  Format:       DWARF32
  DW_CFA_advance_loc: 1
  DW_CFA_def_cfa_offset: +16
  DW_CFA_offset: RBP -16
  DW_CFA_advance_loc: 3
  DW_CFA_def_cfa_register: RBP
  DW_CFA_advance_loc: 34
  DW_CFA_def_cfa: RSP +8
  DW_CFA_nop:
  DW_CFA_nop:
  DW_CFA_nop:

  0xfcc00: CFA=RSP+8: RIP=[CFA-8]
  0xfcc01: CFA=RSP+16: RBP=[CFA-16], RIP=[CFA-8]
  0xfcc04: CFA=RBP+16: RBP=[CFA-16], RIP=[CFA-8]
  0xfcc26: CFA=RSP+8: RBP=[CFA-16], RIP=[CFA-8]

00006434 0000001c 00006438 FDE cie=00000000 pc=000fcc30...000fcd39
  Format:       DWARF32
  DW_CFA_advance_loc: 1
  DW_CFA_def_cfa_offset: +16
  DW_CFA_offset: RBP -16
  DW_CFA_advance_loc: 3
  DW_CFA_def_cfa_register: RBP
  DW_CFA_advance_loc2: 260
  DW_CFA_def_cfa: RSP +8
  DW_CFA_nop:

  0xfcc30: CFA=RSP+8: RIP=[CFA-8]
  0xfcc31: CFA=RSP+16: RBP=[CFA-16], RIP=[CFA-8]
  0xfcc34: CFA=RBP+16: RBP=[CFA-16], RIP=[CFA-8]
  0xfcd38: CFA=RSP+8: RBP=[CFA-16], RIP=[CFA-8]

00006454 0000001c 00006458 FDE cie=00000000 pc=000fcd40...000fcd6b
  Format:       DWARF32
  DW_CFA_advance_loc: 1
  DW_CFA_def_cfa_offset: +16
  DW_CFA_offset: RBP -16
  DW_CFA_advance_loc: 3
  DW_CFA_def_cfa_register: RBP
  DW_CFA_advance_loc: 38
  DW_CFA_def_cfa: RSP +8
  DW_CFA_nop:
  DW_CFA_nop:
  DW_CFA_nop:

  0xfcd40: CFA=RSP+8: RIP=[CFA-8]
  0xfcd41: CFA=RSP+16: RBP=[CFA-16], RIP=[CFA-8]
  0xfcd44: CFA=RBP+16: RBP=[CFA-16], RIP=[CFA-8]
  0xfcd6a: CFA=RSP+8: RBP=[CFA-16], RIP=[CFA-8]

00006474 0000001c 00006478 FDE cie=00000000 pc=000fcd70...000fcd97
  Format:       DWARF32
  DW_CFA_advance_loc: 1
  DW_CFA_def_cfa_offset: +16
  DW_CFA_offset: RBP -16
  DW_CFA_advance_loc: 3
  DW_CFA_def_cfa_register: RBP
  DW_CFA_advance_loc: 34
  DW_CFA_def_cfa: RSP +8
  DW_CFA_nop:
  DW_CFA_nop:
  DW_CFA_nop:

  0xfcd70: CFA=RSP+8: RIP=[CFA-8]
  0xfcd71: CFA=RSP+16: RBP=[CFA-16], RIP=[CFA-8]
  0xfcd74: CFA=RBP+16: RBP=[CFA-16], RIP=[CFA-8]
  0xfcd96: CFA=RSP+8: RBP=[CFA-16], RIP=[CFA-8]

00006494 0000001c 00006498 FDE cie=00000000 pc=000fcda0...000fcdc7
  Format:       DWARF32
  DW_CFA_advance_loc: 1
  DW_CFA_def_cfa_offset: +16
  DW_CFA_offset: RBP -16
  DW_CFA_advance_loc: 3
  DW_CFA_def_cfa_register: RBP
  DW_CFA_advance_loc: 34
  DW_CFA_def_cfa: RSP +8
  DW_CFA_nop:
  DW_CFA_nop:
  DW_CFA_nop:

  0xfcda0: CFA=RSP+8: RIP=[CFA-8]
  0xfcda1: CFA=RSP+16: RBP=[CFA-16], RIP=[CFA-8]
  0xfcda4: CFA=RBP+16: RBP=[CFA-16], RIP=[CFA-8]
  0xfcdc6: CFA=RSP+8: RBP=[CFA-16], RIP=[CFA-8]

000064b4 0000001c 000064b8 FDE cie=00000000 pc=000fcdd0...000fcfd0
  Format:       DWARF32
  DW_CFA_advance_loc: 1
  DW_CFA_def_cfa_offset: +16
  DW_CFA_offset: RBP -16
  DW_CFA_advance_loc: 3
  DW_CFA_def_cfa_register: RBP
  DW_CFA_advance_loc2: 507
  DW_CFA_def_cfa: RSP +8
  DW_CFA_nop:

  0xfcdd0: CFA=RSP+8: RIP=[CFA-8]
  0xfcdd1: CFA=RSP+16: RBP=[CFA-16], RIP=[CFA-8]
  0xfcdd4: CFA=RBP+16: RBP=[CFA-16], RIP=[CFA-8]
  0xfcfcf: CFA=RSP+8: RBP=[CFA-16], RIP=[CFA-8]

000064d4 0000001c 000064d8 FDE cie=00000000 pc=000fcfd0...000fd005
  Format:       DWARF32
  DW_CFA_advance_loc: 1
  DW_CFA_def_cfa_offset: +16
  DW_CFA_offset: RBP -16
  DW_CFA_advance_loc: 3
  DW_CFA_def_cfa_register: RBP
  DW_CFA_advance_loc: 48
  DW_CFA_def_cfa: RSP +8
  DW_CFA_nop:
  DW_CFA_nop:
  DW_CFA_nop:

  0xfcfd0: CFA=RSP+8: RIP=[CFA-8]
  0xfcfd1: CFA=RSP+16: RBP=[CFA-16], RIP=[CFA-8]
  0xfcfd4: CFA=RBP+16: RBP=[CFA-16], RIP=[CFA-8]
  0xfd004: CFA=RSP+8: RBP=[CFA-16], RIP=[CFA-8]

000064f4 0000001c 000064f8 FDE cie=00000000 pc=000fd010...000fd1c2
  Format:       DWARF32
  DW_CFA_advance_loc: 1
  DW_CFA_def_cfa_offset: +16
  DW_CFA_offset: RBP -16
  DW_CFA_advance_loc: 3
  DW_CFA_def_cfa_register: RBP
  DW_CFA_advance_loc2: 429
  DW_CFA_def_cfa: RSP +8
  DW_CFA_nop:

  0xfd010: CFA=RSP+8: RIP=[CFA-8]
  0xfd011: CFA=RSP+16: RBP=[CFA-16], RIP=[CFA-8]
  0xfd014: CFA=RBP+16: RBP=[CFA-16], RIP=[CFA-8]
  0xfd1c1: CFA=RSP+8: RBP=[CFA-16], RIP=[CFA-8]

00006514 0000001c 00006518 FDE cie=00000000 pc=000fd1d0...000fd235
  Format:       DWARF32
  DW_CFA_advance_loc: 1
  DW_CFA_def_cfa_offset: +16
  DW_CFA_offset: RBP -16
  DW_CFA_advance_loc: 3
  DW_CFA_def_cfa_register: RBP
  DW_CFA_advance_loc1: 96
  DW_CFA_def_cfa: RSP +8
  DW_CFA_nop:
  DW_CFA_nop:

  0xfd1d0: CFA=RSP+8: RIP=[CFA-8]
  0xfd1d1: CFA=RSP+16: RBP=[CFA-16], RIP=[CFA-8]
  0xfd1d4: CFA=RBP+16: RBP=[CFA-16], RIP=[CFA-8]
  0xfd234: CFA=RSP+8: RBP=[CFA-16], RIP=[CFA-8]

00006534 0000001c 00006538 FDE cie=00000000 pc=000fd240...000fd2df
  Format:       DWARF32
  DW_CFA_advance_loc: 1
  DW_CFA_def_cfa_offset: +16
  DW_CFA_offset: RBP -16
  DW_CFA_advance_loc: 3
  DW_CFA_def_cfa_register: RBP
  DW_CFA_advance_loc1: 154
  DW_CFA_def_cfa: RSP +8
  DW_CFA_nop:
  DW_CFA_nop:

  0xfd240: CFA=RSP+8: RIP=[CFA-8]
  0xfd241: CFA=RSP+16: RBP=[CFA-16], RIP=[CFA-8]
  0xfd244: CFA=RBP+16: RBP=[CFA-16], RIP=[CFA-8]
  0xfd2de: CFA=RSP+8: RBP=[CFA-16], RIP=[CFA-8]

00006554 0000001c 00006558 FDE cie=00000000 pc=000fd2e0...000fd304
  Format:       DWARF32
  DW_CFA_advance_loc: 1
  DW_CFA_def_cfa_offset: +16
  DW_CFA_offset: RBP -16
  DW_CFA_advance_loc: 3
  DW_CFA_def_cfa_register: RBP
  DW_CFA_advance_loc: 31
  DW_CFA_def_cfa: RSP +8
  DW_CFA_nop:
  DW_CFA_nop:
  DW_CFA_nop:

  0xfd2e0: CFA=RSP+8: RIP=[CFA-8]
  0xfd2e1: CFA=RSP+16: RBP=[CFA-16], RIP=[CFA-8]
  0xfd2e4: CFA=RBP+16: RBP=[CFA-16], RIP=[CFA-8]
  0xfd303: CFA=RSP+8: RBP=[CFA-16], RIP=[CFA-8]

00006574 0000001c 00006578 FDE cie=00000000 pc=000fd310...000fd334
  Format:       DWARF32
  DW_CFA_advance_loc: 1
  DW_CFA_def_cfa_offset: +16
  DW_CFA_offset: RBP -16
  DW_CFA_advance_loc: 3
  DW_CFA_def_cfa_register: RBP
  DW_CFA_advance_loc: 31
  DW_CFA_def_cfa: RSP +8
  DW_CFA_nop:
  DW_CFA_nop:
  DW_CFA_nop:

  0xfd310: CFA=RSP+8: RIP=[CFA-8]
  0xfd311: CFA=RSP+16: RBP=[CFA-16], RIP=[CFA-8]
  0xfd314: CFA=RBP+16: RBP=[CFA-16], RIP=[CFA-8]
  0xfd333: CFA=RSP+8: RBP=[CFA-16], RIP=[CFA-8]

00006594 0000001c 00006598 FDE cie=00000000 pc=000fd340...000fd364
  Format:       DWARF32
  DW_CFA_advance_loc: 1
  DW_CFA_def_cfa_offset: +16
  DW_CFA_offset: RBP -16
  DW_CFA_advance_loc: 3
  DW_CFA_def_cfa_register: RBP
  DW_CFA_advance_loc: 31
  DW_CFA_def_cfa: RSP +8
  DW_CFA_nop:
  DW_CFA_nop:
  DW_CFA_nop:

  0xfd340: CFA=RSP+8: RIP=[CFA-8]
  0xfd341: CFA=RSP+16: RBP=[CFA-16], RIP=[CFA-8]
  0xfd344: CFA=RBP+16: RBP=[CFA-16], RIP=[CFA-8]
  0xfd363: CFA=RSP+8: RBP=[CFA-16], RIP=[CFA-8]

000065b4 0000001c 000065b8 FDE cie=00000000 pc=000fd370...000fd3a8
  Format:       DWARF32
  DW_CFA_advance_loc: 1
  DW_CFA_def_cfa_offset: +16
  DW_CFA_offset: RBP -16
  DW_CFA_advance_loc: 3
  DW_CFA_def_cfa_register: RBP
  DW_CFA_advance_loc: 51
  DW_CFA_def_cfa: RSP +8
  DW_CFA_nop:
  DW_CFA_nop:
  DW_CFA_nop:

  0xfd370: CFA=RSP+8: RIP=[CFA-8]
  0xfd371: CFA=RSP+16: RBP=[CFA-16], RIP=[CFA-8]
  0xfd374: CFA=RBP+16: RBP=[CFA-16], RIP=[CFA-8]
  0xfd3a7: CFA=RSP+8: RBP=[CFA-16], RIP=[CFA-8]

000065d4 0000001c 000065d8 FDE cie=00000000 pc=000fd3b0...000fd3e8
  Format:       DWARF32
  DW_CFA_advance_loc: 1
  DW_CFA_def_cfa_offset: +16
  DW_CFA_offset: RBP -16
  DW_CFA_advance_loc: 3
  DW_CFA_def_cfa_register: RBP
  DW_CFA_advance_loc: 51
  DW_CFA_def_cfa: RSP +8
  DW_CFA_nop:
  DW_CFA_nop:
  DW_CFA_nop:

  0xfd3b0: CFA=RSP+8: RIP=[CFA-8]
  0xfd3b1: CFA=RSP+16: RBP=[CFA-16], RIP=[CFA-8]
  0xfd3b4: CFA=RBP+16: RBP=[CFA-16], RIP=[CFA-8]
  0xfd3e7: CFA=RSP+8: RBP=[CFA-16], RIP=[CFA-8]

000065f4 0000001c 000065f8 FDE cie=00000000 pc=000fd3f0...000fd428
  Format:       DWARF32
  DW_CFA_advance_loc: 1
  DW_CFA_def_cfa_offset: +16
  DW_CFA_offset: RBP -16
  DW_CFA_advance_loc: 3
  DW_CFA_def_cfa_register: RBP
  DW_CFA_advance_loc: 51
  DW_CFA_def_cfa: RSP +8
  DW_CFA_nop:
  DW_CFA_nop:
  DW_CFA_nop:

  0xfd3f0: CFA=RSP+8: RIP=[CFA-8]
  0xfd3f1: CFA=RSP+16: RBP=[CFA-16], RIP=[CFA-8]
  0xfd3f4: CFA=RBP+16: RBP=[CFA-16], RIP=[CFA-8]
  0xfd427: CFA=RSP+8: RBP=[CFA-16], RIP=[CFA-8]

00006614 00000018 00006618 FDE cie=00000000 pc=000fd430...000fd43c
  Format:       DWARF32
  DW_CFA_advance_loc: 1
  DW_CFA_def_cfa_offset: +16
  DW_CFA_offset: RBP -16
  DW_CFA_advance_loc: 3
  DW_CFA_def_cfa_register: RBP
  DW_CFA_nop:
  DW_CFA_nop:
  DW_CFA_nop:

  0xfd430: CFA=RSP+8: RIP=[CFA-8]
  0xfd431: CFA=RSP+16: RBP=[CFA-16], RIP=[CFA-8]
  0xfd434: CFA=RBP+16: RBP=[CFA-16], RIP=[CFA-8]

00006630 00000018 00006634 FDE cie=00000000 pc=000fd440...000fd44e
  Format:       DWARF32
  DW_CFA_advance_loc: 1
  DW_CFA_def_cfa_offset: +16
  DW_CFA_offset: RBP -16
  DW_CFA_advance_loc: 3
  DW_CFA_def_cfa_register: RBP
  DW_CFA_nop:
  DW_CFA_nop:
  DW_CFA_nop:

  0xfd440: CFA=RSP+8: RIP=[CFA-8]
  0xfd441: CFA=RSP+16: RBP=[CFA-16], RIP=[CFA-8]
  0xfd444: CFA=RBP+16: RBP=[CFA-16], RIP=[CFA-8]

0000664c 0000001c 00006650 FDE cie=00000000 pc=000fd450...000fd462
  Format:       DWARF32
  DW_CFA_advance_loc: 1
  DW_CFA_def_cfa_offset: +16
  DW_CFA_offset: RBP -16
  DW_CFA_advance_loc: 3
  DW_CFA_def_cfa_register: RBP
  DW_CFA_advance_loc: 13
  DW_CFA_def_cfa: RSP +8
  DW_CFA_nop:
  DW_CFA_nop:
  DW_CFA_nop:

  0xfd450: CFA=RSP+8: RIP=[CFA-8]
  0xfd451: CFA=RSP+16: RBP=[CFA-16], RIP=[CFA-8]
  0xfd454: CFA=RBP+16: RBP=[CFA-16], RIP=[CFA-8]
  0xfd461: CFA=RSP+8: RBP=[CFA-16], RIP=[CFA-8]

0000666c 0000001c 00006670 FDE cie=00000000 pc=000fd470...000fd4c8
  Format:       DWARF32
  DW_CFA_advance_loc: 1
  DW_CFA_def_cfa_offset: +16
  DW_CFA_offset: RBP -16
  DW_CFA_advance_loc: 3
  DW_CFA_def_cfa_register: RBP
  DW_CFA_advance_loc1: 83
  DW_CFA_def_cfa: RSP +8
  DW_CFA_nop:
  DW_CFA_nop:

  0xfd470: CFA=RSP+8: RIP=[CFA-8]
  0xfd471: CFA=RSP+16: RBP=[CFA-16], RIP=[CFA-8]
  0xfd474: CFA=RBP+16: RBP=[CFA-16], RIP=[CFA-8]
  0xfd4c7: CFA=RSP+8: RBP=[CFA-16], RIP=[CFA-8]

0000668c 0000001c 00006690 FDE cie=00000000 pc=000fd4d0...000fd4e5
  Format:       DWARF32
  DW_CFA_advance_loc: 1
  DW_CFA_def_cfa_offset: +16
  DW_CFA_offset: RBP -16
  DW_CFA_advance_loc: 3
  DW_CFA_def_cfa_register: RBP
  DW_CFA_advance_loc: 16
  DW_CFA_def_cfa: RSP +8
  DW_CFA_nop:
  DW_CFA_nop:
  DW_CFA_nop:

  0xfd4d0: CFA=RSP+8: RIP=[CFA-8]
  0xfd4d1: CFA=RSP+16: RBP=[CFA-16], RIP=[CFA-8]
  0xfd4d4: CFA=RBP+16: RBP=[CFA-16], RIP=[CFA-8]
  0xfd4e4: CFA=RSP+8: RBP=[CFA-16], RIP=[CFA-8]

000066ac 00000020 000066b0 FDE cie=00000000 pc=000fd4f0...000fd577
  Format:       DWARF32
  DW_CFA_advance_loc: 1
  DW_CFA_def_cfa_offset: +16
  DW_CFA_offset: RBP -16
  DW_CFA_advance_loc: 3
  DW_CFA_def_cfa_register: RBP
  DW_CFA_advance_loc: 5
  DW_CFA_offset: RBX -24
  DW_CFA_advance_loc1: 125
  DW_CFA_def_cfa: RSP +8
  DW_CFA_nop:
  DW_CFA_nop:
  DW_CFA_nop:

  0xfd4f0: CFA=RSP+8: RIP=[CFA-8]
  0xfd4f1: CFA=RSP+16: RBP=[CFA-16], RIP=[CFA-8]
  0xfd4f4: CFA=RBP+16: RBP=[CFA-16], RIP=[CFA-8]
  0xfd4f9: CFA=RBP+16: RBX=[CFA-24], RBP=[CFA-16], RIP=[CFA-8]
  0xfd576: CFA=RSP+8: RBX=[CFA-24], RBP=[CFA-16], RIP=[CFA-8]

000066d0 0000001c 000066d4 FDE cie=00000000 pc=000fd580...000fd599
  Format:       DWARF32
  DW_CFA_advance_loc: 1
  DW_CFA_def_cfa_offset: +16
  DW_CFA_offset: RBP -16
  DW_CFA_advance_loc: 3
  DW_CFA_def_cfa_register: RBP
  DW_CFA_advance_loc: 20
  DW_CFA_def_cfa: RSP +8
  DW_CFA_nop:
  DW_CFA_nop:
  DW_CFA_nop:

  0xfd580: CFA=RSP+8: RIP=[CFA-8]
  0xfd581: CFA=RSP+16: RBP=[CFA-16], RIP=[CFA-8]
  0xfd584: CFA=RBP+16: RBP=[CFA-16], RIP=[CFA-8]
  0xfd598: CFA=RSP+8: RBP=[CFA-16], RIP=[CFA-8]

000066f0 00000024 000066f4 FDE cie=00000000 pc=000fd5a0...000fd655
  Format:       DWARF32
  DW_CFA_advance_loc: 1
  DW_CFA_def_cfa_offset: +16
  DW_CFA_offset: RBP -16
  DW_CFA_advance_loc: 3
  DW_CFA_def_cfa_register: RBP
  DW_CFA_advance_loc: 9
  DW_CFA_offset: RBX -40
  DW_CFA_offset: R14 -32
  DW_CFA_offset: R15 -24
  DW_CFA_advance_loc1: 167
  DW_CFA_def_cfa: RSP +8
  DW_CFA_nop:
  DW_CFA_nop:
  DW_CFA_nop:

  0xfd5a0: CFA=RSP+8: RIP=[CFA-8]
  0xfd5a1: CFA=RSP+16: RBP=[CFA-16], RIP=[CFA-8]
  0xfd5a4: CFA=RBP+16: RBP=[CFA-16], RIP=[CFA-8]
  0xfd5ad: CFA=RBP+16: RBX=[CFA-40], RBP=[CFA-16], R14=[CFA-32], R15=[CFA-24], RIP=[CFA-8]
  0xfd654: CFA=RSP+8: RBX=[CFA-40], RBP=[CFA-16], R14=[CFA-32], R15=[CFA-24], RIP=[CFA-8]

00006718 0000001c 0000671c FDE cie=00000000 pc=000fd660...000fd679
  Format:       DWARF32
  DW_CFA_advance_loc: 1
  DW_CFA_def_cfa_offset: +16
  DW_CFA_offset: RBP -16
  DW_CFA_advance_loc: 3
  DW_CFA_def_cfa_register: RBP
  DW_CFA_advance_loc: 20
  DW_CFA_def_cfa: RSP +8
  DW_CFA_nop:
  DW_CFA_nop:
  DW_CFA_nop:

  0xfd660: CFA=RSP+8: RIP=[CFA-8]
  0xfd661: CFA=RSP+16: RBP=[CFA-16], RIP=[CFA-8]
  0xfd664: CFA=RBP+16: RBP=[CFA-16], RIP=[CFA-8]
  0xfd678: CFA=RSP+8: RBP=[CFA-16], RIP=[CFA-8]

00006738 00000024 0000673c FDE cie=00000000 pc=000fd680...000fd735
  Format:       DWARF32
  DW_CFA_advance_loc: 1
  DW_CFA_def_cfa_offset: +16
  DW_CFA_offset: RBP -16
  DW_CFA_advance_loc: 3
  DW_CFA_def_cfa_register: RBP
  DW_CFA_advance_loc: 9
  DW_CFA_offset: RBX -40
  DW_CFA_offset: R14 -32
  DW_CFA_offset: R15 -24
  DW_CFA_advance_loc1: 167
  DW_CFA_def_cfa: RSP +8
  DW_CFA_nop:
  DW_CFA_nop:
  DW_CFA_nop:

  0xfd680: CFA=RSP+8: RIP=[CFA-8]
  0xfd681: CFA=RSP+16: RBP=[CFA-16], RIP=[CFA-8]
  0xfd684: CFA=RBP+16: RBP=[CFA-16], RIP=[CFA-8]
  0xfd68d: CFA=RBP+16: RBX=[CFA-40], RBP=[CFA-16], R14=[CFA-32], R15=[CFA-24], RIP=[CFA-8]
  0xfd734: CFA=RSP+8: RBX=[CFA-40], RBP=[CFA-16], R14=[CFA-32], R15=[CFA-24], RIP=[CFA-8]

00006760 0000001c 00006764 FDE cie=00000000 pc=000fd740...000fd75b
  Format:       DWARF32
  DW_CFA_advance_loc: 1
  DW_CFA_def_cfa_offset: +16
  DW_CFA_offset: RBP -16
  DW_CFA_advance_loc: 3
  DW_CFA_def_cfa_register: RBP
  DW_CFA_advance_loc: 22
  DW_CFA_def_cfa: RSP +8
  DW_CFA_nop:
  DW_CFA_nop:
  DW_CFA_nop:

  0xfd740: CFA=RSP+8: RIP=[CFA-8]
  0xfd741: CFA=RSP+16: RBP=[CFA-16], RIP=[CFA-8]
  0xfd744: CFA=RBP+16: RBP=[CFA-16], RIP=[CFA-8]
  0xfd75a: CFA=RSP+8: RBP=[CFA-16], RIP=[CFA-8]

00006780 00000020 00006784 FDE cie=00000000 pc=000fd760...000fd7e7
  Format:       DWARF32
  DW_CFA_advance_loc: 1
  DW_CFA_def_cfa_offset: +16
  DW_CFA_offset: RBP -16
  DW_CFA_advance_loc: 3
  DW_CFA_def_cfa_register: RBP
  DW_CFA_advance_loc: 5
  DW_CFA_offset: RBX -24
  DW_CFA_advance_loc1: 125
  DW_CFA_def_cfa: RSP +8
  DW_CFA_nop:
  DW_CFA_nop:
  DW_CFA_nop:

  0xfd760: CFA=RSP+8: RIP=[CFA-8]
  0xfd761: CFA=RSP+16: RBP=[CFA-16], RIP=[CFA-8]
  0xfd764: CFA=RBP+16: RBP=[CFA-16], RIP=[CFA-8]
  0xfd769: CFA=RBP+16: RBX=[CFA-24], RBP=[CFA-16], RIP=[CFA-8]
  0xfd7e6: CFA=RSP+8: RBX=[CFA-24], RBP=[CFA-16], RIP=[CFA-8]

000067a4 0000001c 000067a8 FDE cie=00000000 pc=000fd7f0...000fd80b
  Format:       DWARF32
  DW_CFA_advance_loc: 1
  DW_CFA_def_cfa_offset: +16
  DW_CFA_offset: RBP -16
  DW_CFA_advance_loc: 3
  DW_CFA_def_cfa_register: RBP
  DW_CFA_advance_loc: 22
  DW_CFA_def_cfa: RSP +8
  DW_CFA_nop:
  DW_CFA_nop:
  DW_CFA_nop:

  0xfd7f0: CFA=RSP+8: RIP=[CFA-8]
  0xfd7f1: CFA=RSP+16: RBP=[CFA-16], RIP=[CFA-8]
  0xfd7f4: CFA=RBP+16: RBP=[CFA-16], RIP=[CFA-8]
  0xfd80a: CFA=RSP+8: RBP=[CFA-16], RIP=[CFA-8]

000067c4 00000028 000067c8 FDE cie=00000000 pc=000fd810...000fd910
  Format:       DWARF32
  DW_CFA_advance_loc: 1
  DW_CFA_def_cfa_offset: +16
  DW_CFA_offset: RBP -16
  DW_CFA_advance_loc: 3
  DW_CFA_def_cfa_register: RBP
  DW_CFA_advance_loc: 16
  DW_CFA_offset: RBX -56
  DW_CFA_offset: R12 -48
  DW_CFA_offset: R13 -40
  DW_CFA_offset: R14 -32
  DW_CFA_offset: R15 -24
  DW_CFA_advance_loc1: 235
  DW_CFA_def_cfa: RSP +8
  DW_CFA_nop:
  DW_CFA_nop:
  DW_CFA_nop:

  0xfd810: CFA=RSP+8: RIP=[CFA-8]
  0xfd811: CFA=RSP+16: RBP=[CFA-16], RIP=[CFA-8]
  0xfd814: CFA=RBP+16: RBP=[CFA-16], RIP=[CFA-8]
  0xfd824: CFA=RBP+16: RBX=[CFA-56], RBP=[CFA-16], R12=[CFA-48], R13=[CFA-40], R14=[CFA-32], R15=[CFA-24], RIP=[CFA-8]
  0xfd90f: CFA=RSP+8: RBX=[CFA-56], RBP=[CFA-16], R12=[CFA-48], R13=[CFA-40], R14=[CFA-32], R15=[CFA-24], RIP=[CFA-8]

000067f0 0000001c 000067f4 FDE cie=00000000 pc=000fd910...000fd939
  Format:       DWARF32
  DW_CFA_advance_loc: 1
  DW_CFA_def_cfa_offset: +16
  DW_CFA_offset: RBP -16
  DW_CFA_advance_loc: 3
  DW_CFA_def_cfa_register: RBP
  DW_CFA_advance_loc: 36
  DW_CFA_def_cfa: RSP +8
  DW_CFA_nop:
  DW_CFA_nop:
  DW_CFA_nop:

  0xfd910: CFA=RSP+8: RIP=[CFA-8]
  0xfd911: CFA=RSP+16: RBP=[CFA-16], RIP=[CFA-8]
  0xfd914: CFA=RBP+16: RBP=[CFA-16], RIP=[CFA-8]
  0xfd938: CFA=RSP+8: RBP=[CFA-16], RIP=[CFA-8]

00006810 00000028 00006814 FDE cie=00000000 pc=000fd940...000fda8c
  Format:       DWARF32
  DW_CFA_advance_loc: 1
  DW_CFA_def_cfa_offset: +16
  DW_CFA_offset: RBP -16
  DW_CFA_advance_loc: 3
  DW_CFA_def_cfa_register: RBP
  DW_CFA_advance_loc: 16
  DW_CFA_offset: RBX -56
  DW_CFA_offset: R12 -48
  DW_CFA_offset: R13 -40
  DW_CFA_offset: R14 -32
  DW_CFA_offset: R15 -24
  DW_CFA_advance_loc2: 311
  DW_CFA_def_cfa: RSP +8
  DW_CFA_nop:
  DW_CFA_nop:

  0xfd940: CFA=RSP+8: RIP=[CFA-8]
  0xfd941: CFA=RSP+16: RBP=[CFA-16], RIP=[CFA-8]
  0xfd944: CFA=RBP+16: RBP=[CFA-16], RIP=[CFA-8]
  0xfd954: CFA=RBP+16: RBX=[CFA-56], RBP=[CFA-16], R12=[CFA-48], R13=[CFA-40], R14=[CFA-32], R15=[CFA-24], RIP=[CFA-8]
  0xfda8b: CFA=RSP+8: RBX=[CFA-56], RBP=[CFA-16], R12=[CFA-48], R13=[CFA-40], R14=[CFA-32], R15=[CFA-24], RIP=[CFA-8]

0000683c 0000001c 00006840 FDE cie=00000000 pc=000fda90...000fdab7
  Format:       DWARF32
  DW_CFA_advance_loc: 1
  DW_CFA_def_cfa_offset: +16
  DW_CFA_offset: RBP -16
  DW_CFA_advance_loc: 3
  DW_CFA_def_cfa_register: RBP
  DW_CFA_advance_loc: 34
  DW_CFA_def_cfa: RSP +8
  DW_CFA_nop:
  DW_CFA_nop:
  DW_CFA_nop:

  0xfda90: CFA=RSP+8: RIP=[CFA-8]
  0xfda91: CFA=RSP+16: RBP=[CFA-16], RIP=[CFA-8]
  0xfda94: CFA=RBP+16: RBP=[CFA-16], RIP=[CFA-8]
  0xfdab6: CFA=RSP+8: RBP=[CFA-16], RIP=[CFA-8]

0000685c 0000001c 00006860 FDE cie=00000000 pc=000fdac0...000fdbff
  Format:       DWARF32
  DW_CFA_advance_loc: 1
  DW_CFA_def_cfa_offset: +16
  DW_CFA_offset: RBP -16
  DW_CFA_advance_loc: 3
  DW_CFA_def_cfa_register: RBP
  DW_CFA_advance_loc2: 314
  DW_CFA_def_cfa: RSP +8
  DW_CFA_nop:

  0xfdac0: CFA=RSP+8: RIP=[CFA-8]
  0xfdac1: CFA=RSP+16: RBP=[CFA-16], RIP=[CFA-8]
  0xfdac4: CFA=RBP+16: RBP=[CFA-16], RIP=[CFA-8]
  0xfdbfe: CFA=RSP+8: RBP=[CFA-16], RIP=[CFA-8]

0000687c 0000001c 00006880 FDE cie=00000000 pc=000fdc00...000fdc21
  Format:       DWARF32
  DW_CFA_advance_loc: 1
  DW_CFA_def_cfa_offset: +16
  DW_CFA_offset: RBP -16
  DW_CFA_advance_loc: 3
  DW_CFA_def_cfa_register: RBP
  DW_CFA_advance_loc: 28
  DW_CFA_def_cfa: RSP +8
  DW_CFA_nop:
  DW_CFA_nop:
  DW_CFA_nop:

  0xfdc00: CFA=RSP+8: RIP=[CFA-8]
  0xfdc01: CFA=RSP+16: RBP=[CFA-16], RIP=[CFA-8]
  0xfdc04: CFA=RBP+16: RBP=[CFA-16], RIP=[CFA-8]
  0xfdc20: CFA=RSP+8: RBP=[CFA-16], RIP=[CFA-8]

0000689c 0000001c 000068a0 FDE cie=00000000 pc=000fdc30...000fdd55
  Format:       DWARF32
  DW_CFA_advance_loc: 1
  DW_CFA_def_cfa_offset: +16
  DW_CFA_offset: RBP -16
  DW_CFA_advance_loc: 3
  DW_CFA_def_cfa_register: RBP
  DW_CFA_advance_loc2: 288
  DW_CFA_def_cfa: RSP +8
  DW_CFA_nop:

  0xfdc30: CFA=RSP+8: RIP=[CFA-8]
  0xfdc31: CFA=RSP+16: RBP=[CFA-16], RIP=[CFA-8]
  0xfdc34: CFA=RBP+16: RBP=[CFA-16], RIP=[CFA-8]
  0xfdd54: CFA=RSP+8: RBP=[CFA-16], RIP=[CFA-8]

000068bc 0000001c 000068c0 FDE cie=00000000 pc=000fdd60...000fdd87
  Format:       DWARF32
  DW_CFA_advance_loc: 1
  DW_CFA_def_cfa_offset: +16
  DW_CFA_offset: RBP -16
  DW_CFA_advance_loc: 3
  DW_CFA_def_cfa_register: RBP
  DW_CFA_advance_loc: 34
  DW_CFA_def_cfa: RSP +8
  DW_CFA_nop:
  DW_CFA_nop:
  DW_CFA_nop:

  0xfdd60: CFA=RSP+8: RIP=[CFA-8]
  0xfdd61: CFA=RSP+16: RBP=[CFA-16], RIP=[CFA-8]
  0xfdd64: CFA=RBP+16: RBP=[CFA-16], RIP=[CFA-8]
  0xfdd86: CFA=RSP+8: RBP=[CFA-16], RIP=[CFA-8]

000068dc 0000001c 000068e0 FDE cie=00000000 pc=000fdd90...000fdde8
  Format:       DWARF32
  DW_CFA_advance_loc: 1
  DW_CFA_def_cfa_offset: +16
  DW_CFA_offset: RBP -16
  DW_CFA_advance_loc: 3
  DW_CFA_def_cfa_register: RBP
  DW_CFA_advance_loc1: 83
  DW_CFA_def_cfa: RSP +8
  DW_CFA_nop:
  DW_CFA_nop:

  0xfdd90: CFA=RSP+8: RIP=[CFA-8]
  0xfdd91: CFA=RSP+16: RBP=[CFA-16], RIP=[CFA-8]
  0xfdd94: CFA=RBP+16: RBP=[CFA-16], RIP=[CFA-8]
  0xfdde7: CFA=RSP+8: RBP=[CFA-16], RIP=[CFA-8]

000068fc 0000001c 00006900 FDE cie=00000000 pc=000fddf0...000fde17
  Format:       DWARF32
  DW_CFA_advance_loc: 1
  DW_CFA_def_cfa_offset: +16
  DW_CFA_offset: RBP -16
  DW_CFA_advance_loc: 3
  DW_CFA_def_cfa_register: RBP
  DW_CFA_advance_loc: 34
  DW_CFA_def_cfa: RSP +8
  DW_CFA_nop:
  DW_CFA_nop:
  DW_CFA_nop:

  0xfddf0: CFA=RSP+8: RIP=[CFA-8]
  0xfddf1: CFA=RSP+16: RBP=[CFA-16], RIP=[CFA-8]
  0xfddf4: CFA=RBP+16: RBP=[CFA-16], RIP=[CFA-8]
  0xfde16: CFA=RSP+8: RBP=[CFA-16], RIP=[CFA-8]

0000691c 00000024 00006920 FDE cie=00000000 pc=000fde20...000fdfc8
  Format:       DWARF32
  DW_CFA_advance_loc: 1
  DW_CFA_def_cfa_offset: +16
  DW_CFA_offset: RBP -16
  DW_CFA_advance_loc: 3
  DW_CFA_def_cfa_register: RBP
  DW_CFA_advance_loc: 12
  DW_CFA_offset: RBX -40
  DW_CFA_offset: R14 -32
  DW_CFA_offset: R15 -24
  DW_CFA_advance_loc2: 407
  DW_CFA_def_cfa: RSP +8
  DW_CFA_nop:
  DW_CFA_nop:

  0xfde20: CFA=RSP+8: RIP=[CFA-8]
  0xfde21: CFA=RSP+16: RBP=[CFA-16], RIP=[CFA-8]
  0xfde24: CFA=RBP+16: RBP=[CFA-16], RIP=[CFA-8]
  0xfde30: CFA=RBP+16: RBX=[CFA-40], RBP=[CFA-16], R14=[CFA-32], R15=[CFA-24], RIP=[CFA-8]
  0xfdfc7: CFA=RSP+8: RBX=[CFA-40], RBP=[CFA-16], R14=[CFA-32], R15=[CFA-24], RIP=[CFA-8]

00006944 0000001c 00006948 FDE cie=00000000 pc=000fdfd0...000fdfe2
  Format:       DWARF32
  DW_CFA_advance_loc: 1
  DW_CFA_def_cfa_offset: +16
  DW_CFA_offset: RBP -16
  DW_CFA_advance_loc: 3
  DW_CFA_def_cfa_register: RBP
  DW_CFA_advance_loc: 13
  DW_CFA_def_cfa: RSP +8
  DW_CFA_nop:
  DW_CFA_nop:
  DW_CFA_nop:

  0xfdfd0: CFA=RSP+8: RIP=[CFA-8]
  0xfdfd1: CFA=RSP+16: RBP=[CFA-16], RIP=[CFA-8]
  0xfdfd4: CFA=RBP+16: RBP=[CFA-16], RIP=[CFA-8]
  0xfdfe1: CFA=RSP+8: RBP=[CFA-16], RIP=[CFA-8]

00006964 0000001c 00006968 FDE cie=00000000 pc=000fdff0...000fe048
  Format:       DWARF32
  DW_CFA_advance_loc: 1
  DW_CFA_def_cfa_offset: +16
  DW_CFA_offset: RBP -16
  DW_CFA_advance_loc: 3
  DW_CFA_def_cfa_register: RBP
  DW_CFA_advance_loc1: 83
  DW_CFA_def_cfa: RSP +8
  DW_CFA_nop:
  DW_CFA_nop:

  0xfdff0: CFA=RSP+8: RIP=[CFA-8]
  0xfdff1: CFA=RSP+16: RBP=[CFA-16], RIP=[CFA-8]
  0xfdff4: CFA=RBP+16: RBP=[CFA-16], RIP=[CFA-8]
  0xfe047: CFA=RSP+8: RBP=[CFA-16], RIP=[CFA-8]

00006984 0000001c 00006988 FDE cie=00000000 pc=000fe050...000fe07b
  Format:       DWARF32
  DW_CFA_advance_loc: 1
  DW_CFA_def_cfa_offset: +16
  DW_CFA_offset: RBP -16
  DW_CFA_advance_loc: 3
  DW_CFA_def_cfa_register: RBP
  DW_CFA_advance_loc: 38
  DW_CFA_def_cfa: RSP +8
  DW_CFA_nop:
  DW_CFA_nop:
  DW_CFA_nop:

  0xfe050: CFA=RSP+8: RIP=[CFA-8]
  0xfe051: CFA=RSP+16: RBP=[CFA-16], RIP=[CFA-8]
  0xfe054: CFA=RBP+16: RBP=[CFA-16], RIP=[CFA-8]
  0xfe07a: CFA=RSP+8: RBP=[CFA-16], RIP=[CFA-8]

000069a4 00000028 000069a8 FDE cie=00000000 pc=000fe080...000fe180
  Format:       DWARF32
  DW_CFA_advance_loc: 1
  DW_CFA_def_cfa_offset: +16
  DW_CFA_offset: RBP -16
  DW_CFA_advance_loc: 3
  DW_CFA_def_cfa_register: RBP
  DW_CFA_advance_loc: 16
  DW_CFA_offset: RBX -56
  DW_CFA_offset: R12 -48
  DW_CFA_offset: R13 -40
  DW_CFA_offset: R14 -32
  DW_CFA_offset: R15 -24
  DW_CFA_advance_loc1: 235
  DW_CFA_def_cfa: RSP +8
  DW_CFA_nop:
  DW_CFA_nop:
  DW_CFA_nop:

  0xfe080: CFA=RSP+8: RIP=[CFA-8]
  0xfe081: CFA=RSP+16: RBP=[CFA-16], RIP=[CFA-8]
  0xfe084: CFA=RBP+16: RBP=[CFA-16], RIP=[CFA-8]
  0xfe094: CFA=RBP+16: RBX=[CFA-56], RBP=[CFA-16], R12=[CFA-48], R13=[CFA-40], R14=[CFA-32], R15=[CFA-24], RIP=[CFA-8]
  0xfe17f: CFA=RSP+8: RBX=[CFA-56], RBP=[CFA-16], R12=[CFA-48], R13=[CFA-40], R14=[CFA-32], R15=[CFA-24], RIP=[CFA-8]

000069d0 0000001c 000069d4 FDE cie=00000000 pc=000fe180...000fe1a7
  Format:       DWARF32
  DW_CFA_advance_loc: 1
  DW_CFA_def_cfa_offset: +16
  DW_CFA_offset: RBP -16
  DW_CFA_advance_loc: 3
  DW_CFA_def_cfa_register: RBP
  DW_CFA_advance_loc: 34
  DW_CFA_def_cfa: RSP +8
  DW_CFA_nop:
  DW_CFA_nop:
  DW_CFA_nop:

  0xfe180: CFA=RSP+8: RIP=[CFA-8]
  0xfe181: CFA=RSP+16: RBP=[CFA-16], RIP=[CFA-8]
  0xfe184: CFA=RBP+16: RBP=[CFA-16], RIP=[CFA-8]
  0xfe1a6: CFA=RSP+8: RBP=[CFA-16], RIP=[CFA-8]

000069f0 00000028 000069f4 FDE cie=00000000 pc=000fe1b0...000fe55e
  Format:       DWARF32
  DW_CFA_advance_loc: 1
  DW_CFA_def_cfa_offset: +16
  DW_CFA_offset: RBP -16
  DW_CFA_advance_loc: 3
  DW_CFA_def_cfa_register: RBP
  DW_CFA_advance_loc: 16
  DW_CFA_offset: RBX -56
  DW_CFA_offset: R12 -48
  DW_CFA_offset: R13 -40
  DW_CFA_offset: R14 -32
  DW_CFA_offset: R15 -24
  DW_CFA_advance_loc2: 921
  DW_CFA_def_cfa: RSP +8
  DW_CFA_nop:
  DW_CFA_nop:

  0xfe1b0: CFA=RSP+8: RIP=[CFA-8]
  0xfe1b1: CFA=RSP+16: RBP=[CFA-16], RIP=[CFA-8]
  0xfe1b4: CFA=RBP+16: RBP=[CFA-16], RIP=[CFA-8]
  0xfe1c4: CFA=RBP+16: RBX=[CFA-56], RBP=[CFA-16], R12=[CFA-48], R13=[CFA-40], R14=[CFA-32], R15=[CFA-24], RIP=[CFA-8]
  0xfe55d: CFA=RSP+8: RBX=[CFA-56], RBP=[CFA-16], R12=[CFA-48], R13=[CFA-40], R14=[CFA-32], R15=[CFA-24], RIP=[CFA-8]

00006a1c 0000001c 00006a20 FDE cie=00000000 pc=000fe560...000fe579
  Format:       DWARF32
  DW_CFA_advance_loc: 1
  DW_CFA_def_cfa_offset: +16
  DW_CFA_offset: RBP -16
  DW_CFA_advance_loc: 3
  DW_CFA_def_cfa_register: RBP
  DW_CFA_advance_loc: 20
  DW_CFA_def_cfa: RSP +8
  DW_CFA_nop:
  DW_CFA_nop:
  DW_CFA_nop:

  0xfe560: CFA=RSP+8: RIP=[CFA-8]
  0xfe561: CFA=RSP+16: RBP=[CFA-16], RIP=[CFA-8]
  0xfe564: CFA=RBP+16: RBP=[CFA-16], RIP=[CFA-8]
  0xfe578: CFA=RSP+8: RBP=[CFA-16], RIP=[CFA-8]

00006a3c 00000024 00006a40 FDE cie=00000000 pc=000fe580...000fe640
  Format:       DWARF32
  DW_CFA_advance_loc: 1
  DW_CFA_def_cfa_offset: +16
  DW_CFA_offset: RBP -16
  DW_CFA_advance_loc: 3
  DW_CFA_def_cfa_register: RBP
  DW_CFA_advance_loc: 11
  DW_CFA_offset: RBX -48
  DW_CFA_offset: R12 -40
  DW_CFA_offset: R14 -32
  DW_CFA_offset: R15 -24
  DW_CFA_advance_loc1: 176
  DW_CFA_def_cfa: RSP +8
  DW_CFA_nop:

  0xfe580: CFA=RSP+8: RIP=[CFA-8]
  0xfe581: CFA=RSP+16: RBP=[CFA-16], RIP=[CFA-8]
  0xfe584: CFA=RBP+16: RBP=[CFA-16], RIP=[CFA-8]
  0xfe58f: CFA=RBP+16: RBX=[CFA-48], RBP=[CFA-16], R12=[CFA-40], R14=[CFA-32], R15=[CFA-24], RIP=[CFA-8]
  0xfe63f: CFA=RSP+8: RBX=[CFA-48], RBP=[CFA-16], R12=[CFA-40], R14=[CFA-32], R15=[CFA-24], RIP=[CFA-8]

00006a64 0000001c 00006a68 FDE cie=00000000 pc=000fe640...000fe667
  Format:       DWARF32
  DW_CFA_advance_loc: 1
  DW_CFA_def_cfa_offset: +16
  DW_CFA_offset: RBP -16
  DW_CFA_advance_loc: 3
  DW_CFA_def_cfa_register: RBP
  DW_CFA_advance_loc: 34
  DW_CFA_def_cfa: RSP +8
  DW_CFA_nop:
  DW_CFA_nop:
  DW_CFA_nop:

  0xfe640: CFA=RSP+8: RIP=[CFA-8]
  0xfe641: CFA=RSP+16: RBP=[CFA-16], RIP=[CFA-8]
  0xfe644: CFA=RBP+16: RBP=[CFA-16], RIP=[CFA-8]
  0xfe666: CFA=RSP+8: RBP=[CFA-16], RIP=[CFA-8]

00006a84 0000001c 00006a88 FDE cie=00000000 pc=000fe670...000fe793
  Format:       DWARF32
  DW_CFA_advance_loc: 1
  DW_CFA_def_cfa_offset: +16
  DW_CFA_offset: RBP -16
  DW_CFA_advance_loc: 3
  DW_CFA_def_cfa_register: RBP
  DW_CFA_advance_loc2: 286
  DW_CFA_def_cfa: RSP +8
  DW_CFA_nop:

  0xfe670: CFA=RSP+8: RIP=[CFA-8]
  0xfe671: CFA=RSP+16: RBP=[CFA-16], RIP=[CFA-8]
  0xfe674: CFA=RBP+16: RBP=[CFA-16], RIP=[CFA-8]
  0xfe792: CFA=RSP+8: RBP=[CFA-16], RIP=[CFA-8]

00006aa4 0000001c 00006aa8 FDE cie=00000000 pc=000fe7a0...000fe7c7
  Format:       DWARF32
  DW_CFA_advance_loc: 1
  DW_CFA_def_cfa_offset: +16
  DW_CFA_offset: RBP -16
  DW_CFA_advance_loc: 3
  DW_CFA_def_cfa_register: RBP
  DW_CFA_advance_loc: 34
  DW_CFA_def_cfa: RSP +8
  DW_CFA_nop:
  DW_CFA_nop:
  DW_CFA_nop:

  0xfe7a0: CFA=RSP+8: RIP=[CFA-8]
  0xfe7a1: CFA=RSP+16: RBP=[CFA-16], RIP=[CFA-8]
  0xfe7a4: CFA=RBP+16: RBP=[CFA-16], RIP=[CFA-8]
  0xfe7c6: CFA=RSP+8: RBP=[CFA-16], RIP=[CFA-8]

00006ac4 00000020 00006ac8 FDE cie=00000000 pc=000fe7d0...000fe955
  Format:       DWARF32
  DW_CFA_advance_loc: 1
  DW_CFA_def_cfa_offset: +16
  DW_CFA_offset: RBP -16
  DW_CFA_advance_loc: 3
  DW_CFA_def_cfa_register: RBP
  DW_CFA_advance_loc: 10
  DW_CFA_offset: RBX -32
  DW_CFA_offset: R14 -24
  DW_CFA_advance_loc2: 374
  DW_CFA_def_cfa: RSP +8

  0xfe7d0: CFA=RSP+8: RIP=[CFA-8]
  0xfe7d1: CFA=RSP+16: RBP=[CFA-16], RIP=[CFA-8]
  0xfe7d4: CFA=RBP+16: RBP=[CFA-16], RIP=[CFA-8]
  0xfe7de: CFA=RBP+16: RBX=[CFA-32], RBP=[CFA-16], R14=[CFA-24], RIP=[CFA-8]
  0xfe954: CFA=RSP+8: RBX=[CFA-32], RBP=[CFA-16], R14=[CFA-24], RIP=[CFA-8]

00006ae8 0000001c 00006aec FDE cie=00000000 pc=000fe960...000fe987
  Format:       DWARF32
  DW_CFA_advance_loc: 1
  DW_CFA_def_cfa_offset: +16
  DW_CFA_offset: RBP -16
  DW_CFA_advance_loc: 3
  DW_CFA_def_cfa_register: RBP
  DW_CFA_advance_loc: 34
  DW_CFA_def_cfa: RSP +8
  DW_CFA_nop:
  DW_CFA_nop:
  DW_CFA_nop:

  0xfe960: CFA=RSP+8: RIP=[CFA-8]
  0xfe961: CFA=RSP+16: RBP=[CFA-16], RIP=[CFA-8]
  0xfe964: CFA=RBP+16: RBP=[CFA-16], RIP=[CFA-8]
  0xfe986: CFA=RSP+8: RBP=[CFA-16], RIP=[CFA-8]

00006b08 00000028 00006b0c FDE cie=00000000 pc=000fe990...000feabf
  Format:       DWARF32
  DW_CFA_advance_loc: 1
  DW_CFA_def_cfa_offset: +16
  DW_CFA_offset: RBP -16
  DW_CFA_advance_loc: 3
  DW_CFA_def_cfa_register: RBP
  DW_CFA_advance_loc: 16
  DW_CFA_offset: RBX -56
  DW_CFA_offset: R12 -48
  DW_CFA_offset: R13 -40
  DW_CFA_offset: R14 -32
  DW_CFA_offset: R15 -24
  DW_CFA_advance_loc2: 282
  DW_CFA_def_cfa: RSP +8
  DW_CFA_nop:
  DW_CFA_nop:

  0xfe990: CFA=RSP+8: RIP=[CFA-8]
  0xfe991: CFA=RSP+16: RBP=[CFA-16], RIP=[CFA-8]
  0xfe994: CFA=RBP+16: RBP=[CFA-16], RIP=[CFA-8]
  0xfe9a4: CFA=RBP+16: RBX=[CFA-56], RBP=[CFA-16], R12=[CFA-48], R13=[CFA-40], R14=[CFA-32], R15=[CFA-24], RIP=[CFA-8]
  0xfeabe: CFA=RSP+8: RBX=[CFA-56], RBP=[CFA-16], R12=[CFA-48], R13=[CFA-40], R14=[CFA-32], R15=[CFA-24], RIP=[CFA-8]

00006b34 0000001c 00006b38 FDE cie=00000000 pc=000feac0...000feae7
  Format:       DWARF32
  DW_CFA_advance_loc: 1
  DW_CFA_def_cfa_offset: +16
  DW_CFA_offset: RBP -16
  DW_CFA_advance_loc: 3
  DW_CFA_def_cfa_register: RBP
  DW_CFA_advance_loc: 34
  DW_CFA_def_cfa: RSP +8
  DW_CFA_nop:
  DW_CFA_nop:
  DW_CFA_nop:

  0xfeac0: CFA=RSP+8: RIP=[CFA-8]
  0xfeac1: CFA=RSP+16: RBP=[CFA-16], RIP=[CFA-8]
  0xfeac4: CFA=RBP+16: RBP=[CFA-16], RIP=[CFA-8]
  0xfeae6: CFA=RSP+8: RBP=[CFA-16], RIP=[CFA-8]

00006b54 00000028 00006b58 FDE cie=00000000 pc=000feaf0...000febf0
  Format:       DWARF32
  DW_CFA_advance_loc: 1
  DW_CFA_def_cfa_offset: +16
  DW_CFA_offset: RBP -16
  DW_CFA_advance_loc: 3
  DW_CFA_def_cfa_register: RBP
  DW_CFA_advance_loc: 16
  DW_CFA_offset: RBX -56
  DW_CFA_offset: R12 -48
  DW_CFA_offset: R13 -40
  DW_CFA_offset: R14 -32
  DW_CFA_offset: R15 -24
  DW_CFA_advance_loc1: 235
  DW_CFA_def_cfa: RSP +8
  DW_CFA_nop:
  DW_CFA_nop:
  DW_CFA_nop:

  0xfeaf0: CFA=RSP+8: RIP=[CFA-8]
  0xfeaf1: CFA=RSP+16: RBP=[CFA-16], RIP=[CFA-8]
  0xfeaf4: CFA=RBP+16: RBP=[CFA-16], RIP=[CFA-8]
  0xfeb04: CFA=RBP+16: RBX=[CFA-56], RBP=[CFA-16], R12=[CFA-48], R13=[CFA-40], R14=[CFA-32], R15=[CFA-24], RIP=[CFA-8]
  0xfebef: CFA=RSP+8: RBX=[CFA-56], RBP=[CFA-16], R12=[CFA-48], R13=[CFA-40], R14=[CFA-32], R15=[CFA-24], RIP=[CFA-8]

00006b80 0000001c 00006b84 FDE cie=00000000 pc=000febf0...000fec05
  Format:       DWARF32
  DW_CFA_advance_loc: 1
  DW_CFA_def_cfa_offset: +16
  DW_CFA_offset: RBP -16
  DW_CFA_advance_loc: 3
  DW_CFA_def_cfa_register: RBP
  DW_CFA_advance_loc: 16
  DW_CFA_def_cfa: RSP +8
  DW_CFA_nop:
  DW_CFA_nop:
  DW_CFA_nop:

  0xfebf0: CFA=RSP+8: RIP=[CFA-8]
  0xfebf1: CFA=RSP+16: RBP=[CFA-16], RIP=[CFA-8]
  0xfebf4: CFA=RBP+16: RBP=[CFA-16], RIP=[CFA-8]
  0xfec04: CFA=RSP+8: RBP=[CFA-16], RIP=[CFA-8]

00006ba0 00000028 00006ba4 FDE cie=00000000 pc=000fec10...000fed47
  Format:       DWARF32
  DW_CFA_advance_loc: 1
  DW_CFA_def_cfa_offset: +16
  DW_CFA_offset: RBP -16
  DW_CFA_advance_loc: 3
  DW_CFA_def_cfa_register: RBP
  DW_CFA_advance_loc: 16
  DW_CFA_offset: RBX -56
  DW_CFA_offset: R12 -48
  DW_CFA_offset: R13 -40
  DW_CFA_offset: R14 -32
  DW_CFA_offset: R15 -24
  DW_CFA_advance_loc2: 290
  DW_CFA_def_cfa: RSP +8
  DW_CFA_nop:
  DW_CFA_nop:

  0xfec10: CFA=RSP+8: RIP=[CFA-8]
  0xfec11: CFA=RSP+16: RBP=[CFA-16], RIP=[CFA-8]
  0xfec14: CFA=RBP+16: RBP=[CFA-16], RIP=[CFA-8]
  0xfec24: CFA=RBP+16: RBX=[CFA-56], RBP=[CFA-16], R12=[CFA-48], R13=[CFA-40], R14=[CFA-32], R15=[CFA-24], RIP=[CFA-8]
  0xfed46: CFA=RSP+8: RBX=[CFA-56], RBP=[CFA-16], R12=[CFA-48], R13=[CFA-40], R14=[CFA-32], R15=[CFA-24], RIP=[CFA-8]

00006bcc 0000001c 00006bd0 FDE cie=00000000 pc=000fed50...000fed77
  Format:       DWARF32
  DW_CFA_advance_loc: 1
  DW_CFA_def_cfa_offset: +16
  DW_CFA_offset: RBP -16
  DW_CFA_advance_loc: 3
  DW_CFA_def_cfa_register: RBP
  DW_CFA_advance_loc: 34
  DW_CFA_def_cfa: RSP +8
  DW_CFA_nop:
  DW_CFA_nop:
  DW_CFA_nop:

  0xfed50: CFA=RSP+8: RIP=[CFA-8]
  0xfed51: CFA=RSP+16: RBP=[CFA-16], RIP=[CFA-8]
  0xfed54: CFA=RBP+16: RBP=[CFA-16], RIP=[CFA-8]
  0xfed76: CFA=RSP+8: RBP=[CFA-16], RIP=[CFA-8]

00006bec 00000020 00006bf0 FDE cie=00000000 pc=000fed80...000fee05
  Format:       DWARF32
  DW_CFA_advance_loc: 1
  DW_CFA_def_cfa_offset: +16
  DW_CFA_offset: RBP -16
  DW_CFA_advance_loc: 3
  DW_CFA_def_cfa_register: RBP
  DW_CFA_advance_loc: 5
  DW_CFA_offset: RBX -24
  DW_CFA_advance_loc1: 123
  DW_CFA_def_cfa: RSP +8
  DW_CFA_nop:
  DW_CFA_nop:
  DW_CFA_nop:

  0xfed80: CFA=RSP+8: RIP=[CFA-8]
  0xfed81: CFA=RSP+16: RBP=[CFA-16], RIP=[CFA-8]
  0xfed84: CFA=RBP+16: RBP=[CFA-16], RIP=[CFA-8]
  0xfed89: CFA=RBP+16: RBX=[CFA-24], RBP=[CFA-16], RIP=[CFA-8]
  0xfee04: CFA=RSP+8: RBX=[CFA-24], RBP=[CFA-16], RIP=[CFA-8]

00006c10 0000001c 00006c14 FDE cie=00000000 pc=000fee10...000fee29
  Format:       DWARF32
  DW_CFA_advance_loc: 1
  DW_CFA_def_cfa_offset: +16
  DW_CFA_offset: RBP -16
  DW_CFA_advance_loc: 3
  DW_CFA_def_cfa_register: RBP
  DW_CFA_advance_loc: 20
  DW_CFA_def_cfa: RSP +8
  DW_CFA_nop:
  DW_CFA_nop:
  DW_CFA_nop:

  0xfee10: CFA=RSP+8: RIP=[CFA-8]
  0xfee11: CFA=RSP+16: RBP=[CFA-16], RIP=[CFA-8]
  0xfee14: CFA=RBP+16: RBP=[CFA-16], RIP=[CFA-8]
  0xfee28: CFA=RSP+8: RBP=[CFA-16], RIP=[CFA-8]

00006c30 0000001c 00006c34 FDE cie=00000000 pc=000fee30...000fee57
  Format:       DWARF32
  DW_CFA_advance_loc: 1
  DW_CFA_def_cfa_offset: +16
  DW_CFA_offset: RBP -16
  DW_CFA_advance_loc: 3
  DW_CFA_def_cfa_register: RBP
  DW_CFA_advance_loc: 34
  DW_CFA_def_cfa: RSP +8
  DW_CFA_nop:
  DW_CFA_nop:
  DW_CFA_nop:

  0xfee30: CFA=RSP+8: RIP=[CFA-8]
  0xfee31: CFA=RSP+16: RBP=[CFA-16], RIP=[CFA-8]
  0xfee34: CFA=RBP+16: RBP=[CFA-16], RIP=[CFA-8]
  0xfee56: CFA=RSP+8: RBP=[CFA-16], RIP=[CFA-8]

00006c50 0000001c 00006c54 FDE cie=00000000 pc=000fee60...000fee87
  Format:       DWARF32
  DW_CFA_advance_loc: 1
  DW_CFA_def_cfa_offset: +16
  DW_CFA_offset: RBP -16
  DW_CFA_advance_loc: 3
  DW_CFA_def_cfa_register: RBP
  DW_CFA_advance_loc: 34
  DW_CFA_def_cfa: RSP +8
  DW_CFA_nop:
  DW_CFA_nop:
  DW_CFA_nop:

  0xfee60: CFA=RSP+8: RIP=[CFA-8]
  0xfee61: CFA=RSP+16: RBP=[CFA-16], RIP=[CFA-8]
  0xfee64: CFA=RBP+16: RBP=[CFA-16], RIP=[CFA-8]
  0xfee86: CFA=RSP+8: RBP=[CFA-16], RIP=[CFA-8]

00006c70 0000001c 00006c74 FDE cie=00000000 pc=000fee90...000feeb7
  Format:       DWARF32
  DW_CFA_advance_loc: 1
  DW_CFA_def_cfa_offset: +16
  DW_CFA_offset: RBP -16
  DW_CFA_advance_loc: 3
  DW_CFA_def_cfa_register: RBP
  DW_CFA_advance_loc: 34
  DW_CFA_def_cfa: RSP +8
  DW_CFA_nop:
  DW_CFA_nop:
  DW_CFA_nop:

  0xfee90: CFA=RSP+8: RIP=[CFA-8]
  0xfee91: CFA=RSP+16: RBP=[CFA-16], RIP=[CFA-8]
  0xfee94: CFA=RBP+16: RBP=[CFA-16], RIP=[CFA-8]
  0xfeeb6: CFA=RSP+8: RBP=[CFA-16], RIP=[CFA-8]

00006c90 0000001c 00006c94 FDE cie=00000000 pc=000feec0...000feee7
  Format:       DWARF32
  DW_CFA_advance_loc: 1
  DW_CFA_def_cfa_offset: +16
  DW_CFA_offset: RBP -16
  DW_CFA_advance_loc: 3
  DW_CFA_def_cfa_register: RBP
  DW_CFA_advance_loc: 34
  DW_CFA_def_cfa: RSP +8
  DW_CFA_nop:
  DW_CFA_nop:
  DW_CFA_nop:

  0xfeec0: CFA=RSP+8: RIP=[CFA-8]
  0xfeec1: CFA=RSP+16: RBP=[CFA-16], RIP=[CFA-8]
  0xfeec4: CFA=RBP+16: RBP=[CFA-16], RIP=[CFA-8]
  0xfeee6: CFA=RSP+8: RBP=[CFA-16], RIP=[CFA-8]

00006cb0 0000001c 00006cb4 FDE cie=00000000 pc=000feef0...000fef32
  Format:       DWARF32
  DW_CFA_advance_loc: 1
  DW_CFA_def_cfa_offset: +16
  DW_CFA_offset: RBP -16
  DW_CFA_advance_loc: 3
  DW_CFA_def_cfa_register: RBP
  DW_CFA_advance_loc: 61
  DW_CFA_def_cfa: RSP +8
  DW_CFA_nop:
  DW_CFA_nop:
  DW_CFA_nop:

  0xfeef0: CFA=RSP+8: RIP=[CFA-8]
  0xfeef1: CFA=RSP+16: RBP=[CFA-16], RIP=[CFA-8]
  0xfeef4: CFA=RBP+16: RBP=[CFA-16], RIP=[CFA-8]
  0xfef31: CFA=RSP+8: RBP=[CFA-16], RIP=[CFA-8]

00006cd0 0000001c 00006cd4 FDE cie=00000000 pc=000fef40...000fefc8
  Format:       DWARF32
  DW_CFA_advance_loc: 1
  DW_CFA_def_cfa_offset: +16
  DW_CFA_offset: RBP -16
  DW_CFA_advance_loc: 3
  DW_CFA_def_cfa_register: RBP
  DW_CFA_advance_loc1: 131
  DW_CFA_def_cfa: RSP +8
  DW_CFA_nop:
  DW_CFA_nop:

  0xfef40: CFA=RSP+8: RIP=[CFA-8]
  0xfef41: CFA=RSP+16: RBP=[CFA-16], RIP=[CFA-8]
  0xfef44: CFA=RBP+16: RBP=[CFA-16], RIP=[CFA-8]
  0xfefc7: CFA=RSP+8: RBP=[CFA-16], RIP=[CFA-8]

00006cf0 0000001c 00006cf4 FDE cie=00000000 pc=000fefd0...000ff059
  Format:       DWARF32
  DW_CFA_advance_loc: 1
  DW_CFA_def_cfa_offset: +16
  DW_CFA_offset: RBP -16
  DW_CFA_advance_loc: 3
  DW_CFA_def_cfa_register: RBP
  DW_CFA_advance_loc1: 132
  DW_CFA_def_cfa: RSP +8
  DW_CFA_nop:
  DW_CFA_nop:

  0xfefd0: CFA=RSP+8: RIP=[CFA-8]
  0xfefd1: CFA=RSP+16: RBP=[CFA-16], RIP=[CFA-8]
  0xfefd4: CFA=RBP+16: RBP=[CFA-16], RIP=[CFA-8]
  0xff058: CFA=RSP+8: RBP=[CFA-16], RIP=[CFA-8]

00006d10 0000001c 00006d14 FDE cie=00000000 pc=000ff060...000ff095
  Format:       DWARF32
  DW_CFA_advance_loc: 1
  DW_CFA_def_cfa_offset: +16
  DW_CFA_offset: RBP -16
  DW_CFA_advance_loc: 3
  DW_CFA_def_cfa_register: RBP
  DW_CFA_advance_loc: 48
  DW_CFA_def_cfa: RSP +8
  DW_CFA_nop:
  DW_CFA_nop:
  DW_CFA_nop:

  0xff060: CFA=RSP+8: RIP=[CFA-8]
  0xff061: CFA=RSP+16: RBP=[CFA-16], RIP=[CFA-8]
  0xff064: CFA=RBP+16: RBP=[CFA-16], RIP=[CFA-8]
  0xff094: CFA=RSP+8: RBP=[CFA-16], RIP=[CFA-8]

00006d30 0000001c 00006d34 FDE cie=00000000 pc=000ff0a0...000ff0ff
  Format:       DWARF32
  DW_CFA_advance_loc: 1
  DW_CFA_def_cfa_offset: +16
  DW_CFA_offset: RBP -16
  DW_CFA_advance_loc: 3
  DW_CFA_def_cfa_register: RBP
  DW_CFA_advance_loc1: 90
  DW_CFA_def_cfa: RSP +8
  DW_CFA_nop:
  DW_CFA_nop:

  0xff0a0: CFA=RSP+8: RIP=[CFA-8]
  0xff0a1: CFA=RSP+16: RBP=[CFA-16], RIP=[CFA-8]
  0xff0a4: CFA=RBP+16: RBP=[CFA-16], RIP=[CFA-8]
  0xff0fe: CFA=RSP+8: RBP=[CFA-16], RIP=[CFA-8]

00006d50 0000001c 00006d54 FDE cie=00000000 pc=000ff100...000ff189
  Format:       DWARF32
  DW_CFA_advance_loc: 1
  DW_CFA_def_cfa_offset: +16
  DW_CFA_offset: RBP -16
  DW_CFA_advance_loc: 3
  DW_CFA_def_cfa_register: RBP
  DW_CFA_advance_loc1: 132
  DW_CFA_def_cfa: RSP +8
  DW_CFA_nop:
  DW_CFA_nop:

  0xff100: CFA=RSP+8: RIP=[CFA-8]
  0xff101: CFA=RSP+16: RBP=[CFA-16], RIP=[CFA-8]
  0xff104: CFA=RBP+16: RBP=[CFA-16], RIP=[CFA-8]
  0xff188: CFA=RSP+8: RBP=[CFA-16], RIP=[CFA-8]

00006d70 0000001c 00006d74 FDE cie=00000000 pc=000ff190...000ff1c5
  Format:       DWARF32
  DW_CFA_advance_loc: 1
  DW_CFA_def_cfa_offset: +16
  DW_CFA_offset: RBP -16
  DW_CFA_advance_loc: 3
  DW_CFA_def_cfa_register: RBP
  DW_CFA_advance_loc: 48
  DW_CFA_def_cfa: RSP +8
  DW_CFA_nop:
  DW_CFA_nop:
  DW_CFA_nop:

  0xff190: CFA=RSP+8: RIP=[CFA-8]
  0xff191: CFA=RSP+16: RBP=[CFA-16], RIP=[CFA-8]
  0xff194: CFA=RBP+16: RBP=[CFA-16], RIP=[CFA-8]
  0xff1c4: CFA=RSP+8: RBP=[CFA-16], RIP=[CFA-8]

00006d90 0000001c 00006d94 FDE cie=00000000 pc=000ff1d0...000ff253
  Format:       DWARF32
  DW_CFA_advance_loc: 1
  DW_CFA_def_cfa_offset: +16
  DW_CFA_offset: RBP -16
  DW_CFA_advance_loc: 3
  DW_CFA_def_cfa_register: RBP
  DW_CFA_advance_loc1: 126
  DW_CFA_def_cfa: RSP +8
  DW_CFA_nop:
  DW_CFA_nop:

  0xff1d0: CFA=RSP+8: RIP=[CFA-8]
  0xff1d1: CFA=RSP+16: RBP=[CFA-16], RIP=[CFA-8]
  0xff1d4: CFA=RBP+16: RBP=[CFA-16], RIP=[CFA-8]
  0xff252: CFA=RSP+8: RBP=[CFA-16], RIP=[CFA-8]

00006db0 0000001c 00006db4 FDE cie=00000000 pc=000ff260...000ff57f
  Format:       DWARF32
  DW_CFA_advance_loc: 1
  DW_CFA_def_cfa_offset: +16
  DW_CFA_offset: RBP -16
  DW_CFA_advance_loc: 3
  DW_CFA_def_cfa_register: RBP
  DW_CFA_advance_loc2: 794
  DW_CFA_def_cfa: RSP +8
  DW_CFA_nop:

  0xff260: CFA=RSP+8: RIP=[CFA-8]
  0xff261: CFA=RSP+16: RBP=[CFA-16], RIP=[CFA-8]
  0xff264: CFA=RBP+16: RBP=[CFA-16], RIP=[CFA-8]
  0xff57e: CFA=RSP+8: RBP=[CFA-16], RIP=[CFA-8]

00006dd0 0000001c 00006dd4 FDE cie=00000000 pc=000ff580...000ff5b5
  Format:       DWARF32
  DW_CFA_advance_loc: 1
  DW_CFA_def_cfa_offset: +16
  DW_CFA_offset: RBP -16
  DW_CFA_advance_loc: 3
  DW_CFA_def_cfa_register: RBP
  DW_CFA_advance_loc: 48
  DW_CFA_def_cfa: RSP +8
  DW_CFA_nop:
  DW_CFA_nop:
  DW_CFA_nop:

  0xff580: CFA=RSP+8: RIP=[CFA-8]
  0xff581: CFA=RSP+16: RBP=[CFA-16], RIP=[CFA-8]
  0xff584: CFA=RBP+16: RBP=[CFA-16], RIP=[CFA-8]
  0xff5b4: CFA=RSP+8: RBP=[CFA-16], RIP=[CFA-8]

00006df0 0000001c 00006df4 FDE cie=00000000 pc=000ff5c0...000ff5f5
  Format:       DWARF32
  DW_CFA_advance_loc: 1
  DW_CFA_def_cfa_offset: +16
  DW_CFA_offset: RBP -16
  DW_CFA_advance_loc: 3
  DW_CFA_def_cfa_register: RBP
  DW_CFA_advance_loc: 48
  DW_CFA_def_cfa: RSP +8
  DW_CFA_nop:
  DW_CFA_nop:
  DW_CFA_nop:

  0xff5c0: CFA=RSP+8: RIP=[CFA-8]
  0xff5c1: CFA=RSP+16: RBP=[CFA-16], RIP=[CFA-8]
  0xff5c4: CFA=RBP+16: RBP=[CFA-16], RIP=[CFA-8]
  0xff5f4: CFA=RSP+8: RBP=[CFA-16], RIP=[CFA-8]

00006e10 0000001c 00006e14 FDE cie=00000000 pc=000ff600...000ff635
  Format:       DWARF32
  DW_CFA_advance_loc: 1
  DW_CFA_def_cfa_offset: +16
  DW_CFA_offset: RBP -16
  DW_CFA_advance_loc: 3
  DW_CFA_def_cfa_register: RBP
  DW_CFA_advance_loc: 48
  DW_CFA_def_cfa: RSP +8
  DW_CFA_nop:
  DW_CFA_nop:
  DW_CFA_nop:

  0xff600: CFA=RSP+8: RIP=[CFA-8]
  0xff601: CFA=RSP+16: RBP=[CFA-16], RIP=[CFA-8]
  0xff604: CFA=RBP+16: RBP=[CFA-16], RIP=[CFA-8]
  0xff634: CFA=RSP+8: RBP=[CFA-16], RIP=[CFA-8]

00006e30 0000001c 00006e34 FDE cie=00000000 pc=000ff640...000ff675
  Format:       DWARF32
  DW_CFA_advance_loc: 1
  DW_CFA_def_cfa_offset: +16
  DW_CFA_offset: RBP -16
  DW_CFA_advance_loc: 3
  DW_CFA_def_cfa_register: RBP
  DW_CFA_advance_loc: 48
  DW_CFA_def_cfa: RSP +8
  DW_CFA_nop:
  DW_CFA_nop:
  DW_CFA_nop:

  0xff640: CFA=RSP+8: RIP=[CFA-8]
  0xff641: CFA=RSP+16: RBP=[CFA-16], RIP=[CFA-8]
  0xff644: CFA=RBP+16: RBP=[CFA-16], RIP=[CFA-8]
  0xff674: CFA=RSP+8: RBP=[CFA-16], RIP=[CFA-8]

00006e50 0000001c 00006e54 FDE cie=00000000 pc=000ff680...000ff6b5
  Format:       DWARF32
  DW_CFA_advance_loc: 1
  DW_CFA_def_cfa_offset: +16
  DW_CFA_offset: RBP -16
  DW_CFA_advance_loc: 3
  DW_CFA_def_cfa_register: RBP
  DW_CFA_advance_loc: 48
  DW_CFA_def_cfa: RSP +8
  DW_CFA_nop:
  DW_CFA_nop:
  DW_CFA_nop:

  0xff680: CFA=RSP+8: RIP=[CFA-8]
  0xff681: CFA=RSP+16: RBP=[CFA-16], RIP=[CFA-8]
  0xff684: CFA=RBP+16: RBP=[CFA-16], RIP=[CFA-8]
  0xff6b4: CFA=RSP+8: RBP=[CFA-16], RIP=[CFA-8]

00006e70 0000001c 00006e74 FDE cie=00000000 pc=000ff6c0...000ff6f5
  Format:       DWARF32
  DW_CFA_advance_loc: 1
  DW_CFA_def_cfa_offset: +16
  DW_CFA_offset: RBP -16
  DW_CFA_advance_loc: 3
  DW_CFA_def_cfa_register: RBP
  DW_CFA_advance_loc: 48
  DW_CFA_def_cfa: RSP +8
  DW_CFA_nop:
  DW_CFA_nop:
  DW_CFA_nop:

  0xff6c0: CFA=RSP+8: RIP=[CFA-8]
  0xff6c1: CFA=RSP+16: RBP=[CFA-16], RIP=[CFA-8]
  0xff6c4: CFA=RBP+16: RBP=[CFA-16], RIP=[CFA-8]
  0xff6f4: CFA=RSP+8: RBP=[CFA-16], RIP=[CFA-8]

00006e90 0000001c 00006e94 FDE cie=00000000 pc=000ff700...000ff73b
  Format:       DWARF32
  DW_CFA_advance_loc: 1
  DW_CFA_def_cfa_offset: +16
  DW_CFA_offset: RBP -16
  DW_CFA_advance_loc: 3
  DW_CFA_def_cfa_register: RBP
  DW_CFA_advance_loc: 54
  DW_CFA_def_cfa: RSP +8
  DW_CFA_nop:
  DW_CFA_nop:
  DW_CFA_nop:

  0xff700: CFA=RSP+8: RIP=[CFA-8]
  0xff701: CFA=RSP+16: RBP=[CFA-16], RIP=[CFA-8]
  0xff704: CFA=RBP+16: RBP=[CFA-16], RIP=[CFA-8]
  0xff73a: CFA=RSP+8: RBP=[CFA-16], RIP=[CFA-8]

00006eb0 0000001c 00006eb4 FDE cie=00000000 pc=000ff740...000ff7cf
  Format:       DWARF32
  DW_CFA_advance_loc: 1
  DW_CFA_def_cfa_offset: +16
  DW_CFA_offset: RBP -16
  DW_CFA_advance_loc: 3
  DW_CFA_def_cfa_register: RBP
  DW_CFA_advance_loc1: 138
  DW_CFA_def_cfa: RSP +8
  DW_CFA_nop:
  DW_CFA_nop:

  0xff740: CFA=RSP+8: RIP=[CFA-8]
  0xff741: CFA=RSP+16: RBP=[CFA-16], RIP=[CFA-8]
  0xff744: CFA=RBP+16: RBP=[CFA-16], RIP=[CFA-8]
  0xff7ce: CFA=RSP+8: RBP=[CFA-16], RIP=[CFA-8]

00006ed0 00000020 00006ed4 FDE cie=00000000 pc=000ff7d0...000ff89b
  Format:       DWARF32
  DW_CFA_advance_loc: 1
  DW_CFA_def_cfa_offset: +16
  DW_CFA_offset: RBP -16
  DW_CFA_advance_loc: 3
  DW_CFA_def_cfa_register: RBP
  DW_CFA_advance_loc1: 198
  DW_CFA_def_cfa: RSP +8
  DW_CFA_nop:
  DW_CFA_nop:
  DW_CFA_nop:
  DW_CFA_nop:
  DW_CFA_nop:
  DW_CFA_nop:

  0xff7d0: CFA=RSP+8: RIP=[CFA-8]
  0xff7d1: CFA=RSP+16: RBP=[CFA-16], RIP=[CFA-8]
  0xff7d4: CFA=RBP+16: RBP=[CFA-16], RIP=[CFA-8]
  0xff89a: CFA=RSP+8: RBP=[CFA-16], RIP=[CFA-8]

00006ef4 0000001c 00006ef8 FDE cie=00000000 pc=000ff8a0...000ff8c3
  Format:       DWARF32
  DW_CFA_advance_loc: 1
  DW_CFA_def_cfa_offset: +16
  DW_CFA_offset: RBP -16
  DW_CFA_advance_loc: 3
  DW_CFA_def_cfa_register: RBP
  DW_CFA_advance_loc: 30
  DW_CFA_def_cfa: RSP +8
  DW_CFA_nop:
  DW_CFA_nop:
  DW_CFA_nop:

  0xff8a0: CFA=RSP+8: RIP=[CFA-8]
  0xff8a1: CFA=RSP+16: RBP=[CFA-16], RIP=[CFA-8]
  0xff8a4: CFA=RBP+16: RBP=[CFA-16], RIP=[CFA-8]
  0xff8c2: CFA=RSP+8: RBP=[CFA-16], RIP=[CFA-8]

00006f14 0000001c 00006f18 FDE cie=00000000 pc=000ff8d0...000ff8f4
  Format:       DWARF32
  DW_CFA_advance_loc: 1
  DW_CFA_def_cfa_offset: +16
  DW_CFA_offset: RBP -16
  DW_CFA_advance_loc: 3
  DW_CFA_def_cfa_register: RBP
  DW_CFA_advance_loc: 31
  DW_CFA_def_cfa: RSP +8
  DW_CFA_nop:
  DW_CFA_nop:
  DW_CFA_nop:

  0xff8d0: CFA=RSP+8: RIP=[CFA-8]
  0xff8d1: CFA=RSP+16: RBP=[CFA-16], RIP=[CFA-8]
  0xff8d4: CFA=RBP+16: RBP=[CFA-16], RIP=[CFA-8]
  0xff8f3: CFA=RSP+8: RBP=[CFA-16], RIP=[CFA-8]

00006f34 0000001c 00006f38 FDE cie=00000000 pc=000ff900...000ff924
  Format:       DWARF32
  DW_CFA_advance_loc: 1
  DW_CFA_def_cfa_offset: +16
  DW_CFA_offset: RBP -16
  DW_CFA_advance_loc: 3
  DW_CFA_def_cfa_register: RBP
  DW_CFA_advance_loc: 31
  DW_CFA_def_cfa: RSP +8
  DW_CFA_nop:
  DW_CFA_nop:
  DW_CFA_nop:

  0xff900: CFA=RSP+8: RIP=[CFA-8]
  0xff901: CFA=RSP+16: RBP=[CFA-16], RIP=[CFA-8]
  0xff904: CFA=RBP+16: RBP=[CFA-16], RIP=[CFA-8]
  0xff923: CFA=RSP+8: RBP=[CFA-16], RIP=[CFA-8]

00006f54 0000001c 00006f58 FDE cie=00000000 pc=000ff930...000ff953
  Format:       DWARF32
  DW_CFA_advance_loc: 1
  DW_CFA_def_cfa_offset: +16
  DW_CFA_offset: RBP -16
  DW_CFA_advance_loc: 3
  DW_CFA_def_cfa_register: RBP
  DW_CFA_advance_loc: 30
  DW_CFA_def_cfa: RSP +8
  DW_CFA_nop:
  DW_CFA_nop:
  DW_CFA_nop:

  0xff930: CFA=RSP+8: RIP=[CFA-8]
  0xff931: CFA=RSP+16: RBP=[CFA-16], RIP=[CFA-8]
  0xff934: CFA=RBP+16: RBP=[CFA-16], RIP=[CFA-8]
  0xff952: CFA=RSP+8: RBP=[CFA-16], RIP=[CFA-8]

00006f74 0000001c 00006f78 FDE cie=00000000 pc=000ff960...000ff98e
  Format:       DWARF32
  DW_CFA_advance_loc: 1
  DW_CFA_def_cfa_offset: +16
  DW_CFA_offset: RBP -16
  DW_CFA_advance_loc: 3
  DW_CFA_def_cfa_register: RBP
  DW_CFA_advance_loc: 41
  DW_CFA_def_cfa: RSP +8
  DW_CFA_nop:
  DW_CFA_nop:
  DW_CFA_nop:

  0xff960: CFA=RSP+8: RIP=[CFA-8]
  0xff961: CFA=RSP+16: RBP=[CFA-16], RIP=[CFA-8]
  0xff964: CFA=RBP+16: RBP=[CFA-16], RIP=[CFA-8]
  0xff98d: CFA=RSP+8: RBP=[CFA-16], RIP=[CFA-8]

00006f94 0000001c 00006f98 FDE cie=00000000 pc=000ff990...000ff9b4
  Format:       DWARF32
  DW_CFA_advance_loc: 1
  DW_CFA_def_cfa_offset: +16
  DW_CFA_offset: RBP -16
  DW_CFA_advance_loc: 3
  DW_CFA_def_cfa_register: RBP
  DW_CFA_advance_loc: 31
  DW_CFA_def_cfa: RSP +8
  DW_CFA_nop:
  DW_CFA_nop:
  DW_CFA_nop:

  0xff990: CFA=RSP+8: RIP=[CFA-8]
  0xff991: CFA=RSP+16: RBP=[CFA-16], RIP=[CFA-8]
  0xff994: CFA=RBP+16: RBP=[CFA-16], RIP=[CFA-8]
  0xff9b3: CFA=RSP+8: RBP=[CFA-16], RIP=[CFA-8]

00006fb4 0000001c 00006fb8 FDE cie=00000000 pc=000ff9c0...000ff9e3
  Format:       DWARF32
  DW_CFA_advance_loc: 1
  DW_CFA_def_cfa_offset: +16
  DW_CFA_offset: RBP -16
  DW_CFA_advance_loc: 3
  DW_CFA_def_cfa_register: RBP
  DW_CFA_advance_loc: 30
  DW_CFA_def_cfa: RSP +8
  DW_CFA_nop:
  DW_CFA_nop:
  DW_CFA_nop:

  0xff9c0: CFA=RSP+8: RIP=[CFA-8]
  0xff9c1: CFA=RSP+16: RBP=[CFA-16], RIP=[CFA-8]
  0xff9c4: CFA=RBP+16: RBP=[CFA-16], RIP=[CFA-8]
  0xff9e2: CFA=RSP+8: RBP=[CFA-16], RIP=[CFA-8]

00006fd4 0000001c 00006fd8 FDE cie=00000000 pc=000ff9f0...000ffa13
  Format:       DWARF32
  DW_CFA_advance_loc: 1
  DW_CFA_def_cfa_offset: +16
  DW_CFA_offset: RBP -16
  DW_CFA_advance_loc: 3
  DW_CFA_def_cfa_register: RBP
  DW_CFA_advance_loc: 30
  DW_CFA_def_cfa: RSP +8
  DW_CFA_nop:
  DW_CFA_nop:
  DW_CFA_nop:

  0xff9f0: CFA=RSP+8: RIP=[CFA-8]
  0xff9f1: CFA=RSP+16: RBP=[CFA-16], RIP=[CFA-8]
  0xff9f4: CFA=RBP+16: RBP=[CFA-16], RIP=[CFA-8]
  0xffa12: CFA=RSP+8: RBP=[CFA-16], RIP=[CFA-8]

00006ff4 0000001c 00006ff8 FDE cie=00000000 pc=000ffa20...000ffa44
  Format:       DWARF32
  DW_CFA_advance_loc: 1
  DW_CFA_def_cfa_offset: +16
  DW_CFA_offset: RBP -16
  DW_CFA_advance_loc: 3
  DW_CFA_def_cfa_register: RBP
  DW_CFA_advance_loc: 31
  DW_CFA_def_cfa: RSP +8
  DW_CFA_nop:
  DW_CFA_nop:
  DW_CFA_nop:

  0xffa20: CFA=RSP+8: RIP=[CFA-8]
  0xffa21: CFA=RSP+16: RBP=[CFA-16], RIP=[CFA-8]
  0xffa24: CFA=RBP+16: RBP=[CFA-16], RIP=[CFA-8]
  0xffa43: CFA=RSP+8: RBP=[CFA-16], RIP=[CFA-8]

00007014 0000001c 00007018 FDE cie=00000000 pc=000ffa50...000ffa74
  Format:       DWARF32
  DW_CFA_advance_loc: 1
  DW_CFA_def_cfa_offset: +16
  DW_CFA_offset: RBP -16
  DW_CFA_advance_loc: 3
  DW_CFA_def_cfa_register: RBP
  DW_CFA_advance_loc: 31
  DW_CFA_def_cfa: RSP +8
  DW_CFA_nop:
  DW_CFA_nop:
  DW_CFA_nop:

  0xffa50: CFA=RSP+8: RIP=[CFA-8]
  0xffa51: CFA=RSP+16: RBP=[CFA-16], RIP=[CFA-8]
  0xffa54: CFA=RBP+16: RBP=[CFA-16], RIP=[CFA-8]
  0xffa73: CFA=RSP+8: RBP=[CFA-16], RIP=[CFA-8]

00007034 0000001c 00007038 FDE cie=00000000 pc=000ffa80...000ffaa4
  Format:       DWARF32
  DW_CFA_advance_loc: 1
  DW_CFA_def_cfa_offset: +16
  DW_CFA_offset: RBP -16
  DW_CFA_advance_loc: 3
  DW_CFA_def_cfa_register: RBP
  DW_CFA_advance_loc: 31
  DW_CFA_def_cfa: RSP +8
  DW_CFA_nop:
  DW_CFA_nop:
  DW_CFA_nop:

  0xffa80: CFA=RSP+8: RIP=[CFA-8]
  0xffa81: CFA=RSP+16: RBP=[CFA-16], RIP=[CFA-8]
  0xffa84: CFA=RBP+16: RBP=[CFA-16], RIP=[CFA-8]
  0xffaa3: CFA=RSP+8: RBP=[CFA-16], RIP=[CFA-8]

00007054 0000001c 00007058 FDE cie=00000000 pc=000ffab0...000ffad4
  Format:       DWARF32
  DW_CFA_advance_loc: 1
  DW_CFA_def_cfa_offset: +16
  DW_CFA_offset: RBP -16
  DW_CFA_advance_loc: 3
  DW_CFA_def_cfa_register: RBP
  DW_CFA_advance_loc: 31
  DW_CFA_def_cfa: RSP +8
  DW_CFA_nop:
  DW_CFA_nop:
  DW_CFA_nop:

  0xffab0: CFA=RSP+8: RIP=[CFA-8]
  0xffab1: CFA=RSP+16: RBP=[CFA-16], RIP=[CFA-8]
  0xffab4: CFA=RBP+16: RBP=[CFA-16], RIP=[CFA-8]
  0xffad3: CFA=RSP+8: RBP=[CFA-16], RIP=[CFA-8]

00007074 0000001c 00007078 FDE cie=00000000 pc=000ffae0...000ffb04
  Format:       DWARF32
  DW_CFA_advance_loc: 1
  DW_CFA_def_cfa_offset: +16
  DW_CFA_offset: RBP -16
  DW_CFA_advance_loc: 3
  DW_CFA_def_cfa_register: RBP
  DW_CFA_advance_loc: 31
  DW_CFA_def_cfa: RSP +8
  DW_CFA_nop:
  DW_CFA_nop:
  DW_CFA_nop:

  0xffae0: CFA=RSP+8: RIP=[CFA-8]
  0xffae1: CFA=RSP+16: RBP=[CFA-16], RIP=[CFA-8]
  0xffae4: CFA=RBP+16: RBP=[CFA-16], RIP=[CFA-8]
  0xffb03: CFA=RSP+8: RBP=[CFA-16], RIP=[CFA-8]

00007094 0000001c 00007098 FDE cie=00000000 pc=000ffb10...000ffb34
  Format:       DWARF32
  DW_CFA_advance_loc: 1
  DW_CFA_def_cfa_offset: +16
  DW_CFA_offset: RBP -16
  DW_CFA_advance_loc: 3
  DW_CFA_def_cfa_register: RBP
  DW_CFA_advance_loc: 31
  DW_CFA_def_cfa: RSP +8
  DW_CFA_nop:
  DW_CFA_nop:
  DW_CFA_nop:

  0xffb10: CFA=RSP+8: RIP=[CFA-8]
  0xffb11: CFA=RSP+16: RBP=[CFA-16], RIP=[CFA-8]
  0xffb14: CFA=RBP+16: RBP=[CFA-16], RIP=[CFA-8]
  0xffb33: CFA=RSP+8: RBP=[CFA-16], RIP=[CFA-8]

000070b4 0000001c 000070b8 FDE cie=00000000 pc=000ffb40...000ffb63
  Format:       DWARF32
  DW_CFA_advance_loc: 1
  DW_CFA_def_cfa_offset: +16
  DW_CFA_offset: RBP -16
  DW_CFA_advance_loc: 3
  DW_CFA_def_cfa_register: RBP
  DW_CFA_advance_loc: 30
  DW_CFA_def_cfa: RSP +8
  DW_CFA_nop:
  DW_CFA_nop:
  DW_CFA_nop:

  0xffb40: CFA=RSP+8: RIP=[CFA-8]
  0xffb41: CFA=RSP+16: RBP=[CFA-16], RIP=[CFA-8]
  0xffb44: CFA=RBP+16: RBP=[CFA-16], RIP=[CFA-8]
  0xffb62: CFA=RSP+8: RBP=[CFA-16], RIP=[CFA-8]

000070d4 0000001c 000070d8 FDE cie=00000000 pc=000ffb70...000ffb93
  Format:       DWARF32
  DW_CFA_advance_loc: 1
  DW_CFA_def_cfa_offset: +16
  DW_CFA_offset: RBP -16
  DW_CFA_advance_loc: 3
  DW_CFA_def_cfa_register: RBP
  DW_CFA_advance_loc: 30
  DW_CFA_def_cfa: RSP +8
  DW_CFA_nop:
  DW_CFA_nop:
  DW_CFA_nop:

  0xffb70: CFA=RSP+8: RIP=[CFA-8]
  0xffb71: CFA=RSP+16: RBP=[CFA-16], RIP=[CFA-8]
  0xffb74: CFA=RBP+16: RBP=[CFA-16], RIP=[CFA-8]
  0xffb92: CFA=RSP+8: RBP=[CFA-16], RIP=[CFA-8]

000070f4 0000001c 000070f8 FDE cie=00000000 pc=000ffba0...000ffbc4
  Format:       DWARF32
  DW_CFA_advance_loc: 1
  DW_CFA_def_cfa_offset: +16
  DW_CFA_offset: RBP -16
  DW_CFA_advance_loc: 3
  DW_CFA_def_cfa_register: RBP
  DW_CFA_advance_loc: 31
  DW_CFA_def_cfa: RSP +8
  DW_CFA_nop:
  DW_CFA_nop:
  DW_CFA_nop:

  0xffba0: CFA=RSP+8: RIP=[CFA-8]
  0xffba1: CFA=RSP+16: RBP=[CFA-16], RIP=[CFA-8]
  0xffba4: CFA=RBP+16: RBP=[CFA-16], RIP=[CFA-8]
  0xffbc3: CFA=RSP+8: RBP=[CFA-16], RIP=[CFA-8]

00007114 0000001c 00007118 FDE cie=00000000 pc=000ffbd0...000ffbf4
  Format:       DWARF32
  DW_CFA_advance_loc: 1
  DW_CFA_def_cfa_offset: +16
  DW_CFA_offset: RBP -16
  DW_CFA_advance_loc: 3
  DW_CFA_def_cfa_register: RBP
  DW_CFA_advance_loc: 31
  DW_CFA_def_cfa: RSP +8
  DW_CFA_nop:
  DW_CFA_nop:
  DW_CFA_nop:

  0xffbd0: CFA=RSP+8: RIP=[CFA-8]
  0xffbd1: CFA=RSP+16: RBP=[CFA-16], RIP=[CFA-8]
  0xffbd4: CFA=RBP+16: RBP=[CFA-16], RIP=[CFA-8]
  0xffbf3: CFA=RSP+8: RBP=[CFA-16], RIP=[CFA-8]

00007134 0000001c 00007138 FDE cie=00000000 pc=000ffc00...000ffc24
  Format:       DWARF32
  DW_CFA_advance_loc: 1
  DW_CFA_def_cfa_offset: +16
  DW_CFA_offset: RBP -16
  DW_CFA_advance_loc: 3
  DW_CFA_def_cfa_register: RBP
  DW_CFA_advance_loc: 31
  DW_CFA_def_cfa: RSP +8
  DW_CFA_nop:
  DW_CFA_nop:
  DW_CFA_nop:

  0xffc00: CFA=RSP+8: RIP=[CFA-8]
  0xffc01: CFA=RSP+16: RBP=[CFA-16], RIP=[CFA-8]
  0xffc04: CFA=RBP+16: RBP=[CFA-16], RIP=[CFA-8]
  0xffc23: CFA=RSP+8: RBP=[CFA-16], RIP=[CFA-8]

00007154 0000001c 00007158 FDE cie=00000000 pc=000ffc30...000ffc53
  Format:       DWARF32
  DW_CFA_advance_loc: 1
  DW_CFA_def_cfa_offset: +16
  DW_CFA_offset: RBP -16
  DW_CFA_advance_loc: 3
  DW_CFA_def_cfa_register: RBP
  DW_CFA_advance_loc: 30
  DW_CFA_def_cfa: RSP +8
  DW_CFA_nop:
  DW_CFA_nop:
  DW_CFA_nop:

  0xffc30: CFA=RSP+8: RIP=[CFA-8]
  0xffc31: CFA=RSP+16: RBP=[CFA-16], RIP=[CFA-8]
  0xffc34: CFA=RBP+16: RBP=[CFA-16], RIP=[CFA-8]
  0xffc52: CFA=RSP+8: RBP=[CFA-16], RIP=[CFA-8]

00007174 0000001c 00007178 FDE cie=00000000 pc=000ffc60...000ffc84
  Format:       DWARF32
  DW_CFA_advance_loc: 1
  DW_CFA_def_cfa_offset: +16
  DW_CFA_offset: RBP -16
  DW_CFA_advance_loc: 3
  DW_CFA_def_cfa_register: RBP
  DW_CFA_advance_loc: 31
  DW_CFA_def_cfa: RSP +8
  DW_CFA_nop:
  DW_CFA_nop:
  DW_CFA_nop:

  0xffc60: CFA=RSP+8: RIP=[CFA-8]
  0xffc61: CFA=RSP+16: RBP=[CFA-16], RIP=[CFA-8]
  0xffc64: CFA=RBP+16: RBP=[CFA-16], RIP=[CFA-8]
  0xffc83: CFA=RSP+8: RBP=[CFA-16], RIP=[CFA-8]

00007194 0000001c 00007198 FDE cie=00000000 pc=000ffc90...000ffcb4
  Format:       DWARF32
  DW_CFA_advance_loc: 1
  DW_CFA_def_cfa_offset: +16
  DW_CFA_offset: RBP -16
  DW_CFA_advance_loc: 3
  DW_CFA_def_cfa_register: RBP
  DW_CFA_advance_loc: 31
  DW_CFA_def_cfa: RSP +8
  DW_CFA_nop:
  DW_CFA_nop:
  DW_CFA_nop:

  0xffc90: CFA=RSP+8: RIP=[CFA-8]
  0xffc91: CFA=RSP+16: RBP=[CFA-16], RIP=[CFA-8]
  0xffc94: CFA=RBP+16: RBP=[CFA-16], RIP=[CFA-8]
  0xffcb3: CFA=RSP+8: RBP=[CFA-16], RIP=[CFA-8]

000071b4 0000001c 000071b8 FDE cie=00000000 pc=000ffcc0...000ffce4
  Format:       DWARF32
  DW_CFA_advance_loc: 1
  DW_CFA_def_cfa_offset: +16
  DW_CFA_offset: RBP -16
  DW_CFA_advance_loc: 3
  DW_CFA_def_cfa_register: RBP
  DW_CFA_advance_loc: 31
  DW_CFA_def_cfa: RSP +8
  DW_CFA_nop:
  DW_CFA_nop:
  DW_CFA_nop:

  0xffcc0: CFA=RSP+8: RIP=[CFA-8]
  0xffcc1: CFA=RSP+16: RBP=[CFA-16], RIP=[CFA-8]
  0xffcc4: CFA=RBP+16: RBP=[CFA-16], RIP=[CFA-8]
  0xffce3: CFA=RSP+8: RBP=[CFA-16], RIP=[CFA-8]

000071d4 0000001c 000071d8 FDE cie=00000000 pc=000ffcf0...000ffd14
  Format:       DWARF32
  DW_CFA_advance_loc: 1
  DW_CFA_def_cfa_offset: +16
  DW_CFA_offset: RBP -16
  DW_CFA_advance_loc: 3
  DW_CFA_def_cfa_register: RBP
  DW_CFA_advance_loc: 31
  DW_CFA_def_cfa: RSP +8
  DW_CFA_nop:
  DW_CFA_nop:
  DW_CFA_nop:

  0xffcf0: CFA=RSP+8: RIP=[CFA-8]
  0xffcf1: CFA=RSP+16: RBP=[CFA-16], RIP=[CFA-8]
  0xffcf4: CFA=RBP+16: RBP=[CFA-16], RIP=[CFA-8]
  0xffd13: CFA=RSP+8: RBP=[CFA-16], RIP=[CFA-8]

000071f4 0000001c 000071f8 FDE cie=00000000 pc=000ffd20...000ffd43
  Format:       DWARF32
  DW_CFA_advance_loc: 1
  DW_CFA_def_cfa_offset: +16
  DW_CFA_offset: RBP -16
  DW_CFA_advance_loc: 3
  DW_CFA_def_cfa_register: RBP
  DW_CFA_advance_loc: 30
  DW_CFA_def_cfa: RSP +8
  DW_CFA_nop:
  DW_CFA_nop:
  DW_CFA_nop:

  0xffd20: CFA=RSP+8: RIP=[CFA-8]
  0xffd21: CFA=RSP+16: RBP=[CFA-16], RIP=[CFA-8]
  0xffd24: CFA=RBP+16: RBP=[CFA-16], RIP=[CFA-8]
  0xffd42: CFA=RSP+8: RBP=[CFA-16], RIP=[CFA-8]

00007214 0000001c 00007218 FDE cie=00000000 pc=000ffd50...000ffd74
  Format:       DWARF32
  DW_CFA_advance_loc: 1
  DW_CFA_def_cfa_offset: +16
  DW_CFA_offset: RBP -16
  DW_CFA_advance_loc: 3
  DW_CFA_def_cfa_register: RBP
  DW_CFA_advance_loc: 31
  DW_CFA_def_cfa: RSP +8
  DW_CFA_nop:
  DW_CFA_nop:
  DW_CFA_nop:

  0xffd50: CFA=RSP+8: RIP=[CFA-8]
  0xffd51: CFA=RSP+16: RBP=[CFA-16], RIP=[CFA-8]
  0xffd54: CFA=RBP+16: RBP=[CFA-16], RIP=[CFA-8]
  0xffd73: CFA=RSP+8: RBP=[CFA-16], RIP=[CFA-8]

00007234 0000001c 00007238 FDE cie=00000000 pc=000ffd80...000ffdae
  Format:       DWARF32
  DW_CFA_advance_loc: 1
  DW_CFA_def_cfa_offset: +16
  DW_CFA_offset: RBP -16
  DW_CFA_advance_loc: 3
  DW_CFA_def_cfa_register: RBP
  DW_CFA_advance_loc: 41
  DW_CFA_def_cfa: RSP +8
  DW_CFA_nop:
  DW_CFA_nop:
  DW_CFA_nop:

  0xffd80: CFA=RSP+8: RIP=[CFA-8]
  0xffd81: CFA=RSP+16: RBP=[CFA-16], RIP=[CFA-8]
  0xffd84: CFA=RBP+16: RBP=[CFA-16], RIP=[CFA-8]
  0xffdad: CFA=RSP+8: RBP=[CFA-16], RIP=[CFA-8]

00007254 0000001c 00007258 FDE cie=00000000 pc=000ffdb0...000ffdd4
  Format:       DWARF32
  DW_CFA_advance_loc: 1
  DW_CFA_def_cfa_offset: +16
  DW_CFA_offset: RBP -16
  DW_CFA_advance_loc: 3
  DW_CFA_def_cfa_register: RBP
  DW_CFA_advance_loc: 31
  DW_CFA_def_cfa: RSP +8
  DW_CFA_nop:
  DW_CFA_nop:
  DW_CFA_nop:

  0xffdb0: CFA=RSP+8: RIP=[CFA-8]
  0xffdb1: CFA=RSP+16: RBP=[CFA-16], RIP=[CFA-8]
  0xffdb4: CFA=RBP+16: RBP=[CFA-16], RIP=[CFA-8]
  0xffdd3: CFA=RSP+8: RBP=[CFA-16], RIP=[CFA-8]

00007274 0000001c 00007278 FDE cie=00000000 pc=000ffde0...000ffe04
  Format:       DWARF32
  DW_CFA_advance_loc: 1
  DW_CFA_def_cfa_offset: +16
  DW_CFA_offset: RBP -16
  DW_CFA_advance_loc: 3
  DW_CFA_def_cfa_register: RBP
  DW_CFA_advance_loc: 31
  DW_CFA_def_cfa: RSP +8
  DW_CFA_nop:
  DW_CFA_nop:
  DW_CFA_nop:

  0xffde0: CFA=RSP+8: RIP=[CFA-8]
  0xffde1: CFA=RSP+16: RBP=[CFA-16], RIP=[CFA-8]
  0xffde4: CFA=RBP+16: RBP=[CFA-16], RIP=[CFA-8]
  0xffe03: CFA=RSP+8: RBP=[CFA-16], RIP=[CFA-8]

00007294 0000001c 00007298 FDE cie=00000000 pc=000ffe10...000ffe34
  Format:       DWARF32
  DW_CFA_advance_loc: 1
  DW_CFA_def_cfa_offset: +16
  DW_CFA_offset: RBP -16
  DW_CFA_advance_loc: 3
  DW_CFA_def_cfa_register: RBP
  DW_CFA_advance_loc: 31
  DW_CFA_def_cfa: RSP +8
  DW_CFA_nop:
  DW_CFA_nop:
  DW_CFA_nop:

  0xffe10: CFA=RSP+8: RIP=[CFA-8]
  0xffe11: CFA=RSP+16: RBP=[CFA-16], RIP=[CFA-8]
  0xffe14: CFA=RBP+16: RBP=[CFA-16], RIP=[CFA-8]
  0xffe33: CFA=RSP+8: RBP=[CFA-16], RIP=[CFA-8]

000072b4 0000001c 000072b8 FDE cie=00000000 pc=000ffe40...000ffe63
  Format:       DWARF32
  DW_CFA_advance_loc: 1
  DW_CFA_def_cfa_offset: +16
  DW_CFA_offset: RBP -16
  DW_CFA_advance_loc: 3
  DW_CFA_def_cfa_register: RBP
  DW_CFA_advance_loc: 30
  DW_CFA_def_cfa: RSP +8
  DW_CFA_nop:
  DW_CFA_nop:
  DW_CFA_nop:

  0xffe40: CFA=RSP+8: RIP=[CFA-8]
  0xffe41: CFA=RSP+16: RBP=[CFA-16], RIP=[CFA-8]
  0xffe44: CFA=RBP+16: RBP=[CFA-16], RIP=[CFA-8]
  0xffe62: CFA=RSP+8: RBP=[CFA-16], RIP=[CFA-8]

000072d4 0000001c 000072d8 FDE cie=00000000 pc=000ffe70...000ffe94
  Format:       DWARF32
  DW_CFA_advance_loc: 1
  DW_CFA_def_cfa_offset: +16
  DW_CFA_offset: RBP -16
  DW_CFA_advance_loc: 3
  DW_CFA_def_cfa_register: RBP
  DW_CFA_advance_loc: 31
  DW_CFA_def_cfa: RSP +8
  DW_CFA_nop:
  DW_CFA_nop:
  DW_CFA_nop:

  0xffe70: CFA=RSP+8: RIP=[CFA-8]
  0xffe71: CFA=RSP+16: RBP=[CFA-16], RIP=[CFA-8]
  0xffe74: CFA=RBP+16: RBP=[CFA-16], RIP=[CFA-8]
  0xffe93: CFA=RSP+8: RBP=[CFA-16], RIP=[CFA-8]

000072f4 0000001c 000072f8 FDE cie=00000000 pc=000ffea0...000ffec4
  Format:       DWARF32
  DW_CFA_advance_loc: 1
  DW_CFA_def_cfa_offset: +16
  DW_CFA_offset: RBP -16
  DW_CFA_advance_loc: 3
  DW_CFA_def_cfa_register: RBP
  DW_CFA_advance_loc: 31
  DW_CFA_def_cfa: RSP +8
  DW_CFA_nop:
  DW_CFA_nop:
  DW_CFA_nop:

  0xffea0: CFA=RSP+8: RIP=[CFA-8]
  0xffea1: CFA=RSP+16: RBP=[CFA-16], RIP=[CFA-8]
  0xffea4: CFA=RBP+16: RBP=[CFA-16], RIP=[CFA-8]
  0xffec3: CFA=RSP+8: RBP=[CFA-16], RIP=[CFA-8]

00007314 0000001c 00007318 FDE cie=00000000 pc=000ffed0...000ffefe
  Format:       DWARF32
  DW_CFA_advance_loc: 1
  DW_CFA_def_cfa_offset: +16
  DW_CFA_offset: RBP -16
  DW_CFA_advance_loc: 3
  DW_CFA_def_cfa_register: RBP
  DW_CFA_advance_loc: 41
  DW_CFA_def_cfa: RSP +8
  DW_CFA_nop:
  DW_CFA_nop:
  DW_CFA_nop:

  0xffed0: CFA=RSP+8: RIP=[CFA-8]
  0xffed1: CFA=RSP+16: RBP=[CFA-16], RIP=[CFA-8]
  0xffed4: CFA=RBP+16: RBP=[CFA-16], RIP=[CFA-8]
  0xffefd: CFA=RSP+8: RBP=[CFA-16], RIP=[CFA-8]

00007334 0000001c 00007338 FDE cie=00000000 pc=000fff00...000fff24
  Format:       DWARF32
  DW_CFA_advance_loc: 1
  DW_CFA_def_cfa_offset: +16
  DW_CFA_offset: RBP -16
  DW_CFA_advance_loc: 3
  DW_CFA_def_cfa_register: RBP
  DW_CFA_advance_loc: 31
  DW_CFA_def_cfa: RSP +8
  DW_CFA_nop:
  DW_CFA_nop:
  DW_CFA_nop:

  0xfff00: CFA=RSP+8: RIP=[CFA-8]
  0xfff01: CFA=RSP+16: RBP=[CFA-16], RIP=[CFA-8]
  0xfff04: CFA=RBP+16: RBP=[CFA-16], RIP=[CFA-8]
  0xfff23: CFA=RSP+8: RBP=[CFA-16], RIP=[CFA-8]

00007354 0000001c 00007358 FDE cie=00000000 pc=000fff30...000fff54
  Format:       DWARF32
  DW_CFA_advance_loc: 1
  DW_CFA_def_cfa_offset: +16
  DW_CFA_offset: RBP -16
  DW_CFA_advance_loc: 3
  DW_CFA_def_cfa_register: RBP
  DW_CFA_advance_loc: 31
  DW_CFA_def_cfa: RSP +8
  DW_CFA_nop:
  DW_CFA_nop:
  DW_CFA_nop:

  0xfff30: CFA=RSP+8: RIP=[CFA-8]
  0xfff31: CFA=RSP+16: RBP=[CFA-16], RIP=[CFA-8]
  0xfff34: CFA=RBP+16: RBP=[CFA-16], RIP=[CFA-8]
  0xfff53: CFA=RSP+8: RBP=[CFA-16], RIP=[CFA-8]

00007374 0000001c 00007378 FDE cie=00000000 pc=000fff60...000fff84
  Format:       DWARF32
  DW_CFA_advance_loc: 1
  DW_CFA_def_cfa_offset: +16
  DW_CFA_offset: RBP -16
  DW_CFA_advance_loc: 3
  DW_CFA_def_cfa_register: RBP
  DW_CFA_advance_loc: 31
  DW_CFA_def_cfa: RSP +8
  DW_CFA_nop:
  DW_CFA_nop:
  DW_CFA_nop:

  0xfff60: CFA=RSP+8: RIP=[CFA-8]
  0xfff61: CFA=RSP+16: RBP=[CFA-16], RIP=[CFA-8]
  0xfff64: CFA=RBP+16: RBP=[CFA-16], RIP=[CFA-8]
  0xfff83: CFA=RSP+8: RBP=[CFA-16], RIP=[CFA-8]

00007394 0000001c 00007398 FDE cie=00000000 pc=000fff90...000fffb4
  Format:       DWARF32
  DW_CFA_advance_loc: 1
  DW_CFA_def_cfa_offset: +16
  DW_CFA_offset: RBP -16
  DW_CFA_advance_loc: 3
  DW_CFA_def_cfa_register: RBP
  DW_CFA_advance_loc: 31
  DW_CFA_def_cfa: RSP +8
  DW_CFA_nop:
  DW_CFA_nop:
  DW_CFA_nop:

  0xfff90: CFA=RSP+8: RIP=[CFA-8]
  0xfff91: CFA=RSP+16: RBP=[CFA-16], RIP=[CFA-8]
  0xfff94: CFA=RBP+16: RBP=[CFA-16], RIP=[CFA-8]
  0xfffb3: CFA=RSP+8: RBP=[CFA-16], RIP=[CFA-8]

000073b4 0000001c 000073b8 FDE cie=00000000 pc=000fffc0...000fffe4
  Format:       DWARF32
  DW_CFA_advance_loc: 1
  DW_CFA_def_cfa_offset: +16
  DW_CFA_offset: RBP -16
  DW_CFA_advance_loc: 3
  DW_CFA_def_cfa_register: RBP
  DW_CFA_advance_loc: 31
  DW_CFA_def_cfa: RSP +8
  DW_CFA_nop:
  DW_CFA_nop:
  DW_CFA_nop:

  0xfffc0: CFA=RSP+8: RIP=[CFA-8]
  0xfffc1: CFA=RSP+16: RBP=[CFA-16], RIP=[CFA-8]
  0xfffc4: CFA=RBP+16: RBP=[CFA-16], RIP=[CFA-8]
  0xfffe3: CFA=RSP+8: RBP=[CFA-16], RIP=[CFA-8]

000073d4 0000001c 000073d8 FDE cie=00000000 pc=000ffff0...00100014
  Format:       DWARF32
  DW_CFA_advance_loc: 1
  DW_CFA_def_cfa_offset: +16
  DW_CFA_offset: RBP -16
  DW_CFA_advance_loc: 3
  DW_CFA_def_cfa_register: RBP
  DW_CFA_advance_loc: 31
  DW_CFA_def_cfa: RSP +8
  DW_CFA_nop:
  DW_CFA_nop:
  DW_CFA_nop:

  0xffff0: CFA=RSP+8: RIP=[CFA-8]
  0xffff1: CFA=RSP+16: RBP=[CFA-16], RIP=[CFA-8]
  0xffff4: CFA=RBP+16: RBP=[CFA-16], RIP=[CFA-8]
  0x100013: CFA=RSP+8: RBP=[CFA-16], RIP=[CFA-8]

000073f4 0000001c 000073f8 FDE cie=00000000 pc=00100020...00100044
  Format:       DWARF32
  DW_CFA_advance_loc: 1
  DW_CFA_def_cfa_offset: +16
  DW_CFA_offset: RBP -16
  DW_CFA_advance_loc: 3
  DW_CFA_def_cfa_register: RBP
  DW_CFA_advance_loc: 31
  DW_CFA_def_cfa: RSP +8
  DW_CFA_nop:
  DW_CFA_nop:
  DW_CFA_nop:

  0x100020: CFA=RSP+8: RIP=[CFA-8]
  0x100021: CFA=RSP+16: RBP=[CFA-16], RIP=[CFA-8]
  0x100024: CFA=RBP+16: RBP=[CFA-16], RIP=[CFA-8]
  0x100043: CFA=RSP+8: RBP=[CFA-16], RIP=[CFA-8]

00007414 0000001c 00007418 FDE cie=00000000 pc=00100050...00100074
  Format:       DWARF32
  DW_CFA_advance_loc: 1
  DW_CFA_def_cfa_offset: +16
  DW_CFA_offset: RBP -16
  DW_CFA_advance_loc: 3
  DW_CFA_def_cfa_register: RBP
  DW_CFA_advance_loc: 31
  DW_CFA_def_cfa: RSP +8
  DW_CFA_nop:
  DW_CFA_nop:
  DW_CFA_nop:

  0x100050: CFA=RSP+8: RIP=[CFA-8]
  0x100051: CFA=RSP+16: RBP=[CFA-16], RIP=[CFA-8]
  0x100054: CFA=RBP+16: RBP=[CFA-16], RIP=[CFA-8]
  0x100073: CFA=RSP+8: RBP=[CFA-16], RIP=[CFA-8]

00007434 0000001c 00007438 FDE cie=00000000 pc=00100080...001000a4
  Format:       DWARF32
  DW_CFA_advance_loc: 1
  DW_CFA_def_cfa_offset: +16
  DW_CFA_offset: RBP -16
  DW_CFA_advance_loc: 3
  DW_CFA_def_cfa_register: RBP
  DW_CFA_advance_loc: 31
  DW_CFA_def_cfa: RSP +8
  DW_CFA_nop:
  DW_CFA_nop:
  DW_CFA_nop:

  0x100080: CFA=RSP+8: RIP=[CFA-8]
  0x100081: CFA=RSP+16: RBP=[CFA-16], RIP=[CFA-8]
  0x100084: CFA=RBP+16: RBP=[CFA-16], RIP=[CFA-8]
  0x1000a3: CFA=RSP+8: RBP=[CFA-16], RIP=[CFA-8]

00007454 0000001c 00007458 FDE cie=00000000 pc=001000b0...00100158
  Format:       DWARF32
  DW_CFA_advance_loc: 1
  DW_CFA_def_cfa_offset: +16
  DW_CFA_offset: RBP -16
  DW_CFA_advance_loc: 3
  DW_CFA_def_cfa_register: RBP
  DW_CFA_advance_loc1: 163
  DW_CFA_def_cfa: RSP +8
  DW_CFA_nop:
  DW_CFA_nop:

  0x1000b0: CFA=RSP+8: RIP=[CFA-8]
  0x1000b1: CFA=RSP+16: RBP=[CFA-16], RIP=[CFA-8]
  0x1000b4: CFA=RBP+16: RBP=[CFA-16], RIP=[CFA-8]
  0x100157: CFA=RSP+8: RBP=[CFA-16], RIP=[CFA-8]

00007474 0000001c 00007478 FDE cie=00000000 pc=00100160...0010020c
  Format:       DWARF32
  DW_CFA_advance_loc: 1
  DW_CFA_def_cfa_offset: +16
  DW_CFA_offset: RBP -16
  DW_CFA_advance_loc: 3
  DW_CFA_def_cfa_register: RBP
  DW_CFA_advance_loc1: 167
  DW_CFA_def_cfa: RSP +8
  DW_CFA_nop:
  DW_CFA_nop:

  0x100160: CFA=RSP+8: RIP=[CFA-8]
  0x100161: CFA=RSP+16: RBP=[CFA-16], RIP=[CFA-8]
  0x100164: CFA=RBP+16: RBP=[CFA-16], RIP=[CFA-8]
  0x10020b: CFA=RSP+8: RBP=[CFA-16], RIP=[CFA-8]

00007494 0000001c 00007498 FDE cie=00000000 pc=00100210...001002bc
  Format:       DWARF32
  DW_CFA_advance_loc: 1
  DW_CFA_def_cfa_offset: +16
  DW_CFA_offset: RBP -16
  DW_CFA_advance_loc: 3
  DW_CFA_def_cfa_register: RBP
  DW_CFA_advance_loc1: 167
  DW_CFA_def_cfa: RSP +8
  DW_CFA_nop:
  DW_CFA_nop:

  0x100210: CFA=RSP+8: RIP=[CFA-8]
  0x100211: CFA=RSP+16: RBP=[CFA-16], RIP=[CFA-8]
  0x100214: CFA=RBP+16: RBP=[CFA-16], RIP=[CFA-8]
  0x1002bb: CFA=RSP+8: RBP=[CFA-16], RIP=[CFA-8]

000074b4 0000001c 000074b8 FDE cie=00000000 pc=001002c0...00100368
  Format:       DWARF32
  DW_CFA_advance_loc: 1
  DW_CFA_def_cfa_offset: +16
  DW_CFA_offset: RBP -16
  DW_CFA_advance_loc: 3
  DW_CFA_def_cfa_register: RBP
  DW_CFA_advance_loc1: 163
  DW_CFA_def_cfa: RSP +8
  DW_CFA_nop:
  DW_CFA_nop:

  0x1002c0: CFA=RSP+8: RIP=[CFA-8]
  0x1002c1: CFA=RSP+16: RBP=[CFA-16], RIP=[CFA-8]
  0x1002c4: CFA=RBP+16: RBP=[CFA-16], RIP=[CFA-8]
  0x100367: CFA=RSP+8: RBP=[CFA-16], RIP=[CFA-8]

000074d4 0000001c 000074d8 FDE cie=00000000 pc=00100370...0010041c
  Format:       DWARF32
  DW_CFA_advance_loc: 1
  DW_CFA_def_cfa_offset: +16
  DW_CFA_offset: RBP -16
  DW_CFA_advance_loc: 3
  DW_CFA_def_cfa_register: RBP
  DW_CFA_advance_loc1: 167
  DW_CFA_def_cfa: RSP +8
  DW_CFA_nop:
  DW_CFA_nop:

  0x100370: CFA=RSP+8: RIP=[CFA-8]
  0x100371: CFA=RSP+16: RBP=[CFA-16], RIP=[CFA-8]
  0x100374: CFA=RBP+16: RBP=[CFA-16], RIP=[CFA-8]
  0x10041b: CFA=RSP+8: RBP=[CFA-16], RIP=[CFA-8]

000074f4 0000001c 000074f8 FDE cie=00000000 pc=00100420...001004cc
  Format:       DWARF32
  DW_CFA_advance_loc: 1
  DW_CFA_def_cfa_offset: +16
  DW_CFA_offset: RBP -16
  DW_CFA_advance_loc: 3
  DW_CFA_def_cfa_register: RBP
  DW_CFA_advance_loc1: 167
  DW_CFA_def_cfa: RSP +8
  DW_CFA_nop:
  DW_CFA_nop:

  0x100420: CFA=RSP+8: RIP=[CFA-8]
  0x100421: CFA=RSP+16: RBP=[CFA-16], RIP=[CFA-8]
  0x100424: CFA=RBP+16: RBP=[CFA-16], RIP=[CFA-8]
  0x1004cb: CFA=RSP+8: RBP=[CFA-16], RIP=[CFA-8]

00007514 0000001c 00007518 FDE cie=00000000 pc=001004d0...0010057c
  Format:       DWARF32
  DW_CFA_advance_loc: 1
  DW_CFA_def_cfa_offset: +16
  DW_CFA_offset: RBP -16
  DW_CFA_advance_loc: 3
  DW_CFA_def_cfa_register: RBP
  DW_CFA_advance_loc1: 167
  DW_CFA_def_cfa: RSP +8
  DW_CFA_nop:
  DW_CFA_nop:

  0x1004d0: CFA=RSP+8: RIP=[CFA-8]
  0x1004d1: CFA=RSP+16: RBP=[CFA-16], RIP=[CFA-8]
  0x1004d4: CFA=RBP+16: RBP=[CFA-16], RIP=[CFA-8]
  0x10057b: CFA=RSP+8: RBP=[CFA-16], RIP=[CFA-8]

00007534 0000001c 00007538 FDE cie=00000000 pc=00100580...0010062c
  Format:       DWARF32
  DW_CFA_advance_loc: 1
  DW_CFA_def_cfa_offset: +16
  DW_CFA_offset: RBP -16
  DW_CFA_advance_loc: 3
  DW_CFA_def_cfa_register: RBP
  DW_CFA_advance_loc1: 167
  DW_CFA_def_cfa: RSP +8
  DW_CFA_nop:
  DW_CFA_nop:

  0x100580: CFA=RSP+8: RIP=[CFA-8]
  0x100581: CFA=RSP+16: RBP=[CFA-16], RIP=[CFA-8]
  0x100584: CFA=RBP+16: RBP=[CFA-16], RIP=[CFA-8]
  0x10062b: CFA=RSP+8: RBP=[CFA-16], RIP=[CFA-8]

00007554 0000001c 00007558 FDE cie=00000000 pc=00100630...00100668
  Format:       DWARF32
  DW_CFA_advance_loc: 1
  DW_CFA_def_cfa_offset: +16
  DW_CFA_offset: RBP -16
  DW_CFA_advance_loc: 3
  DW_CFA_def_cfa_register: RBP
  DW_CFA_advance_loc: 51
  DW_CFA_def_cfa: RSP +8
  DW_CFA_nop:
  DW_CFA_nop:
  DW_CFA_nop:

  0x100630: CFA=RSP+8: RIP=[CFA-8]
  0x100631: CFA=RSP+16: RBP=[CFA-16], RIP=[CFA-8]
  0x100634: CFA=RBP+16: RBP=[CFA-16], RIP=[CFA-8]
  0x100667: CFA=RSP+8: RBP=[CFA-16], RIP=[CFA-8]

00007574 0000001c 00007578 FDE cie=00000000 pc=00100670...001006a8
  Format:       DWARF32
  DW_CFA_advance_loc: 1
  DW_CFA_def_cfa_offset: +16
  DW_CFA_offset: RBP -16
  DW_CFA_advance_loc: 3
  DW_CFA_def_cfa_register: RBP
  DW_CFA_advance_loc: 51
  DW_CFA_def_cfa: RSP +8
  DW_CFA_nop:
  DW_CFA_nop:
  DW_CFA_nop:

  0x100670: CFA=RSP+8: RIP=[CFA-8]
  0x100671: CFA=RSP+16: RBP=[CFA-16], RIP=[CFA-8]
  0x100674: CFA=RBP+16: RBP=[CFA-16], RIP=[CFA-8]
  0x1006a7: CFA=RSP+8: RBP=[CFA-16], RIP=[CFA-8]

00007594 0000001c 00007598 FDE cie=00000000 pc=001006b0...001006e8
  Format:       DWARF32
  DW_CFA_advance_loc: 1
  DW_CFA_def_cfa_offset: +16
  DW_CFA_offset: RBP -16
  DW_CFA_advance_loc: 3
  DW_CFA_def_cfa_register: RBP
  DW_CFA_advance_loc: 51
  DW_CFA_def_cfa: RSP +8
  DW_CFA_nop:
  DW_CFA_nop:
  DW_CFA_nop:

  0x1006b0: CFA=RSP+8: RIP=[CFA-8]
  0x1006b1: CFA=RSP+16: RBP=[CFA-16], RIP=[CFA-8]
  0x1006b4: CFA=RBP+16: RBP=[CFA-16], RIP=[CFA-8]
  0x1006e7: CFA=RSP+8: RBP=[CFA-16], RIP=[CFA-8]

000075b4 0000001c 000075b8 FDE cie=00000000 pc=001006f0...00100728
  Format:       DWARF32
  DW_CFA_advance_loc: 1
  DW_CFA_def_cfa_offset: +16
  DW_CFA_offset: RBP -16
  DW_CFA_advance_loc: 3
  DW_CFA_def_cfa_register: RBP
  DW_CFA_advance_loc: 51
  DW_CFA_def_cfa: RSP +8
  DW_CFA_nop:
  DW_CFA_nop:
  DW_CFA_nop:

  0x1006f0: CFA=RSP+8: RIP=[CFA-8]
  0x1006f1: CFA=RSP+16: RBP=[CFA-16], RIP=[CFA-8]
  0x1006f4: CFA=RBP+16: RBP=[CFA-16], RIP=[CFA-8]
  0x100727: CFA=RSP+8: RBP=[CFA-16], RIP=[CFA-8]

000075d4 0000001c 000075d8 FDE cie=00000000 pc=00100730...00100758
  Format:       DWARF32
  DW_CFA_advance_loc: 1
  DW_CFA_def_cfa_offset: +16
  DW_CFA_offset: RBP -16
  DW_CFA_advance_loc: 3
  DW_CFA_def_cfa_register: RBP
  DW_CFA_advance_loc: 35
  DW_CFA_def_cfa: RSP +8
  DW_CFA_nop:
  DW_CFA_nop:
  DW_CFA_nop:

  0x100730: CFA=RSP+8: RIP=[CFA-8]
  0x100731: CFA=RSP+16: RBP=[CFA-16], RIP=[CFA-8]
  0x100734: CFA=RBP+16: RBP=[CFA-16], RIP=[CFA-8]
  0x100757: CFA=RSP+8: RBP=[CFA-16], RIP=[CFA-8]

000075f4 0000001c 000075f8 FDE cie=00000000 pc=00100760...001007ac
  Format:       DWARF32
  DW_CFA_advance_loc: 1
  DW_CFA_def_cfa_offset: +16
  DW_CFA_offset: RBP -16
  DW_CFA_advance_loc: 3
  DW_CFA_def_cfa_register: RBP
  DW_CFA_advance_loc1: 71
  DW_CFA_def_cfa: RSP +8
  DW_CFA_nop:
  DW_CFA_nop:

  0x100760: CFA=RSP+8: RIP=[CFA-8]
  0x100761: CFA=RSP+16: RBP=[CFA-16], RIP=[CFA-8]
  0x100764: CFA=RBP+16: RBP=[CFA-16], RIP=[CFA-8]
  0x1007ab: CFA=RSP+8: RBP=[CFA-16], RIP=[CFA-8]

00007614 0000001c 00007618 FDE cie=00000000 pc=001007b0...001007fc
  Format:       DWARF32
  DW_CFA_advance_loc: 1
  DW_CFA_def_cfa_offset: +16
  DW_CFA_offset: RBP -16
  DW_CFA_advance_loc: 3
  DW_CFA_def_cfa_register: RBP
  DW_CFA_advance_loc1: 71
  DW_CFA_def_cfa: RSP +8
  DW_CFA_nop:
  DW_CFA_nop:

  0x1007b0: CFA=RSP+8: RIP=[CFA-8]
  0x1007b1: CFA=RSP+16: RBP=[CFA-16], RIP=[CFA-8]
  0x1007b4: CFA=RBP+16: RBP=[CFA-16], RIP=[CFA-8]
  0x1007fb: CFA=RSP+8: RBP=[CFA-16], RIP=[CFA-8]

00007634 0000001c 00007638 FDE cie=00000000 pc=00100800...0010084c
  Format:       DWARF32
  DW_CFA_advance_loc: 1
  DW_CFA_def_cfa_offset: +16
  DW_CFA_offset: RBP -16
  DW_CFA_advance_loc: 3
  DW_CFA_def_cfa_register: RBP
  DW_CFA_advance_loc1: 71
  DW_CFA_def_cfa: RSP +8
  DW_CFA_nop:
  DW_CFA_nop:

  0x100800: CFA=RSP+8: RIP=[CFA-8]
  0x100801: CFA=RSP+16: RBP=[CFA-16], RIP=[CFA-8]
  0x100804: CFA=RBP+16: RBP=[CFA-16], RIP=[CFA-8]
  0x10084b: CFA=RSP+8: RBP=[CFA-16], RIP=[CFA-8]

00007654 0000001c 00007658 FDE cie=00000000 pc=00100850...0010089c
  Format:       DWARF32
  DW_CFA_advance_loc: 1
  DW_CFA_def_cfa_offset: +16
  DW_CFA_offset: RBP -16
  DW_CFA_advance_loc: 3
  DW_CFA_def_cfa_register: RBP
  DW_CFA_advance_loc1: 71
  DW_CFA_def_cfa: RSP +8
  DW_CFA_nop:
  DW_CFA_nop:

  0x100850: CFA=RSP+8: RIP=[CFA-8]
  0x100851: CFA=RSP+16: RBP=[CFA-16], RIP=[CFA-8]
  0x100854: CFA=RBP+16: RBP=[CFA-16], RIP=[CFA-8]
  0x10089b: CFA=RSP+8: RBP=[CFA-16], RIP=[CFA-8]

00007674 0000001c 00007678 FDE cie=00000000 pc=001008a0...001008ec
  Format:       DWARF32
  DW_CFA_advance_loc: 1
  DW_CFA_def_cfa_offset: +16
  DW_CFA_offset: RBP -16
  DW_CFA_advance_loc: 3
  DW_CFA_def_cfa_register: RBP
  DW_CFA_advance_loc1: 71
  DW_CFA_def_cfa: RSP +8
  DW_CFA_nop:
  DW_CFA_nop:

  0x1008a0: CFA=RSP+8: RIP=[CFA-8]
  0x1008a1: CFA=RSP+16: RBP=[CFA-16], RIP=[CFA-8]
  0x1008a4: CFA=RBP+16: RBP=[CFA-16], RIP=[CFA-8]
  0x1008eb: CFA=RSP+8: RBP=[CFA-16], RIP=[CFA-8]

00007694 0000001c 00007698 FDE cie=00000000 pc=001008f0...0010093c
  Format:       DWARF32
  DW_CFA_advance_loc: 1
  DW_CFA_def_cfa_offset: +16
  DW_CFA_offset: RBP -16
  DW_CFA_advance_loc: 3
  DW_CFA_def_cfa_register: RBP
  DW_CFA_advance_loc1: 71
  DW_CFA_def_cfa: RSP +8
  DW_CFA_nop:
  DW_CFA_nop:

  0x1008f0: CFA=RSP+8: RIP=[CFA-8]
  0x1008f1: CFA=RSP+16: RBP=[CFA-16], RIP=[CFA-8]
  0x1008f4: CFA=RBP+16: RBP=[CFA-16], RIP=[CFA-8]
  0x10093b: CFA=RSP+8: RBP=[CFA-16], RIP=[CFA-8]

000076b4 0000001c 000076b8 FDE cie=00000000 pc=00100940...0010098c
  Format:       DWARF32
  DW_CFA_advance_loc: 1
  DW_CFA_def_cfa_offset: +16
  DW_CFA_offset: RBP -16
  DW_CFA_advance_loc: 3
  DW_CFA_def_cfa_register: RBP
  DW_CFA_advance_loc1: 71
  DW_CFA_def_cfa: RSP +8
  DW_CFA_nop:
  DW_CFA_nop:

  0x100940: CFA=RSP+8: RIP=[CFA-8]
  0x100941: CFA=RSP+16: RBP=[CFA-16], RIP=[CFA-8]
  0x100944: CFA=RBP+16: RBP=[CFA-16], RIP=[CFA-8]
  0x10098b: CFA=RSP+8: RBP=[CFA-16], RIP=[CFA-8]

000076d4 0000001c 000076d8 FDE cie=00000000 pc=00100990...001009dc
  Format:       DWARF32
  DW_CFA_advance_loc: 1
  DW_CFA_def_cfa_offset: +16
  DW_CFA_offset: RBP -16
  DW_CFA_advance_loc: 3
  DW_CFA_def_cfa_register: RBP
  DW_CFA_advance_loc1: 71
  DW_CFA_def_cfa: RSP +8
  DW_CFA_nop:
  DW_CFA_nop:

  0x100990: CFA=RSP+8: RIP=[CFA-8]
  0x100991: CFA=RSP+16: RBP=[CFA-16], RIP=[CFA-8]
  0x100994: CFA=RBP+16: RBP=[CFA-16], RIP=[CFA-8]
  0x1009db: CFA=RSP+8: RBP=[CFA-16], RIP=[CFA-8]

000076f4 0000001c 000076f8 FDE cie=00000000 pc=001009e0...00100a2c
  Format:       DWARF32
  DW_CFA_advance_loc: 1
  DW_CFA_def_cfa_offset: +16
  DW_CFA_offset: RBP -16
  DW_CFA_advance_loc: 3
  DW_CFA_def_cfa_register: RBP
  DW_CFA_advance_loc1: 71
  DW_CFA_def_cfa: RSP +8
  DW_CFA_nop:
  DW_CFA_nop:

  0x1009e0: CFA=RSP+8: RIP=[CFA-8]
  0x1009e1: CFA=RSP+16: RBP=[CFA-16], RIP=[CFA-8]
  0x1009e4: CFA=RBP+16: RBP=[CFA-16], RIP=[CFA-8]
  0x100a2b: CFA=RSP+8: RBP=[CFA-16], RIP=[CFA-8]

00007714 0000001c 00007718 FDE cie=00000000 pc=00100a30...00100a7c
  Format:       DWARF32
  DW_CFA_advance_loc: 1
  DW_CFA_def_cfa_offset: +16
  DW_CFA_offset: RBP -16
  DW_CFA_advance_loc: 3
  DW_CFA_def_cfa_register: RBP
  DW_CFA_advance_loc1: 71
  DW_CFA_def_cfa: RSP +8
  DW_CFA_nop:
  DW_CFA_nop:

  0x100a30: CFA=RSP+8: RIP=[CFA-8]
  0x100a31: CFA=RSP+16: RBP=[CFA-16], RIP=[CFA-8]
  0x100a34: CFA=RBP+16: RBP=[CFA-16], RIP=[CFA-8]
  0x100a7b: CFA=RSP+8: RBP=[CFA-16], RIP=[CFA-8]

00007734 0000001c 00007738 FDE cie=00000000 pc=00100a80...00100acc
  Format:       DWARF32
  DW_CFA_advance_loc: 1
  DW_CFA_def_cfa_offset: +16
  DW_CFA_offset: RBP -16
  DW_CFA_advance_loc: 3
  DW_CFA_def_cfa_register: RBP
  DW_CFA_advance_loc1: 71
  DW_CFA_def_cfa: RSP +8
  DW_CFA_nop:
  DW_CFA_nop:

  0x100a80: CFA=RSP+8: RIP=[CFA-8]
  0x100a81: CFA=RSP+16: RBP=[CFA-16], RIP=[CFA-8]
  0x100a84: CFA=RBP+16: RBP=[CFA-16], RIP=[CFA-8]
  0x100acb: CFA=RSP+8: RBP=[CFA-16], RIP=[CFA-8]

00007754 0000001c 00007758 FDE cie=00000000 pc=00100ad0...00100b1c
  Format:       DWARF32
  DW_CFA_advance_loc: 1
  DW_CFA_def_cfa_offset: +16
  DW_CFA_offset: RBP -16
  DW_CFA_advance_loc: 3
  DW_CFA_def_cfa_register: RBP
  DW_CFA_advance_loc1: 71
  DW_CFA_def_cfa: RSP +8
  DW_CFA_nop:
  DW_CFA_nop:

  0x100ad0: CFA=RSP+8: RIP=[CFA-8]
  0x100ad1: CFA=RSP+16: RBP=[CFA-16], RIP=[CFA-8]
  0x100ad4: CFA=RBP+16: RBP=[CFA-16], RIP=[CFA-8]
  0x100b1b: CFA=RSP+8: RBP=[CFA-16], RIP=[CFA-8]

00007774 0000001c 00007778 FDE cie=00000000 pc=00100b20...00100b6c
  Format:       DWARF32
  DW_CFA_advance_loc: 1
  DW_CFA_def_cfa_offset: +16
  DW_CFA_offset: RBP -16
  DW_CFA_advance_loc: 3
  DW_CFA_def_cfa_register: RBP
  DW_CFA_advance_loc1: 71
  DW_CFA_def_cfa: RSP +8
  DW_CFA_nop:
  DW_CFA_nop:

  0x100b20: CFA=RSP+8: RIP=[CFA-8]
  0x100b21: CFA=RSP+16: RBP=[CFA-16], RIP=[CFA-8]
  0x100b24: CFA=RBP+16: RBP=[CFA-16], RIP=[CFA-8]
  0x100b6b: CFA=RSP+8: RBP=[CFA-16], RIP=[CFA-8]

00007794 0000001c 00007798 FDE cie=00000000 pc=00100b70...00100bbc
  Format:       DWARF32
  DW_CFA_advance_loc: 1
  DW_CFA_def_cfa_offset: +16
  DW_CFA_offset: RBP -16
  DW_CFA_advance_loc: 3
  DW_CFA_def_cfa_register: RBP
  DW_CFA_advance_loc1: 71
  DW_CFA_def_cfa: RSP +8
  DW_CFA_nop:
  DW_CFA_nop:

  0x100b70: CFA=RSP+8: RIP=[CFA-8]
  0x100b71: CFA=RSP+16: RBP=[CFA-16], RIP=[CFA-8]
  0x100b74: CFA=RBP+16: RBP=[CFA-16], RIP=[CFA-8]
  0x100bbb: CFA=RSP+8: RBP=[CFA-16], RIP=[CFA-8]

000077b4 0000001c 000077b8 FDE cie=00000000 pc=00100bc0...00100c0c
  Format:       DWARF32
  DW_CFA_advance_loc: 1
  DW_CFA_def_cfa_offset: +16
  DW_CFA_offset: RBP -16
  DW_CFA_advance_loc: 3
  DW_CFA_def_cfa_register: RBP
  DW_CFA_advance_loc1: 71
  DW_CFA_def_cfa: RSP +8
  DW_CFA_nop:
  DW_CFA_nop:

  0x100bc0: CFA=RSP+8: RIP=[CFA-8]
  0x100bc1: CFA=RSP+16: RBP=[CFA-16], RIP=[CFA-8]
  0x100bc4: CFA=RBP+16: RBP=[CFA-16], RIP=[CFA-8]
  0x100c0b: CFA=RSP+8: RBP=[CFA-16], RIP=[CFA-8]

000077d4 0000001c 000077d8 FDE cie=00000000 pc=00100c10...00100c5c
  Format:       DWARF32
  DW_CFA_advance_loc: 1
  DW_CFA_def_cfa_offset: +16
  DW_CFA_offset: RBP -16
  DW_CFA_advance_loc: 3
  DW_CFA_def_cfa_register: RBP
  DW_CFA_advance_loc1: 71
  DW_CFA_def_cfa: RSP +8
  DW_CFA_nop:
  DW_CFA_nop:

  0x100c10: CFA=RSP+8: RIP=[CFA-8]
  0x100c11: CFA=RSP+16: RBP=[CFA-16], RIP=[CFA-8]
  0x100c14: CFA=RBP+16: RBP=[CFA-16], RIP=[CFA-8]
  0x100c5b: CFA=RSP+8: RBP=[CFA-16], RIP=[CFA-8]

000077f4 0000001c 000077f8 FDE cie=00000000 pc=00100c60...00100cac
  Format:       DWARF32
  DW_CFA_advance_loc: 1
  DW_CFA_def_cfa_offset: +16
  DW_CFA_offset: RBP -16
  DW_CFA_advance_loc: 3
  DW_CFA_def_cfa_register: RBP
  DW_CFA_advance_loc1: 71
  DW_CFA_def_cfa: RSP +8
  DW_CFA_nop:
  DW_CFA_nop:

  0x100c60: CFA=RSP+8: RIP=[CFA-8]
  0x100c61: CFA=RSP+16: RBP=[CFA-16], RIP=[CFA-8]
  0x100c64: CFA=RBP+16: RBP=[CFA-16], RIP=[CFA-8]
  0x100cab: CFA=RSP+8: RBP=[CFA-16], RIP=[CFA-8]

00007814 0000001c 00007818 FDE cie=00000000 pc=00100cb0...00100cfc
  Format:       DWARF32
  DW_CFA_advance_loc: 1
  DW_CFA_def_cfa_offset: +16
  DW_CFA_offset: RBP -16
  DW_CFA_advance_loc: 3
  DW_CFA_def_cfa_register: RBP
  DW_CFA_advance_loc1: 71
  DW_CFA_def_cfa: RSP +8
  DW_CFA_nop:
  DW_CFA_nop:

  0x100cb0: CFA=RSP+8: RIP=[CFA-8]
  0x100cb1: CFA=RSP+16: RBP=[CFA-16], RIP=[CFA-8]
  0x100cb4: CFA=RBP+16: RBP=[CFA-16], RIP=[CFA-8]
  0x100cfb: CFA=RSP+8: RBP=[CFA-16], RIP=[CFA-8]

00007834 0000001c 00007838 FDE cie=00000000 pc=00100d00...00100d4c
  Format:       DWARF32
  DW_CFA_advance_loc: 1
  DW_CFA_def_cfa_offset: +16
  DW_CFA_offset: RBP -16
  DW_CFA_advance_loc: 3
  DW_CFA_def_cfa_register: RBP
  DW_CFA_advance_loc1: 71
  DW_CFA_def_cfa: RSP +8
  DW_CFA_nop:
  DW_CFA_nop:

  0x100d00: CFA=RSP+8: RIP=[CFA-8]
  0x100d01: CFA=RSP+16: RBP=[CFA-16], RIP=[CFA-8]
  0x100d04: CFA=RBP+16: RBP=[CFA-16], RIP=[CFA-8]
  0x100d4b: CFA=RSP+8: RBP=[CFA-16], RIP=[CFA-8]

00007854 0000001c 00007858 FDE cie=00000000 pc=00100d50...00100d9c
  Format:       DWARF32
  DW_CFA_advance_loc: 1
  DW_CFA_def_cfa_offset: +16
  DW_CFA_offset: RBP -16
  DW_CFA_advance_loc: 3
  DW_CFA_def_cfa_register: RBP
  DW_CFA_advance_loc1: 71
  DW_CFA_def_cfa: RSP +8
  DW_CFA_nop:
  DW_CFA_nop:

  0x100d50: CFA=RSP+8: RIP=[CFA-8]
  0x100d51: CFA=RSP+16: RBP=[CFA-16], RIP=[CFA-8]
  0x100d54: CFA=RBP+16: RBP=[CFA-16], RIP=[CFA-8]
  0x100d9b: CFA=RSP+8: RBP=[CFA-16], RIP=[CFA-8]

00007874 0000001c 00007878 FDE cie=00000000 pc=00100da0...00100dec
  Format:       DWARF32
  DW_CFA_advance_loc: 1
  DW_CFA_def_cfa_offset: +16
  DW_CFA_offset: RBP -16
  DW_CFA_advance_loc: 3
  DW_CFA_def_cfa_register: RBP
  DW_CFA_advance_loc1: 71
  DW_CFA_def_cfa: RSP +8
  DW_CFA_nop:
  DW_CFA_nop:

  0x100da0: CFA=RSP+8: RIP=[CFA-8]
  0x100da1: CFA=RSP+16: RBP=[CFA-16], RIP=[CFA-8]
  0x100da4: CFA=RBP+16: RBP=[CFA-16], RIP=[CFA-8]
  0x100deb: CFA=RSP+8: RBP=[CFA-16], RIP=[CFA-8]

00007894 0000001c 00007898 FDE cie=00000000 pc=00100df0...00100e3c
  Format:       DWARF32
  DW_CFA_advance_loc: 1
  DW_CFA_def_cfa_offset: +16
  DW_CFA_offset: RBP -16
  DW_CFA_advance_loc: 3
  DW_CFA_def_cfa_register: RBP
  DW_CFA_advance_loc1: 71
  DW_CFA_def_cfa: RSP +8
  DW_CFA_nop:
  DW_CFA_nop:

  0x100df0: CFA=RSP+8: RIP=[CFA-8]
  0x100df1: CFA=RSP+16: RBP=[CFA-16], RIP=[CFA-8]
  0x100df4: CFA=RBP+16: RBP=[CFA-16], RIP=[CFA-8]
  0x100e3b: CFA=RSP+8: RBP=[CFA-16], RIP=[CFA-8]

000078b4 0000001c 000078b8 FDE cie=00000000 pc=00100e40...00100e8c
  Format:       DWARF32
  DW_CFA_advance_loc: 1
  DW_CFA_def_cfa_offset: +16
  DW_CFA_offset: RBP -16
  DW_CFA_advance_loc: 3
  DW_CFA_def_cfa_register: RBP
  DW_CFA_advance_loc1: 71
  DW_CFA_def_cfa: RSP +8
  DW_CFA_nop:
  DW_CFA_nop:

  0x100e40: CFA=RSP+8: RIP=[CFA-8]
  0x100e41: CFA=RSP+16: RBP=[CFA-16], RIP=[CFA-8]
  0x100e44: CFA=RBP+16: RBP=[CFA-16], RIP=[CFA-8]
  0x100e8b: CFA=RSP+8: RBP=[CFA-16], RIP=[CFA-8]

000078d4 0000001c 000078d8 FDE cie=00000000 pc=00100e90...00100edc
  Format:       DWARF32
  DW_CFA_advance_loc: 1
  DW_CFA_def_cfa_offset: +16
  DW_CFA_offset: RBP -16
  DW_CFA_advance_loc: 3
  DW_CFA_def_cfa_register: RBP
  DW_CFA_advance_loc1: 71
  DW_CFA_def_cfa: RSP +8
  DW_CFA_nop:
  DW_CFA_nop:

  0x100e90: CFA=RSP+8: RIP=[CFA-8]
  0x100e91: CFA=RSP+16: RBP=[CFA-16], RIP=[CFA-8]
  0x100e94: CFA=RBP+16: RBP=[CFA-16], RIP=[CFA-8]
  0x100edb: CFA=RSP+8: RBP=[CFA-16], RIP=[CFA-8]

000078f4 0000001c 000078f8 FDE cie=00000000 pc=00100ee0...00100f2c
  Format:       DWARF32
  DW_CFA_advance_loc: 1
  DW_CFA_def_cfa_offset: +16
  DW_CFA_offset: RBP -16
  DW_CFA_advance_loc: 3
  DW_CFA_def_cfa_register: RBP
  DW_CFA_advance_loc1: 71
  DW_CFA_def_cfa: RSP +8
  DW_CFA_nop:
  DW_CFA_nop:

  0x100ee0: CFA=RSP+8: RIP=[CFA-8]
  0x100ee1: CFA=RSP+16: RBP=[CFA-16], RIP=[CFA-8]
  0x100ee4: CFA=RBP+16: RBP=[CFA-16], RIP=[CFA-8]
  0x100f2b: CFA=RSP+8: RBP=[CFA-16], RIP=[CFA-8]

00007914 0000001c 00007918 FDE cie=00000000 pc=00100f30...00100f7c
  Format:       DWARF32
  DW_CFA_advance_loc: 1
  DW_CFA_def_cfa_offset: +16
  DW_CFA_offset: RBP -16
  DW_CFA_advance_loc: 3
  DW_CFA_def_cfa_register: RBP
  DW_CFA_advance_loc1: 71
  DW_CFA_def_cfa: RSP +8
  DW_CFA_nop:
  DW_CFA_nop:

  0x100f30: CFA=RSP+8: RIP=[CFA-8]
  0x100f31: CFA=RSP+16: RBP=[CFA-16], RIP=[CFA-8]
  0x100f34: CFA=RBP+16: RBP=[CFA-16], RIP=[CFA-8]
  0x100f7b: CFA=RSP+8: RBP=[CFA-16], RIP=[CFA-8]

00007934 0000001c 00007938 FDE cie=00000000 pc=00100f80...00100fcc
  Format:       DWARF32
  DW_CFA_advance_loc: 1
  DW_CFA_def_cfa_offset: +16
  DW_CFA_offset: RBP -16
  DW_CFA_advance_loc: 3
  DW_CFA_def_cfa_register: RBP
  DW_CFA_advance_loc1: 71
  DW_CFA_def_cfa: RSP +8
  DW_CFA_nop:
  DW_CFA_nop:

  0x100f80: CFA=RSP+8: RIP=[CFA-8]
  0x100f81: CFA=RSP+16: RBP=[CFA-16], RIP=[CFA-8]
  0x100f84: CFA=RBP+16: RBP=[CFA-16], RIP=[CFA-8]
  0x100fcb: CFA=RSP+8: RBP=[CFA-16], RIP=[CFA-8]

00007954 0000001c 00007958 FDE cie=00000000 pc=00100fd0...0010101c
  Format:       DWARF32
  DW_CFA_advance_loc: 1
  DW_CFA_def_cfa_offset: +16
  DW_CFA_offset: RBP -16
  DW_CFA_advance_loc: 3
  DW_CFA_def_cfa_register: RBP
  DW_CFA_advance_loc1: 71
  DW_CFA_def_cfa: RSP +8
  DW_CFA_nop:
  DW_CFA_nop:

  0x100fd0: CFA=RSP+8: RIP=[CFA-8]
  0x100fd1: CFA=RSP+16: RBP=[CFA-16], RIP=[CFA-8]
  0x100fd4: CFA=RBP+16: RBP=[CFA-16], RIP=[CFA-8]
  0x10101b: CFA=RSP+8: RBP=[CFA-16], RIP=[CFA-8]

00007974 0000001c 00007978 FDE cie=00000000 pc=00101020...0010106c
  Format:       DWARF32
  DW_CFA_advance_loc: 1
  DW_CFA_def_cfa_offset: +16
  DW_CFA_offset: RBP -16
  DW_CFA_advance_loc: 3
  DW_CFA_def_cfa_register: RBP
  DW_CFA_advance_loc1: 71
  DW_CFA_def_cfa: RSP +8
  DW_CFA_nop:
  DW_CFA_nop:

  0x101020: CFA=RSP+8: RIP=[CFA-8]
  0x101021: CFA=RSP+16: RBP=[CFA-16], RIP=[CFA-8]
  0x101024: CFA=RBP+16: RBP=[CFA-16], RIP=[CFA-8]
  0x10106b: CFA=RSP+8: RBP=[CFA-16], RIP=[CFA-8]

00007994 0000001c 00007998 FDE cie=00000000 pc=00101070...001010bc
  Format:       DWARF32
  DW_CFA_advance_loc: 1
  DW_CFA_def_cfa_offset: +16
  DW_CFA_offset: RBP -16
  DW_CFA_advance_loc: 3
  DW_CFA_def_cfa_register: RBP
  DW_CFA_advance_loc1: 71
  DW_CFA_def_cfa: RSP +8
  DW_CFA_nop:
  DW_CFA_nop:

  0x101070: CFA=RSP+8: RIP=[CFA-8]
  0x101071: CFA=RSP+16: RBP=[CFA-16], RIP=[CFA-8]
  0x101074: CFA=RBP+16: RBP=[CFA-16], RIP=[CFA-8]
  0x1010bb: CFA=RSP+8: RBP=[CFA-16], RIP=[CFA-8]

000079b4 0000001c 000079b8 FDE cie=00000000 pc=001010c0...0010110c
  Format:       DWARF32
  DW_CFA_advance_loc: 1
  DW_CFA_def_cfa_offset: +16
  DW_CFA_offset: RBP -16
  DW_CFA_advance_loc: 3
  DW_CFA_def_cfa_register: RBP
  DW_CFA_advance_loc1: 71
  DW_CFA_def_cfa: RSP +8
  DW_CFA_nop:
  DW_CFA_nop:

  0x1010c0: CFA=RSP+8: RIP=[CFA-8]
  0x1010c1: CFA=RSP+16: RBP=[CFA-16], RIP=[CFA-8]
  0x1010c4: CFA=RBP+16: RBP=[CFA-16], RIP=[CFA-8]
  0x10110b: CFA=RSP+8: RBP=[CFA-16], RIP=[CFA-8]

000079d4 0000001c 000079d8 FDE cie=00000000 pc=00101110...0010115c
  Format:       DWARF32
  DW_CFA_advance_loc: 1
  DW_CFA_def_cfa_offset: +16
  DW_CFA_offset: RBP -16
  DW_CFA_advance_loc: 3
  DW_CFA_def_cfa_register: RBP
  DW_CFA_advance_loc1: 71
  DW_CFA_def_cfa: RSP +8
  DW_CFA_nop:
  DW_CFA_nop:

  0x101110: CFA=RSP+8: RIP=[CFA-8]
  0x101111: CFA=RSP+16: RBP=[CFA-16], RIP=[CFA-8]
  0x101114: CFA=RBP+16: RBP=[CFA-16], RIP=[CFA-8]
  0x10115b: CFA=RSP+8: RBP=[CFA-16], RIP=[CFA-8]

000079f4 0000001c 000079f8 FDE cie=00000000 pc=00101160...001011ac
  Format:       DWARF32
  DW_CFA_advance_loc: 1
  DW_CFA_def_cfa_offset: +16
  DW_CFA_offset: RBP -16
  DW_CFA_advance_loc: 3
  DW_CFA_def_cfa_register: RBP
  DW_CFA_advance_loc1: 71
  DW_CFA_def_cfa: RSP +8
  DW_CFA_nop:
  DW_CFA_nop:

  0x101160: CFA=RSP+8: RIP=[CFA-8]
  0x101161: CFA=RSP+16: RBP=[CFA-16], RIP=[CFA-8]
  0x101164: CFA=RBP+16: RBP=[CFA-16], RIP=[CFA-8]
  0x1011ab: CFA=RSP+8: RBP=[CFA-16], RIP=[CFA-8]

00007a14 0000001c 00007a18 FDE cie=00000000 pc=001011b0...001011fc
  Format:       DWARF32
  DW_CFA_advance_loc: 1
  DW_CFA_def_cfa_offset: +16
  DW_CFA_offset: RBP -16
  DW_CFA_advance_loc: 3
  DW_CFA_def_cfa_register: RBP
  DW_CFA_advance_loc1: 71
  DW_CFA_def_cfa: RSP +8
  DW_CFA_nop:
  DW_CFA_nop:

  0x1011b0: CFA=RSP+8: RIP=[CFA-8]
  0x1011b1: CFA=RSP+16: RBP=[CFA-16], RIP=[CFA-8]
  0x1011b4: CFA=RBP+16: RBP=[CFA-16], RIP=[CFA-8]
  0x1011fb: CFA=RSP+8: RBP=[CFA-16], RIP=[CFA-8]

00007a34 0000001c 00007a38 FDE cie=00000000 pc=00101200...0010124c
  Format:       DWARF32
  DW_CFA_advance_loc: 1
  DW_CFA_def_cfa_offset: +16
  DW_CFA_offset: RBP -16
  DW_CFA_advance_loc: 3
  DW_CFA_def_cfa_register: RBP
  DW_CFA_advance_loc1: 71
  DW_CFA_def_cfa: RSP +8
  DW_CFA_nop:
  DW_CFA_nop:

  0x101200: CFA=RSP+8: RIP=[CFA-8]
  0x101201: CFA=RSP+16: RBP=[CFA-16], RIP=[CFA-8]
  0x101204: CFA=RBP+16: RBP=[CFA-16], RIP=[CFA-8]
  0x10124b: CFA=RSP+8: RBP=[CFA-16], RIP=[CFA-8]

00007a54 0000001c 00007a58 FDE cie=00000000 pc=00101250...0010129c
  Format:       DWARF32
  DW_CFA_advance_loc: 1
  DW_CFA_def_cfa_offset: +16
  DW_CFA_offset: RBP -16
  DW_CFA_advance_loc: 3
  DW_CFA_def_cfa_register: RBP
  DW_CFA_advance_loc1: 71
  DW_CFA_def_cfa: RSP +8
  DW_CFA_nop:
  DW_CFA_nop:

  0x101250: CFA=RSP+8: RIP=[CFA-8]
  0x101251: CFA=RSP+16: RBP=[CFA-16], RIP=[CFA-8]
  0x101254: CFA=RBP+16: RBP=[CFA-16], RIP=[CFA-8]
  0x10129b: CFA=RSP+8: RBP=[CFA-16], RIP=[CFA-8]

00007a74 0000001c 00007a78 FDE cie=00000000 pc=001012a0...001012ec
  Format:       DWARF32
  DW_CFA_advance_loc: 1
  DW_CFA_def_cfa_offset: +16
  DW_CFA_offset: RBP -16
  DW_CFA_advance_loc: 3
  DW_CFA_def_cfa_register: RBP
  DW_CFA_advance_loc1: 71
  DW_CFA_def_cfa: RSP +8
  DW_CFA_nop:
  DW_CFA_nop:

  0x1012a0: CFA=RSP+8: RIP=[CFA-8]
  0x1012a1: CFA=RSP+16: RBP=[CFA-16], RIP=[CFA-8]
  0x1012a4: CFA=RBP+16: RBP=[CFA-16], RIP=[CFA-8]
  0x1012eb: CFA=RSP+8: RBP=[CFA-16], RIP=[CFA-8]

00007a94 0000001c 00007a98 FDE cie=00000000 pc=001012f0...0010133c
  Format:       DWARF32
  DW_CFA_advance_loc: 1
  DW_CFA_def_cfa_offset: +16
  DW_CFA_offset: RBP -16
  DW_CFA_advance_loc: 3
  DW_CFA_def_cfa_register: RBP
  DW_CFA_advance_loc1: 71
  DW_CFA_def_cfa: RSP +8
  DW_CFA_nop:
  DW_CFA_nop:

  0x1012f0: CFA=RSP+8: RIP=[CFA-8]
  0x1012f1: CFA=RSP+16: RBP=[CFA-16], RIP=[CFA-8]
  0x1012f4: CFA=RBP+16: RBP=[CFA-16], RIP=[CFA-8]
  0x10133b: CFA=RSP+8: RBP=[CFA-16], RIP=[CFA-8]

00007ab4 0000001c 00007ab8 FDE cie=00000000 pc=00101340...0010138c
  Format:       DWARF32
  DW_CFA_advance_loc: 1
  DW_CFA_def_cfa_offset: +16
  DW_CFA_offset: RBP -16
  DW_CFA_advance_loc: 3
  DW_CFA_def_cfa_register: RBP
  DW_CFA_advance_loc1: 71
  DW_CFA_def_cfa: RSP +8
  DW_CFA_nop:
  DW_CFA_nop:

  0x101340: CFA=RSP+8: RIP=[CFA-8]
  0x101341: CFA=RSP+16: RBP=[CFA-16], RIP=[CFA-8]
  0x101344: CFA=RBP+16: RBP=[CFA-16], RIP=[CFA-8]
  0x10138b: CFA=RSP+8: RBP=[CFA-16], RIP=[CFA-8]

00007ad4 0000001c 00007ad8 FDE cie=00000000 pc=00101390...001013b3
  Format:       DWARF32
  DW_CFA_advance_loc: 1
  DW_CFA_def_cfa_offset: +16
  DW_CFA_offset: RBP -16
  DW_CFA_advance_loc: 3
  DW_CFA_def_cfa_register: RBP
  DW_CFA_advance_loc: 30
  DW_CFA_def_cfa: RSP +8
  DW_CFA_nop:
  DW_CFA_nop:
  DW_CFA_nop:

  0x101390: CFA=RSP+8: RIP=[CFA-8]
  0x101391: CFA=RSP+16: RBP=[CFA-16], RIP=[CFA-8]
  0x101394: CFA=RBP+16: RBP=[CFA-16], RIP=[CFA-8]
  0x1013b2: CFA=RSP+8: RBP=[CFA-16], RIP=[CFA-8]

00007af4 0000001c 00007af8 FDE cie=00000000 pc=001013c0...001013e3
  Format:       DWARF32
  DW_CFA_advance_loc: 1
  DW_CFA_def_cfa_offset: +16
  DW_CFA_offset: RBP -16
  DW_CFA_advance_loc: 3
  DW_CFA_def_cfa_register: RBP
  DW_CFA_advance_loc: 30
  DW_CFA_def_cfa: RSP +8
  DW_CFA_nop:
  DW_CFA_nop:
  DW_CFA_nop:

  0x1013c0: CFA=RSP+8: RIP=[CFA-8]
  0x1013c1: CFA=RSP+16: RBP=[CFA-16], RIP=[CFA-8]
  0x1013c4: CFA=RBP+16: RBP=[CFA-16], RIP=[CFA-8]
  0x1013e2: CFA=RSP+8: RBP=[CFA-16], RIP=[CFA-8]

00007b14 0000001c 00007b18 FDE cie=00000000 pc=001013f0...00101413
  Format:       DWARF32
  DW_CFA_advance_loc: 1
  DW_CFA_def_cfa_offset: +16
  DW_CFA_offset: RBP -16
  DW_CFA_advance_loc: 3
  DW_CFA_def_cfa_register: RBP
  DW_CFA_advance_loc: 30
  DW_CFA_def_cfa: RSP +8
  DW_CFA_nop:
  DW_CFA_nop:
  DW_CFA_nop:

  0x1013f0: CFA=RSP+8: RIP=[CFA-8]
  0x1013f1: CFA=RSP+16: RBP=[CFA-16], RIP=[CFA-8]
  0x1013f4: CFA=RBP+16: RBP=[CFA-16], RIP=[CFA-8]
  0x101412: CFA=RSP+8: RBP=[CFA-16], RIP=[CFA-8]

00007b34 00000024 00007b20 FDE cie=00000018 pc=00101420...001014ec
  Format:       DWARF32
  LSDA Address: 00000000000bc514
  DW_CFA_advance_loc: 1
  DW_CFA_def_cfa_offset: +16
  DW_CFA_offset: RBP -16
  DW_CFA_advance_loc: 3
  DW_CFA_def_cfa_register: RBP
  DW_CFA_advance_loc1: 142
  DW_CFA_def_cfa: RSP +8
  DW_CFA_advance_loc: 1
  DW_CFA_def_cfa: RBP +16
  DW_CFA_nop:
  DW_CFA_nop:

  0x101420: CFA=RSP+8: RIP=[CFA-8]
  0x101421: CFA=RSP+16: RBP=[CFA-16], RIP=[CFA-8]
  0x101424: CFA=RBP+16: RBP=[CFA-16], RIP=[CFA-8]
  0x1014b2: CFA=RSP+8: RBP=[CFA-16], RIP=[CFA-8]
  0x1014b3: CFA=RBP+16: RBP=[CFA-16], RIP=[CFA-8]

00007b5c 00000024 00007b48 FDE cie=00000018 pc=001014f0...001015bc
  Format:       DWARF32
  LSDA Address: 00000000000bc52c
  DW_CFA_advance_loc: 1
  DW_CFA_def_cfa_offset: +16
  DW_CFA_offset: RBP -16
  DW_CFA_advance_loc: 3
  DW_CFA_def_cfa_register: RBP
  DW_CFA_advance_loc1: 142
  DW_CFA_def_cfa: RSP +8
  DW_CFA_advance_loc: 1
  DW_CFA_def_cfa: RBP +16
  DW_CFA_nop:
  DW_CFA_nop:

  0x1014f0: CFA=RSP+8: RIP=[CFA-8]
  0x1014f1: CFA=RSP+16: RBP=[CFA-16], RIP=[CFA-8]
  0x1014f4: CFA=RBP+16: RBP=[CFA-16], RIP=[CFA-8]
  0x101582: CFA=RSP+8: RBP=[CFA-16], RIP=[CFA-8]
  0x101583: CFA=RBP+16: RBP=[CFA-16], RIP=[CFA-8]

00007b84 00000024 00007b70 FDE cie=00000018 pc=001015c0...0010168c
  Format:       DWARF32
  LSDA Address: 00000000000bc544
